                 U accept
                 U __assert_fail
                 U bind
00000000003ee290 B __bss_start
                 U close
                 U connect
                 U __cxa_allocate_exception
                 U __cxa_atexit
                 U __cxa_begin_catch
                 U __cxa_end_catch
                 w __cxa_finalize
                 U __cxa_free_exception
                 U __cxa_init_primary_exception
                 U __cxa_pure_virtual
                 U __cxa_rethrow
                 U __cxa_throw
                 U __dynamic_cast
00000000003ee290 D _edata
00000000003ee4e0 B _end
                 U __errno_location
                 U execl
                 U exit
                 U fcntl
000000000019a560 T _fini
                 U floor
                 U fork
                 U gethostbyname
                 U getpeername
                 w __gmon_start__
                 U __gxx_personality_v0
                 U htonl
                 U htons
                 U inet_ntop
0000000000114530 T _init
                 U isspace
                 w _ITM_deregisterTMCloneTable
                 w _ITM_registerTMCloneTable
                 U listen
                 U memcmp
                 U memcpy
                 U memmove
                 U memset
                 U nanosleep
                 U ntohs
                 U __once_proxy
                 U perror
                 w pthread_cond_timedwait
                 U pthread_create
                 w __pthread_key_create
                 w pthread_mutex_lock
                 w pthread_mutex_unlock
                 w pthread_once
                 U raise
                 U rand
                 U recv
                 U remove
                 U round
                 U secp256k1_context_create
                 U secp256k1_context_destroy
                 U secp256k1_ecdh
                 U secp256k1_ecdsa_sign
                 U secp256k1_ecdsa_signature_parse_der
                 U secp256k1_ecdsa_signature_serialize_der
                 U secp256k1_ecdsa_verify
                 U secp256k1_ec_pubkey_create
                 U secp256k1_ec_pubkey_parse
                 U secp256k1_ec_pubkey_serialize
                 U secp256k1_ec_seckey_verify
                 U secp256k1_nonce_function_rfc6979
                 U select
                 U setsockopt
                 U socket
                 U strchr
                 U strcmp
                 U strlen
                 U strtol
                 U __tls_get_addr
                 U _Unwind_Resume
                 U waitpid
                 U write
                 U __xstat
                 U _ZdlPv
                 U _ZdlPvm
00000000001513a6 W _ZdlPvS_
0000000000190d40 W _ZN2us3gov10blockchain10policies_tIdNS0_4cash3app15policies_traitsEE5clearEv
00000000001904a0 W _ZN2us3gov10blockchain10policies_tIdNS0_4cash3app15policies_traitsEEaSERKS6_
0000000000190402 W _ZN2us3gov10blockchain10policies_tIdNS0_4cash3app15policies_traitsEEC1Ev
0000000000190402 W _ZN2us3gov10blockchain10policies_tIdNS0_4cash3app15policies_traitsEEC2Ev
000000000019044e W _ZN2us3gov10blockchain10policies_tIdNS0_4cash3app15policies_traitsEED0Ev
0000000000190430 W _ZN2us3gov10blockchain10policies_tIdNS0_4cash3app15policies_traitsEED1Ev
0000000000190430 W _ZN2us3gov10blockchain10policies_tIdNS0_4cash3app15policies_traitsEED2Ev
0000000000174038 W _ZN2us3gov10blockchain10policies_tIdNS1_4auth15policies_traitsEE5clearEv
0000000000173490 W _ZN2us3gov10blockchain10policies_tIdNS1_4auth15policies_traitsEEaSERKS5_
0000000000173368 W _ZN2us3gov10blockchain10policies_tIdNS1_4auth15policies_traitsEEC1Ev
0000000000173368 W _ZN2us3gov10blockchain10policies_tIdNS1_4auth15policies_traitsEEC2Ev
00000000001733b4 W _ZN2us3gov10blockchain10policies_tIdNS1_4auth15policies_traitsEED0Ev
0000000000173396 W _ZN2us3gov10blockchain10policies_tIdNS1_4auth15policies_traitsEED1Ev
0000000000173396 W _ZN2us3gov10blockchain10policies_tIdNS1_4auth15policies_traitsEED2Ev
0000000000198428 W _ZN2us3gov10blockchain10policies_tINS0_6crypto9ripemd16010value_typeENS0_3rep15policies_traitsEE5clearEv
00000000001984aa W _ZN2us3gov10blockchain10policies_tINS0_6crypto9ripemd16010value_typeENS0_3rep15policies_traitsEEaSERKS8_
00000000001983a0 W _ZN2us3gov10blockchain10policies_tINS0_6crypto9ripemd16010value_typeENS0_3rep15policies_traitsEEC1Ev
00000000001983a0 W _ZN2us3gov10blockchain10policies_tINS0_6crypto9ripemd16010value_typeENS0_3rep15policies_traitsEEC2Ev
00000000001983fc W _ZN2us3gov10blockchain10policies_tINS0_6crypto9ripemd16010value_typeENS0_3rep15policies_traitsEED0Ev
00000000001983de W _ZN2us3gov10blockchain10policies_tINS0_6crypto9ripemd16010value_typeENS0_3rep15policies_traitsEED1Ev
00000000001983de W _ZN2us3gov10blockchain10policies_tINS0_6crypto9ripemd16010value_typeENS0_3rep15policies_traitsEED2Ev
0000000000199b4a W _ZN2us3gov10blockchain10policies_tINS0_6crypto9ripemd16010value_typeENS0_4loan15policies_traitsEE5clearEv
0000000000199888 W _ZN2us3gov10blockchain10policies_tINS0_6crypto9ripemd16010value_typeENS0_4loan15policies_traitsEEaSERKS8_
0000000000199800 W _ZN2us3gov10blockchain10policies_tINS0_6crypto9ripemd16010value_typeENS0_4loan15policies_traitsEEC1Ev
0000000000199800 W _ZN2us3gov10blockchain10policies_tINS0_6crypto9ripemd16010value_typeENS0_4loan15policies_traitsEEC2Ev
000000000019985c W _ZN2us3gov10blockchain10policies_tINS0_6crypto9ripemd16010value_typeENS0_4loan15policies_traitsEED0Ev
000000000019983e W _ZN2us3gov10blockchain10policies_tINS0_6crypto9ripemd16010value_typeENS0_4loan15policies_traitsEED1Ev
000000000019983e W _ZN2us3gov10blockchain10policies_tINS0_6crypto9ripemd16010value_typeENS0_4loan15policies_traitsEED2Ev
00000000001634ba T _ZN2us3gov10blockchain11signed_data4signERKNS0_6crypto2ec4keysE
000000000016ea54 W _ZN2us3gov10blockchain11signed_dataC1Ev
000000000016ea54 W _ZN2us3gov10blockchain11signed_dataC2Ev
000000000016e5ca W _ZN2us3gov10blockchain11signed_dataD0Ev
000000000016e598 W _ZN2us3gov10blockchain11signed_dataD1Ev
000000000016e598 W _ZN2us3gov10blockchain11signed_dataD2Ev
0000000000162786 T _ZN2us3gov10blockchain12local_deltas11from_streamERSi
000000000016ea96 W _ZN2us3gov10blockchain12local_deltasC1Ev
000000000016ea96 W _ZN2us3gov10blockchain12local_deltasC2Ev
000000000016e650 W _ZN2us3gov10blockchain12local_deltasD0Ev
000000000016e612 W _ZN2us3gov10blockchain12local_deltasD1Ev
000000000016e612 W _ZN2us3gov10blockchain12local_deltasD2Ev
0000000000172cb4 W _ZN2us3gov10blockchain12runnable_appC1Ev
0000000000172cb4 W _ZN2us3gov10blockchain12runnable_appC2Ev
0000000000172d10 W _ZN2us3gov10blockchain12runnable_appD0Ev
0000000000172ce2 W _ZN2us3gov10blockchain12runnable_appD1Ev
0000000000172ce2 W _ZN2us3gov10blockchain12runnable_appD2Ev
0000000000190c6a W _ZN2us3gov10blockchain13policies_baseIdNS0_4cash3app15policies_traitsEE11from_streamERSi
00000000001900c6 W _ZN2us3gov10blockchain13policies_baseIdNS0_4cash3app15policies_traitsEEaSERKS6_
0000000000196902 W _ZN2us3gov10blockchain13policies_baseIdNS0_4cash3app15policies_traitsEEC1ERKS6_
00000000001924d0 W _ZN2us3gov10blockchain13policies_baseIdNS0_4cash3app15policies_traitsEEC1Ev
0000000000196902 W _ZN2us3gov10blockchain13policies_baseIdNS0_4cash3app15policies_traitsEEC2ERKS6_
00000000001924d0 W _ZN2us3gov10blockchain13policies_baseIdNS0_4cash3app15policies_traitsEEC2Ev
0000000000192564 W _ZN2us3gov10blockchain13policies_baseIdNS0_4cash3app15policies_traitsEED0Ev
0000000000192546 W _ZN2us3gov10blockchain13policies_baseIdNS0_4cash3app15policies_traitsEED1Ev
0000000000192546 W _ZN2us3gov10blockchain13policies_baseIdNS0_4cash3app15policies_traitsEED2Ev
0000000000173d32 W _ZN2us3gov10blockchain13policies_baseIdNS1_4auth15policies_traitsEE11from_streamERSi
000000000017419c W _ZN2us3gov10blockchain13policies_baseIdNS1_4auth15policies_traitsEEC1Ev
000000000017419c W _ZN2us3gov10blockchain13policies_baseIdNS1_4auth15policies_traitsEEC2Ev
00000000001740ba W _ZN2us3gov10blockchain13policies_baseIdNS1_4auth15policies_traitsEED0Ev
000000000017409c W _ZN2us3gov10blockchain13policies_baseIdNS1_4auth15policies_traitsEED1Ev
000000000017409c W _ZN2us3gov10blockchain13policies_baseIdNS1_4auth15policies_traitsEED2Ev
0000000000185912 W _ZN2us3gov10blockchain13policies_baseINS0_6crypto9ripemd16010value_typeENS0_3rep15policies_traitsEE11from_streamERSi
0000000000183fe8 W _ZN2us3gov10blockchain13policies_baseINS0_6crypto9ripemd16010value_typeENS0_3rep15policies_traitsEEC1Ev
0000000000183fe8 W _ZN2us3gov10blockchain13policies_baseINS0_6crypto9ripemd16010value_typeENS0_3rep15policies_traitsEEC2Ev
00000000001840aa W _ZN2us3gov10blockchain13policies_baseINS0_6crypto9ripemd16010value_typeENS0_3rep15policies_traitsEED0Ev
000000000018408c W _ZN2us3gov10blockchain13policies_baseINS0_6crypto9ripemd16010value_typeENS0_3rep15policies_traitsEED1Ev
000000000018408c W _ZN2us3gov10blockchain13policies_baseINS0_6crypto9ripemd16010value_typeENS0_3rep15policies_traitsEED2Ev
00000000001999d8 W _ZN2us3gov10blockchain13policies_baseINS0_6crypto9ripemd16010value_typeENS0_4loan15policies_traitsEE11from_streamERSi
0000000000199a5c W _ZN2us3gov10blockchain13policies_baseINS0_6crypto9ripemd16010value_typeENS0_4loan15policies_traitsEEC1Ev
0000000000199a5c W _ZN2us3gov10blockchain13policies_baseINS0_6crypto9ripemd16010value_typeENS0_4loan15policies_traitsEEC2Ev
0000000000199b1e W _ZN2us3gov10blockchain13policies_baseINS0_6crypto9ripemd16010value_typeENS0_4loan15policies_traitsEED0Ev
0000000000199b00 W _ZN2us3gov10blockchain13policies_baseINS0_6crypto9ripemd16010value_typeENS0_4loan15policies_traitsEED1Ev
0000000000199b00 W _ZN2us3gov10blockchain13policies_baseINS0_6crypto9ripemd16010value_typeENS0_4loan15policies_traitsEED2Ev
0000000000191236 W _ZN2us3gov10blockchain14policies_deltaIdNS0_4cash3app15policies_traitsENS1_14average_mergerIdEEE5mergeEPNS1_3app11local_deltaE
00000000001971f0 W _ZN2us3gov10blockchain14policies_deltaIdNS0_4cash3app15policies_traitsENS1_14average_mergerIdEEE9end_mergeEv
0000000000191458 W _ZN2us3gov10blockchain14policies_deltaIdNS0_4cash3app15policies_traitsENS1_14average_mergerIdEEEC1Ev
0000000000191458 W _ZN2us3gov10blockchain14policies_deltaIdNS0_4cash3app15policies_traitsENS1_14average_mergerIdEEEC2Ev
00000000001914fe W _ZN2us3gov10blockchain14policies_deltaIdNS0_4cash3app15policies_traitsENS1_14average_mergerIdEEED0Ev
00000000001914a8 W _ZN2us3gov10blockchain14policies_deltaIdNS0_4cash3app15policies_traitsENS1_14average_mergerIdEEED1Ev
00000000001914a8 W _ZN2us3gov10blockchain14policies_deltaIdNS0_4cash3app15policies_traitsENS1_14average_mergerIdEEED2Ev
000000000017322e W _ZN2us3gov10blockchain14policies_deltaIdNS1_4auth15policies_traitsENS1_14average_mergerIdEEE5mergeEPNS1_3app11local_deltaE
00000000001795c2 W _ZN2us3gov10blockchain14policies_deltaIdNS1_4auth15policies_traitsENS1_14average_mergerIdEEE9end_mergeEv
0000000000172ff2 W _ZN2us3gov10blockchain14policies_deltaIdNS1_4auth15policies_traitsENS1_14average_mergerIdEEEC1Ev
0000000000172ff2 W _ZN2us3gov10blockchain14policies_deltaIdNS1_4auth15policies_traitsENS1_14average_mergerIdEEEC2Ev
0000000000173098 W _ZN2us3gov10blockchain14policies_deltaIdNS1_4auth15policies_traitsENS1_14average_mergerIdEEED0Ev
0000000000173042 W _ZN2us3gov10blockchain14policies_deltaIdNS1_4auth15policies_traitsENS1_14average_mergerIdEEED1Ev
0000000000173042 W _ZN2us3gov10blockchain14policies_deltaIdNS1_4auth15policies_traitsENS1_14average_mergerIdEEED2Ev
0000000000183e6c W _ZN2us3gov10blockchain14policies_deltaINS0_6crypto9ripemd16010value_typeENS0_3rep15policies_traitsENS1_15majority_mergerIS5_EEE5mergeEPNS1_3app11local_deltaE
0000000000185654 W _ZN2us3gov10blockchain14policies_deltaINS0_6crypto9ripemd16010value_typeENS0_3rep15policies_traitsENS1_15majority_mergerIS5_EEE9end_mergeEv
0000000000183e0c W _ZN2us3gov10blockchain14policies_deltaINS0_6crypto9ripemd16010value_typeENS0_3rep15policies_traitsENS1_15majority_mergerIS5_EEEC1Ev
0000000000183e0c W _ZN2us3gov10blockchain14policies_deltaINS0_6crypto9ripemd16010value_typeENS0_3rep15policies_traitsENS1_15majority_mergerIS5_EEEC2Ev
000000000019836e W _ZN2us3gov10blockchain14policies_deltaINS0_6crypto9ripemd16010value_typeENS0_3rep15policies_traitsENS1_15majority_mergerIS5_EEED0Ev
0000000000198308 W _ZN2us3gov10blockchain14policies_deltaINS0_6crypto9ripemd16010value_typeENS0_3rep15policies_traitsENS1_15majority_mergerIS5_EEED1Ev
0000000000198308 W _ZN2us3gov10blockchain14policies_deltaINS0_6crypto9ripemd16010value_typeENS0_3rep15policies_traitsENS1_15majority_mergerIS5_EEED2Ev
0000000000199732 W _ZN2us3gov10blockchain14policies_deltaINS0_6crypto9ripemd16010value_typeENS0_4loan15policies_traitsENS1_15majority_mergerIS5_EEE5mergeEPNS1_3app11local_deltaE
0000000000199c26 W _ZN2us3gov10blockchain14policies_deltaINS0_6crypto9ripemd16010value_typeENS0_4loan15policies_traitsENS1_15majority_mergerIS5_EEE9end_mergeEv
000000000019963a W _ZN2us3gov10blockchain14policies_deltaINS0_6crypto9ripemd16010value_typeENS0_4loan15policies_traitsENS1_15majority_mergerIS5_EEEC1Ev
000000000019963a W _ZN2us3gov10blockchain14policies_deltaINS0_6crypto9ripemd16010value_typeENS0_4loan15policies_traitsENS1_15majority_mergerIS5_EEEC2Ev
0000000000199700 W _ZN2us3gov10blockchain14policies_deltaINS0_6crypto9ripemd16010value_typeENS0_4loan15policies_traitsENS1_15majority_mergerIS5_EEED0Ev
000000000019969a W _ZN2us3gov10blockchain14policies_deltaINS0_6crypto9ripemd16010value_typeENS0_4loan15policies_traitsENS1_15majority_mergerIS5_EEED1Ev
000000000019969a W _ZN2us3gov10blockchain14policies_deltaINS0_6crypto9ripemd16010value_typeENS0_4loan15policies_traitsENS1_15majority_mergerIS5_EEED2Ev
00000000001911aa W _ZN2us3gov10blockchain15majority_mergerINS0_4cash3app11local_deltaEE5mergeERS5_RKS5_
0000000000191304 W _ZN2us3gov10blockchain15majority_mergerINS0_4cash3app11local_deltaEE9end_mergeERS5_RKm
0000000000190324 W _ZN2us3gov10blockchain15majority_mergerINS0_4cash3app11local_deltaEEC1Ev
0000000000190324 W _ZN2us3gov10blockchain15majority_mergerINS0_4cash3app11local_deltaEEC2Ev
0000000000190340 W _ZN2us3gov10blockchain15majority_mergerINS0_4cash3app11local_deltaEED1Ev
0000000000190340 W _ZN2us3gov10blockchain15majority_mergerINS0_4cash3app11local_deltaEED2Ev
00000000001840f2 W _ZN2us3gov10blockchain15majority_mergerINS0_6crypto9ripemd16010value_typeEE5mergeERS5_RKS5_
000000000018578a W _ZN2us3gov10blockchain15majority_mergerINS0_6crypto9ripemd16010value_typeEE9end_mergeERS5_RKm
0000000000183df0 W _ZN2us3gov10blockchain15majority_mergerINS0_6crypto9ripemd16010value_typeEEC1Ev
0000000000183df0 W _ZN2us3gov10blockchain15majority_mergerINS0_6crypto9ripemd16010value_typeEEC2Ev
00000000001982ec W _ZN2us3gov10blockchain15majority_mergerINS0_6crypto9ripemd16010value_typeEED1Ev
00000000001982ec W _ZN2us3gov10blockchain15majority_mergerINS0_6crypto9ripemd16010value_typeEED2Ev
0000000000190bb6 W _ZN2us3gov10blockchain20policies_local_deltaIdNS0_4cash3app15policies_traitsEE11from_streamERSi
00000000001900fc W _ZN2us3gov10blockchain20policies_local_deltaIdNS0_4cash3app15policies_traitsEEaSERKS6_
0000000000196958 W _ZN2us3gov10blockchain20policies_local_deltaIdNS0_4cash3app15policies_traitsEEC1ERKS6_
0000000000190f10 W _ZN2us3gov10blockchain20policies_local_deltaIdNS0_4cash3app15policies_traitsEEC1Ev
0000000000196958 W _ZN2us3gov10blockchain20policies_local_deltaIdNS0_4cash3app15policies_traitsEEC2ERKS6_
0000000000190f10 W _ZN2us3gov10blockchain20policies_local_deltaIdNS0_4cash3app15policies_traitsEEC2Ev
0000000000190fb6 W _ZN2us3gov10blockchain20policies_local_deltaIdNS0_4cash3app15policies_traitsEED0Ev
0000000000190f60 W _ZN2us3gov10blockchain20policies_local_deltaIdNS0_4cash3app15policies_traitsEED1Ev
0000000000190f60 W _ZN2us3gov10blockchain20policies_local_deltaIdNS0_4cash3app15policies_traitsEED2Ev
0000000000173b90 W _ZN2us3gov10blockchain20policies_local_deltaIdNS1_4auth15policies_traitsEE11from_streamERSi
0000000000173424 W _ZN2us3gov10blockchain20policies_local_deltaIdNS1_4auth15policies_traitsEEC1Ev
0000000000173424 W _ZN2us3gov10blockchain20policies_local_deltaIdNS1_4auth15policies_traitsEEC2Ev
0000000000172f7c W _ZN2us3gov10blockchain20policies_local_deltaIdNS1_4auth15policies_traitsEED0Ev
0000000000172f26 W _ZN2us3gov10blockchain20policies_local_deltaIdNS1_4auth15policies_traitsEED1Ev
0000000000172f26 W _ZN2us3gov10blockchain20policies_local_deltaIdNS1_4auth15policies_traitsEED2Ev
000000000018575e W _ZN2us3gov10blockchain20policies_local_deltaINS0_6crypto9ripemd16010value_typeENS0_3rep15policies_traitsEE11from_streamERSi
0000000000183cd6 W _ZN2us3gov10blockchain20policies_local_deltaINS0_6crypto9ripemd16010value_typeENS0_3rep15policies_traitsEEC1Ev
0000000000183cd6 W _ZN2us3gov10blockchain20policies_local_deltaINS0_6crypto9ripemd16010value_typeENS0_3rep15policies_traitsEEC2Ev
0000000000198266 W _ZN2us3gov10blockchain20policies_local_deltaINS0_6crypto9ripemd16010value_typeENS0_3rep15policies_traitsEED0Ev
0000000000198210 W _ZN2us3gov10blockchain20policies_local_deltaINS0_6crypto9ripemd16010value_typeENS0_3rep15policies_traitsEED1Ev
0000000000198210 W _ZN2us3gov10blockchain20policies_local_deltaINS0_6crypto9ripemd16010value_typeENS0_3rep15policies_traitsEED2Ev
000000000019992e W _ZN2us3gov10blockchain20policies_local_deltaINS0_6crypto9ripemd16010value_typeENS0_4loan15policies_traitsEE11from_streamERSi
0000000000199562 W _ZN2us3gov10blockchain20policies_local_deltaINS0_6crypto9ripemd16010value_typeENS0_4loan15policies_traitsEEC1Ev
0000000000199562 W _ZN2us3gov10blockchain20policies_local_deltaINS0_6crypto9ripemd16010value_typeENS0_4loan15policies_traitsEEC2Ev
0000000000199608 W _ZN2us3gov10blockchain20policies_local_deltaINS0_6crypto9ripemd16010value_typeENS0_4loan15policies_traitsEED0Ev
00000000001995b2 W _ZN2us3gov10blockchain20policies_local_deltaINS0_6crypto9ripemd16010value_typeENS0_4loan15policies_traitsEED1Ev
00000000001995b2 W _ZN2us3gov10blockchain20policies_local_deltaINS0_6crypto9ripemd16010value_typeENS0_4loan15policies_traitsEED2Ev
000000000016de4c T _ZN2us3gov10blockchain3app11local_delta6createEi
000000000016e15c T _ZN2us3gov10blockchain3app11local_delta6createEiRSi
000000000016e1ac T _ZN2us3gov10blockchain3app11local_delta6createERSi
00000000001900ea W _ZN2us3gov10blockchain3app11local_deltaaSERKS3_
0000000000196936 W _ZN2us3gov10blockchain3app11local_deltaC1ERKS3_
0000000000173406 W _ZN2us3gov10blockchain3app11local_deltaC1Ev
0000000000196936 W _ZN2us3gov10blockchain3app11local_deltaC2ERKS3_
0000000000173406 W _ZN2us3gov10blockchain3app11local_deltaC2Ev
0000000000172630 W _ZN2us3gov10blockchain3app11local_deltaD0Ev
0000000000172612 W _ZN2us3gov10blockchain3app11local_deltaD1Ev
0000000000172612 W _ZN2us3gov10blockchain3app11local_deltaD2Ev
0000000000172750 W _ZN2us3gov10blockchain3app13process_queryEPNS1_6peer_tEPNS0_6socket8datagramE
000000000016e28a T _ZN2us3gov10blockchain3app13shell_commandERKNSt7__cxx1112basic_stringIcSt11char_traitsIcESaIcEEE
0000000000172738 W _ZN2us3gov10blockchain3app16process_evidenceEPNS1_6peer_tEPNS0_6socket8datagramE
00000000003ee370 B _ZN2us3gov10blockchain3app19last_block_importedE
000000000016de02 T _ZN2us3gov10blockchain3app5delta5mergeEPNS2_11local_deltaE
000000000016dfa0 T _ZN2us3gov10blockchain3app5delta6createEi
000000000016e0be T _ZN2us3gov10blockchain3app5delta6createEiRSi
000000000016e258 T _ZN2us3gov10blockchain3app5delta6createERSi
000000000017265c W _ZN2us3gov10blockchain3app5deltaC1Ev
000000000017265c W _ZN2us3gov10blockchain3app5deltaC2Ev
00000000001726a4 W _ZN2us3gov10blockchain3app5deltaD0Ev
0000000000172686 W _ZN2us3gov10blockchain3app5deltaD1Ev
0000000000172686 W _ZN2us3gov10blockchain3app5deltaD2Ev
000000000016dc98 T _ZN2us3gov10blockchain3app8get_seedEv
00000000001726d0 W _ZN2us3gov10blockchain3appC1Ev
00000000001726d0 W _ZN2us3gov10blockchain3appC2Ev
000000000017270c W _ZN2us3gov10blockchain3appD0Ev
00000000001726ee W _ZN2us3gov10blockchain3appD1Ev
00000000001726ee W _ZN2us3gov10blockchain3appD2Ev
00000000003df790 u _ZN2us3gov10blockchain4auth15policies_traits8paramstrE
0000000000172c62 W _ZN2us3gov10blockchain4auth3app10policies_t9temp_loadEv
0000000000172dbe W _ZN2us3gov10blockchain4auth3app10policies_taSERKS4_
0000000000172c28 W _ZN2us3gov10blockchain4auth3app10policies_tC1Ev
0000000000172c28 W _ZN2us3gov10blockchain4auth3app10policies_tC2Ev
0000000000179596 W _ZN2us3gov10blockchain4auth3app10policies_tD0Ev
0000000000179568 W _ZN2us3gov10blockchain4auth3app10policies_tD1Ev
0000000000179568 W _ZN2us3gov10blockchain4auth3app10policies_tD2Ev
0000000000165676 T _ZN2us3gov10blockchain4auth3app11local_delta11from_streamERSi
0000000000172d6e W _ZN2us3gov10blockchain4auth3app11local_deltaC1Ev
0000000000172d6e W _ZN2us3gov10blockchain4auth3app11local_deltaC2Ev
00000000001727be W _ZN2us3gov10blockchain4auth3app11local_deltaD0Ev
0000000000172768 W _ZN2us3gov10blockchain4auth3app11local_deltaD1Ev
0000000000172768 W _ZN2us3gov10blockchain4auth3app11local_deltaD2Ev
00000000001650ba T _ZN2us3gov10blockchain4auth3app12add_policiesEv
00000000001663a2 T _ZN2us3gov10blockchain4auth3app13shell_commandERKNSt7__cxx1112basic_stringIcSt11char_traitsIcESaIcEEE
0000000000165d7c T _ZN2us3gov10blockchain4auth3app18create_local_deltaEv
0000000000164d3e T _ZN2us3gov10blockchain4auth3app20basic_auth_completedEPNS1_6peer_tE
0000000000165190 T _ZN2us3gov10blockchain4auth3app23add_growth_transactionsEj
0000000000172a9d W _ZN2us3gov10blockchain4auth3app2idEv
0000000000164c4a T _ZN2us3gov10blockchain4auth3app3runEv
0000000000166bac T _ZN2us3gov10blockchain4auth3app4db_t5clearEv
0000000000172bda W _ZN2us3gov10blockchain4auth3app4db_tC1Ev
0000000000172bda W _ZN2us3gov10blockchain4auth3app4db_tC2Ev
0000000000172d3c W _ZN2us3gov10blockchain4auth3app4db_tD1Ev
0000000000172d3c W _ZN2us3gov10blockchain4auth3app4db_tD2Ev
0000000000166c20 T _ZN2us3gov10blockchain4auth3app5clearEv
00000000001658da T _ZN2us3gov10blockchain4auth3app5delta11from_streamERSi
0000000000172970 W _ZN2us3gov10blockchain4auth3app5delta5mergeEPNS1_3app11local_deltaE
0000000000172898 W _ZN2us3gov10blockchain4auth3app5deltaC1Ev
0000000000172898 W _ZN2us3gov10blockchain4auth3app5deltaC2Ev
000000000017293e W _ZN2us3gov10blockchain4auth3app5deltaD0Ev
00000000001728e8 W _ZN2us3gov10blockchain4auth3app5deltaD1Ev
00000000001728e8 W _ZN2us3gov10blockchain4auth3app5deltaD2Ev
0000000000165a42 T _ZN2us3gov10blockchain4auth3app6importERKNS1_3app5deltaERKNS1_5pow_tE
0000000000164880 T _ZN2us3gov10blockchain4auth3appC1ERNS0_6crypto2ec4keys5pub_tE
0000000000164880 T _ZN2us3gov10blockchain4auth3appC2ERNS0_6crypto2ec4keys5pub_tE
0000000000164b0e T _ZN2us3gov10blockchain4auth3appD0Ev
0000000000164a7e T _ZN2us3gov10blockchain4auth3appD1Ev
0000000000164a7e T _ZN2us3gov10blockchain4auth3appD2Ev
000000000016300c T _ZN2us3gov10blockchain4diff10end_addingEv
0000000000162b04 T _ZN2us3gov10blockchain4diff11from_streamERSi
0000000000162db8 T _ZN2us3gov10blockchain4diff3addEiPNS1_3app11local_deltaE
0000000000162e78 T _ZN2us3gov10blockchain4diff3addEPNS1_12local_deltasE
0000000000163208 T _ZN2us3gov10blockchain4diff4hashERKNSt7__cxx1112basic_stringIcSt11char_traitsIcESaIcEEE
0000000000162cb8 T _ZN2us3gov10blockchain4diff5allowERKNS1_12local_deltasE
000000000016e804 W _ZN2us3gov10blockchain4diffC1Ev
000000000016e804 W _ZN2us3gov10blockchain4diffC2Ev
000000000016e99c W _ZN2us3gov10blockchain4diffD0Ev
000000000016e8c8 W _ZN2us3gov10blockchain4diffD1Ev
000000000016e8c8 W _ZN2us3gov10blockchain4diffD2Ev
000000000016e7cc W _ZN2us3gov10blockchain5pow_tC1Ev
000000000016e7cc W _ZN2us3gov10blockchain5pow_tC2Ev
000000000016e7e8 W _ZN2us3gov10blockchain5pow_tD1Ev
000000000016e7e8 W _ZN2us3gov10blockchain5pow_tD2Ev
0000000000163ca4 T _ZN2us3gov10blockchain5shell7commandERKNSt7__cxx1112basic_stringIcSt11char_traitsIcESaIcEEE
0000000000183080 W _ZN2us3gov10blockchain5shellC1EOS2_
00000000001798d4 W _ZN2us3gov10blockchain5shellC1ERNS1_6daemonE
0000000000183080 W _ZN2us3gov10blockchain5shellC2EOS2_
00000000001798d4 W _ZN2us3gov10blockchain5shellC2ERNS1_6daemonE
000000000017a142 W _ZN2us3gov10blockchain5shellD1Ev
000000000017a142 W _ZN2us3gov10blockchain5shellD2Ev
0000000000179ab8 W _ZN2us3gov10blockchain6daemon10cycle_dataC1Ev
0000000000179ab8 W _ZN2us3gov10blockchain6daemon10cycle_dataC2Ev
0000000000179ae2 W _ZN2us3gov10blockchain6daemon10cycle_dataD1Ev
0000000000179ae2 W _ZN2us3gov10blockchain6daemon10cycle_dataD2Ev
000000000016abf4 T _ZN2us3gov10blockchain6daemon10get_peopleEv
000000000016c544 T _ZN2us3gov10blockchain6daemon10networking12process_workEPNS0_6socket6peer_tEPNS4_8datagramE
0000000000179a52 W _ZN2us3gov10blockchain6daemon10networking13create_clientEi
000000000016c510 T _ZN2us3gov10blockchain6daemon10networking16process_evidenceEPNS0_4peer6peer_tEPNS0_6socket8datagramE
000000000016c79c T _ZN2us3gov10blockchain6daemon10networking18process_work_sysopEPNS0_4peer6peer_tEPNS0_6socket8datagramE
000000000017995a W _ZN2us3gov10blockchain6daemon10networkingC1ERKNS0_6crypto2ec4keysEPS2_
00000000001799b8 W _ZN2us3gov10blockchain6daemon10networkingC1ERKNS0_6crypto2ec4keysEttPS2_RKSt6vectorINSt7__cxx1112basic_stringIcSt11char_traitsIcESaIcEEESaISG_EE
000000000017995a W _ZN2us3gov10blockchain6daemon10networkingC2ERKNS0_6crypto2ec4keysEPS2_
00000000001799b8 W _ZN2us3gov10blockchain6daemon10networkingC2ERKNS0_6crypto2ec4keysEttPS2_RKSt6vectorINSt7__cxx1112basic_stringIcSt11char_traitsIcESaIcEEESaISG_EE
000000000018379a W _ZN2us3gov10blockchain6daemon10networkingD0Ev
000000000018375a W _ZN2us3gov10blockchain6daemon10networkingD1Ev
000000000018375a W _ZN2us3gov10blockchain6daemon10networkingD2Ev
0000000000166dbc T _ZN2us3gov10blockchain6daemon11constructorEv
000000000016a7da T _ZN2us3gov10blockchain6daemon11file_existsERKNSt7__cxx1112basic_stringIcSt11char_traitsIcESaIcEEE
000000000016a30a T _ZN2us3gov10blockchain6daemon11query_blockERKNS0_6crypto9ripemd16010value_typeE
000000000016c9a8 T _ZN2us3gov10blockchain6daemon12process_workEPNS1_6peer_tEPNS0_6socket8datagramE
000000000016c14c T _ZN2us3gov10blockchain6daemon13process_blockEPNS1_6peer_tEPNS0_6socket8datagramE
000000000016bff8 T _ZN2us3gov10blockchain6daemon14on_begin_cycleEv
000000000016a9dc T _ZN2us3gov10blockchain6daemon15get_random_edgeEv
000000000016c7da T _ZN2us3gov10blockchain6daemon16process_evidenceEPNS1_6peer_tEPNS0_6socket8datagramE
000000000016b598 T _ZN2us3gov10blockchain6daemon16process_vote_tipEPNS1_6peer_tEPNS0_6socket8datagramE
000000000016c8aa T _ZN2us3gov10blockchain6daemon17process_app_queryEPNS1_6peer_tEPNS0_6socket8datagramE
000000000016ad14 T _ZN2us3gov10blockchain6daemon18update_peers_stateEv
000000000016b092 T _ZN2us3gov10blockchain6daemon19create_local_deltasEv
000000000016c032 T _ZN2us3gov10blockchain6daemon19process_query_blockEPNS1_6peer_tEPNS0_6socket8datagramE
000000000016738e T _ZN2us3gov10blockchain6daemon20start_new_blockchainERKNSt7__cxx1112basic_stringIcSt11char_traitsIcESaIcEEE
000000000016cfd2 T _ZN2us3gov10blockchain6daemon23set_last_block_importedERKNS0_6crypto9ripemd16010value_typeE
000000000016cda8 T _ZN2us3gov10blockchain6daemon24set_last_block_imported_ERKNS0_6crypto9ripemd16010value_typeE
000000000016b966 T _ZN2us3gov10blockchain6daemon29process_incoming_local_deltasEPNS1_6peer_tEPNS0_6socket8datagramE
00000000001672a2 T _ZN2us3gov10blockchain6daemon3addEPNS1_3appE
0000000000169158 T _ZN2us3gov10blockchain6daemon3runEv
0000000000179e80 W _ZN2us3gov10blockchain6daemon4appsC1Ev
0000000000179e80 W _ZN2us3gov10blockchain6daemon4appsC2Ev
0000000000179bf8 W _ZN2us3gov10blockchain6daemon4appsD0Ev
0000000000179b36 W _ZN2us3gov10blockchain6daemon4appsD1Ev
0000000000179b36 W _ZN2us3gov10blockchain6daemon4appsD2Ev
000000000016afb4 T _ZN2us3gov10blockchain6daemon4sendERKNS0_6socket8datagramEPNS1_6peer_tE
000000000016ae1c T _ZN2us3gov10blockchain6daemon4sendERKNS1_12local_deltasEPNS1_6peer_tE
000000000016ceea T _ZN2us3gov10blockchain6daemon5clearEv
000000000016763a T _ZN2us3gov10blockchain6daemon5syncd3runEv
0000000000167eee T _ZN2us3gov10blockchain6daemon5syncd4waitERKNSt6chrono8durationIlSt5ratioILl1ELl1000000000EEEE
0000000000167e60 T _ZN2us3gov10blockchain6daemon5syncd4waitEv
0000000000167d48 T _ZN2us3gov10blockchain6daemon5syncd6updateERKNS0_6crypto9ripemd16010value_typeE
0000000000167c8c T _ZN2us3gov10blockchain6daemon5syncd6updateERKNS0_6crypto9ripemd16010value_typeES8_
0000000000167de0 T _ZN2us3gov10blockchain6daemon5syncd6updateEv
0000000000167f6c T _ZN2us3gov10blockchain6daemon5syncd9on_finishEv
000000000016756c T _ZN2us3gov10blockchain6daemon5syncdC1EPS2_
000000000016756c T _ZN2us3gov10blockchain6daemon5syncdC2EPS2_
0000000000179eb2 W _ZN2us3gov10blockchain6daemon5syncdD1Ev
0000000000179eb2 W _ZN2us3gov10blockchain6daemon5syncdD2Ev
000000000016d03c T _ZN2us3gov10blockchain6daemon6importERKNS1_4diffE
000000000016880e T _ZN2us3gov10blockchain6daemon6stage1ERNS2_10cycle_dataE
0000000000168950 T _ZN2us3gov10blockchain6daemon6stage2ERNS2_10cycle_dataE
0000000000168e6a T _ZN2us3gov10blockchain6daemon6stage3ERNS2_10cycle_dataE
000000000016d360 T _ZN2us3gov10blockchain6daemon7votes_t3addERKNS0_6crypto9ripemd16010value_typeES8_
000000000016d322 T _ZN2us3gov10blockchain6daemon7votes_t5clearEv
000000000016d414 T _ZN2us3gov10blockchain6daemon7votes_t6selectEv
000000000017a01e W _ZN2us3gov10blockchain6daemon7votes_tC1Ev
000000000017a01e W _ZN2us3gov10blockchain6daemon7votes_tC2Ev
000000000017a04a W _ZN2us3gov10blockchain6daemon7votes_tD1Ev
000000000017a04a W _ZN2us3gov10blockchain6daemon7votes_tD2Ev
0000000000168196 T _ZN2us3gov10blockchain6daemon8patch_dbERKSt6vectorINS0_6crypto9ripemd16010value_typeESaIS6_EE
000000000016d5b4 T _ZN2us3gov10blockchain6daemon8sysops_t12process_workEPNS1_6peer_tEPNS0_6socket8datagramE
0000000000179d42 W _ZN2us3gov10blockchain6daemon8sysops_tC1ERS2_
0000000000179d42 W _ZN2us3gov10blockchain6daemon8sysops_tC2ERS2_
0000000000179ee4 W _ZN2us3gov10blockchain6daemon8sysops_tD1Ev
0000000000179ee4 W _ZN2us3gov10blockchain6daemon8sysops_tD2Ev
000000000016b2c8 T _ZN2us3gov10blockchain6daemon8vote_tipERKNS1_4diffE
000000000016aaf2 T _ZN2us3gov10blockchain6daemon9get_nodesEv
0000000000168ffe T _ZN2us3gov10blockchain6daemon9load_headEv
0000000000166e38 T _ZN2us3gov10blockchain6daemonC1ERKNS0_6crypto2ec4keysE
0000000000166ffc T _ZN2us3gov10blockchain6daemonC1ERKNS0_6crypto2ec4keysERKNSt7__cxx1112basic_stringIcSt11char_traitsIcESaIcEEEthRKSt6vectorISD_SaISD_EE
0000000000166e38 T _ZN2us3gov10blockchain6daemonC2ERKNS0_6crypto2ec4keysE
0000000000166ffc T _ZN2us3gov10blockchain6daemonC2ERKNS0_6crypto2ec4keysERKNSt7__cxx1112basic_stringIcSt11char_traitsIcESaIcEEEthRKSt6vectorISD_SaISD_EE
00000000001671f4 T _ZN2us3gov10blockchain6daemonD1Ev
00000000001671f4 T _ZN2us3gov10blockchain6daemonD2Ev
000000000016331c T _ZN2us3gov10blockchain6peer_t22verification_completedEv
00000000003df760 u _ZN2us3gov10blockchain6peer_t8stagestrE
0000000000179870 W _ZN2us3gov10blockchain6peer_tC1Ei
0000000000179870 W _ZN2us3gov10blockchain6peer_tC2Ei
0000000000171ee6 W _ZN2us3gov10blockchain6peer_tD0Ev
0000000000171eb8 W _ZN2us3gov10blockchain6peer_tD1Ev
0000000000171eb8 W _ZN2us3gov10blockchain6peer_tD2Ev
000000000016bbec T _ZN2us3gov10blockchain7cycle_t14wait_for_stageENS2_5stageE
000000000016bf5c T _ZN2us3gov10blockchain7cycle_t9get_stageEv
0000000000179918 W _ZN2us3gov10blockchain7cycle_tC1Ev
0000000000179918 W _ZN2us3gov10blockchain7cycle_tC2Ev
0000000000199e64 T _ZN2us3gov14signal_handler11sleep_untilERKNSt6chrono10time_pointINS2_3_V212system_clockENS2_8durationIlSt5ratioILl1ELl1000000000EEEEEE
00000000001445a0 W _ZN2us3gov14signal_handler3addEPNS1_8callbackE
00000000003ee440 B _ZN2us3gov14signal_handler5_thisE
0000000000199ef2 T _ZN2us3gov14signal_handler6finishEv
00000000001445ca W _ZN2us3gov14signal_handler6removeEPNS1_8callbackE
0000000000144b9c W _ZN2us3gov14signal_handler8callbackC1Ev
0000000000144b9c W _ZN2us3gov14signal_handler8callbackC2Ev
0000000000199dc2 T _ZN2us3gov14signal_handler9sleep_forERKNSt6chrono8durationIlSt5ratioILl1ELl1000000000EEEE
000000000019a2b0 W _ZN2us3gov14signal_handlerC1Ev
000000000019a2b0 W _ZN2us3gov14signal_handlerC2Ev
000000000019a516 W _ZN2us3gov14signal_handlerD1Ev
000000000019a516 W _ZN2us3gov14signal_handlerD2Ev
0000000000161bae T _ZN2us3gov3dfs6daemon12process_workEPNS0_6socket6peer_tEPNS3_8datagramE
0000000000161c48 T _ZN2us3gov3dfs6daemon12receive_fileEPNS0_4auth6peer_tEPNS0_6socket8datagramE
0000000000161fe4 T _ZN2us3gov3dfs6daemon16resolve_filenameERKNSt7__cxx1112basic_stringIcSt11char_traitsIcESaIcEEE
0000000000161eca T _ZN2us3gov3dfs6daemon4loadERKNSt7__cxx1112basic_stringIcSt11char_traitsIcESaIcEEE
0000000000161e50 T _ZN2us3gov3dfs6daemon4saveERKNSt7__cxx1112basic_stringIcSt11char_traitsIcESaIcEEERKSt6vectorIhSaIhEEi
0000000000161d34 T _ZN2us3gov3dfs6daemon9send_fileEPNS0_4auth6peer_tEPNS0_6socket8datagramE
00000000001797f0 W _ZN2us3gov3dfs6daemonC1ERKNS0_6crypto2ec4keysE
0000000000179828 W _ZN2us3gov3dfs6daemonC1ERKNS0_6crypto2ec4keysEtt
00000000001797f0 W _ZN2us3gov3dfs6daemonC2ERKNS0_6crypto2ec4keysE
0000000000179828 W _ZN2us3gov3dfs6daemonC2ERKNS0_6crypto2ec4keysEtt
0000000000162228 W _ZN2us3gov3dfs6daemonD0Ev
00000000001621fa W _ZN2us3gov3dfs6daemonD1Ev
00000000001621fa W _ZN2us3gov3dfs6daemonD2Ev
0000000000144ed4 W _ZN2us3gov3net2osC1Ev
0000000000144ed4 W _ZN2us3gov3net2osC2Ev
000000000014460e W _ZN2us3gov3net5posix4recvEiPvmi
0000000000144648 W _ZN2us3gov3net5posix5writeEiPKvm
0000000000144ef2 W _ZN2us3gov3net5posixC1Ev
0000000000144ef2 W _ZN2us3gov3net5posixC2Ev
000000000019784a T _ZN2us3gov3rep11local_delta11from_streamERSi
0000000000183c02 W _ZN2us3gov3rep11local_deltaC1Ev
0000000000183c02 W _ZN2us3gov3rep11local_deltaC2Ev
0000000000197f9a W _ZN2us3gov3rep11local_deltaD0Ev
0000000000197f54 W _ZN2us3gov3rep11local_deltaD1Ev
0000000000197f54 W _ZN2us3gov3rep11local_deltaD2Ev
00000000003ee280 u _ZN2us3gov3rep15policies_traits8paramstrE
0000000000198198 W _ZN2us3gov3rep3app10policies_t9temp_loadEv
00000000001981e6 W _ZN2us3gov3rep3app10policies_taSERKS3_
000000000019813e W _ZN2us3gov3rep3app10policies_tC1Ev
000000000019813e W _ZN2us3gov3rep3app10policies_tC2Ev
00000000001985d4 W _ZN2us3gov3rep3app10policies_tD0Ev
00000000001985a6 W _ZN2us3gov3rep3app10policies_tD1Ev
00000000001985a6 W _ZN2us3gov3rep3app10policies_tD2Ev
00000000001975c8 T _ZN2us3gov3rep3app12add_policiesEv
0000000000197908 T _ZN2us3gov3rep3app13shell_commandERKNSt7__cxx1112basic_stringIcSt11char_traitsIcESaIcEEE
00000000001976a2 T _ZN2us3gov3rep3app18create_local_deltaEv
0000000000183c9a W _ZN2us3gov3rep3app2idEv
0000000000198132 W _ZN2us3gov3rep3app4db_t5clearEv
0000000000198116 W _ZN2us3gov3rep3app4db_tC1Ev
0000000000198116 W _ZN2us3gov3rep3app4db_tC2Ev
0000000000197376 T _ZN2us3gov3rep3app5clearEv
00000000001977c6 T _ZN2us3gov3rep3app6importERKNS0_10blockchain3app5deltaERKNS3_5pow_tE
00000000001973ec T _ZN2us3gov3rep3appC1Ev
00000000001973ec T _ZN2us3gov3rep3appC2Ev
000000000019759c T _ZN2us3gov3rep3appD0Ev
000000000019751e T _ZN2us3gov3rep3appD1Ev
000000000019751e T _ZN2us3gov3rep3appD2Ev
00000000001978a2 T _ZN2us3gov3rep5delta11from_streamERSi
0000000000198044 W _ZN2us3gov3rep5delta5mergeEPNS0_10blockchain3app11local_deltaE
0000000000183c4e W _ZN2us3gov3rep5deltaC1Ev
0000000000183c4e W _ZN2us3gov3rep5deltaC2Ev
0000000000198012 W _ZN2us3gov3rep5deltaD0Ev
0000000000197fcc W _ZN2us3gov3rep5deltaD1Ev
0000000000197fcc W _ZN2us3gov3rep5deltaD2Ev
0000000000186e10 T _ZN2us3gov4auth6daemon12process_workEPNS0_6socket6peer_tEPNS3_8datagramE
0000000000186daa T _ZN2us3gov4auth6daemon13create_clientEi
0000000000186c64 T _ZN2us3gov4auth6daemonC1ERKNS0_6crypto2ec4keysE
0000000000186cd0 T _ZN2us3gov4auth6daemonC1ERKNS0_6crypto2ec4keysEtt
0000000000186c64 T _ZN2us3gov4auth6daemonC2ERKNS0_6crypto2ec4keysE
0000000000186cd0 T _ZN2us3gov4auth6daemonC2ERKNS0_6crypto2ec4keysEtt
0000000000186d7e T _ZN2us3gov4auth6daemonD0Ev
0000000000186d50 T _ZN2us3gov4auth6daemonD1Ev
0000000000186d50 T _ZN2us3gov4auth6daemonD2Ev
000000000018688a T _ZN2us3gov4auth6peer_t10do_actionsEv
0000000000171e90 W _ZN2us3gov4auth6peer_t10on_connectEv
0000000000186b10 T _ZN2us3gov4auth6peer_t18get_random_messageB5cxx11Ev
0000000000185c84 T _ZN2us3gov4auth6peer_t20process_auth_requestEPNS0_6socket8datagramERKNS0_6crypto2ec4keysE
0000000000187128 W _ZN2us3gov4auth6peer_t22verification_completedEv
00000000001867b6 T _ZN2us3gov4auth6peer_t24process_auth_peer_statusEPNS0_6socket8datagramE
0000000000185f1a T _ZN2us3gov4auth6peer_t27process_auth_peer_challengeEPNS0_6socket8datagramERKNS0_6crypto2ec4keysE
00000000001863ca T _ZN2us3gov4auth6peer_t31process_auth_challenge_responseEPNS0_6socket8datagramE
00000000003ee260 u _ZN2us3gov4auth6peer_t8stagestrE
00000000001869b6 T _ZN2us3gov4auth6peer_t9to_stringB5cxx11ERKSt6vectorIhSaIhEE
0000000000185ab2 T _ZN2us3gov4auth6peer_tC1Ei
0000000000185ab2 T _ZN2us3gov4auth6peer_tC2Ei
0000000000185b9a T _ZN2us3gov4auth6peer_tD0Ev
0000000000185b5a T _ZN2us3gov4auth6peer_tD1Ev
0000000000185b5a T _ZN2us3gov4auth6peer_tD2Ev
00000000001887e0 T _ZN2us3gov4cash2tx10add_outputERKNS0_6crypto9ripemd16010value_typeERKlS7_
00000000003df7a0 u _ZN2us3gov4cash2tx10sigcodestrE
0000000000187516 T _ZN2us3gov4cash2tx13dump_sigcodesERSo
000000000018d535 W _ZN2us3gov4cash2tx13sigcode_inputEh
000000000018d547 W _ZN2us3gov4cash2tx14sigcode_outputEh
00000000001876ca T _ZN2us3gov4cash2tx4readERSi
00000000001885ba T _ZN2us3gov4cash2tx7input_t4readERSi
000000000018d72e W _ZN2us3gov4cash2tx7input_tC1EOS3_
000000000018d3d4 W _ZN2us3gov4cash2tx7input_tC1ERKNS0_6crypto9ripemd16010value_typeERKlSA_
000000000018d43a W _ZN2us3gov4cash2tx7input_tC1ERKNS0_6crypto9ripemd16010value_typeERKlSA_RKNSt7__cxx1112basic_stringIcSt11char_traitsIcESaIcEEE
000000000018d3a8 W _ZN2us3gov4cash2tx7input_tC1Ev
000000000018d72e W _ZN2us3gov4cash2tx7input_tC2EOS3_
000000000018d3d4 W _ZN2us3gov4cash2tx7input_tC2ERKNS0_6crypto9ripemd16010value_typeERKlSA_
000000000018d43a W _ZN2us3gov4cash2tx7input_tC2ERKNS0_6crypto9ripemd16010value_typeERKlSA_RKNSt7__cxx1112basic_stringIcSt11char_traitsIcESaIcEEE
000000000018d3a8 W _ZN2us3gov4cash2tx7input_tC2Ev
000000000018d55a W _ZN2us3gov4cash2tx7input_tD1Ev
000000000018d55a W _ZN2us3gov4cash2tx7input_tD2Ev
0000000000187aaa T _ZN2us3gov4cash2tx8from_b58ERKNSt7__cxx1112basic_stringIcSt11char_traitsIcESaIcEEE
0000000000187da2 T _ZN2us3gov4cash2tx8inputs_t4readERSi
000000000018d682 W _ZN2us3gov4cash2tx8inputs_tC1EOS3_
000000000018d57a W _ZN2us3gov4cash2tx8inputs_tC1Ev
000000000018d682 W _ZN2us3gov4cash2tx8inputs_tC2EOS3_
000000000018d57a W _ZN2us3gov4cash2tx8inputs_tC2Ev
000000000018d596 W _ZN2us3gov4cash2tx8inputs_tD1Ev
000000000018d596 W _ZN2us3gov4cash2tx8inputs_tD2Ev
0000000000188734 T _ZN2us3gov4cash2tx8output_t4readERSi
000000000018d4d6 W _ZN2us3gov4cash2tx8output_tC1ERKNS0_6crypto9ripemd16010value_typeERKlS8_
000000000018d4aa W _ZN2us3gov4cash2tx8output_tC1Ev
000000000018d4d6 W _ZN2us3gov4cash2tx8output_tC2ERKNS0_6crypto9ripemd16010value_typeERKlS8_
000000000018d4aa W _ZN2us3gov4cash2tx8output_tC2Ev
00000000001875c2 T _ZN2us3gov4cash2tx9add_inputERKNS0_6crypto9ripemd16010value_typeERKlS9_
000000000018763a T _ZN2us3gov4cash2tx9add_inputERKNS0_6crypto9ripemd16010value_typeERKlS9_RKNSt7__cxx1112basic_stringIcSt11char_traitsIcESaIcEEE
00000000001880a4 T _ZN2us3gov4cash2tx9outputs_t4readERSi
000000000018d6a8 W _ZN2us3gov4cash2tx9outputs_tC1EOS3_
000000000018d5b2 W _ZN2us3gov4cash2tx9outputs_tC1Ev
000000000018d6a8 W _ZN2us3gov4cash2tx9outputs_tC2EOS3_
000000000018d5b2 W _ZN2us3gov4cash2tx9outputs_tC2Ev
000000000018d5ce W _ZN2us3gov4cash2tx9outputs_tD1Ev
000000000018d5ce W _ZN2us3gov4cash2tx9outputs_tD2Ev
000000000018d6ce W _ZN2us3gov4cash2txC1EOS2_
000000000018d5ea W _ZN2us3gov4cash2txC1Ev
000000000018d6ce W _ZN2us3gov4cash2txC2EOS2_
000000000018d5ea W _ZN2us3gov4cash2txC2Ev
000000000018d656 W _ZN2us3gov4cash2txD1Ev
000000000018d656 W _ZN2us3gov4cash2txD2Ev
0000000000189506 T _ZN2us3gov4cash3app10cash_queryEPNS0_10blockchain6peer_tEPNS0_6socket8datagramE
000000000018fdd8 W _ZN2us3gov4cash3app10policies_t9temp_loadEv
000000000018fe08 W _ZN2us3gov4cash3app10policies_taSERKS3_
000000000018fd9e W _ZN2us3gov4cash3app10policies_tC1Ev
000000000018fd9e W _ZN2us3gov4cash3app10policies_tC2Ev
00000000001971c4 W _ZN2us3gov4cash3app10policies_tD0Ev
0000000000197196 W _ZN2us3gov4cash3app10policies_tD1Ev
0000000000197196 W _ZN2us3gov4cash3app10policies_tD2Ev
0000000000188d2a T _ZN2us3gov4cash3app11local_delta10accounts_t10add_outputERNS1_2txERKNS0_6crypto9ripemd16010value_typeERKlSB_
000000000018c7f2 T _ZN2us3gov4cash3app11local_delta10accounts_t11from_streamERSi
000000000018c57c T _ZN2us3gov4cash3app11local_delta10accounts_t3addERKNS3_7batch_tE
0000000000189c9e T _ZN2us3gov4cash3app11local_delta10accounts_t3payERKNS0_6crypto9ripemd16010value_typeERKl
0000000000189dc2 T _ZN2us3gov4cash3app11local_delta10accounts_t8withdrawERKNS0_6crypto9ripemd16010value_typeERKl
0000000000188cf0 T _ZN2us3gov4cash3app11local_delta10accounts_t9add_inputERNS1_2txERKNS0_6crypto9ripemd16010value_typeERKl
000000000019016a W _ZN2us3gov4cash3app11local_delta10accounts_taSERKS4_
00000000001969e4 W _ZN2us3gov4cash3app11local_delta10accounts_tC1ERKS4_
00000000001900aa W _ZN2us3gov4cash3app11local_delta10accounts_tC1Ev
00000000001969e4 W _ZN2us3gov4cash3app11local_delta10accounts_tC2ERKS4_
00000000001900aa W _ZN2us3gov4cash3app11local_delta10accounts_tC2Ev
0000000000190002 W _ZN2us3gov4cash3app11local_delta10accounts_tD1Ev
0000000000190002 W _ZN2us3gov4cash3app11local_delta10accounts_tD2Ev
000000000018b828 T _ZN2us3gov4cash3app11local_delta11from_streamERSi
000000000018c4d2 T _ZN2us3gov4cash3app11local_delta7batch_t3addERKNS0_6crypto9ripemd16010value_typeERKNS3_9account_tE
000000000018ffae W _ZN2us3gov4cash3app11local_delta7batch_tC1Ev
000000000018ffae W _ZN2us3gov4cash3app11local_delta7batch_tC2Ev
000000000018ffca W _ZN2us3gov4cash3app11local_delta7batch_tD1Ev
000000000018ffca W _ZN2us3gov4cash3app11local_delta7batch_tD2Ev
000000000018c454 T _ZN2us3gov4cash3app11local_delta9account_t11from_streamERSi
000000000018c3c0 T _ZN2us3gov4cash3app11local_delta9account_tC1ERKNS0_6crypto9ripemd16010value_typeERKl
000000000018c3a4 T _ZN2us3gov4cash3app11local_delta9account_tC1Ev
000000000018c3c0 T _ZN2us3gov4cash3app11local_delta9account_tC2ERKNS0_6crypto9ripemd16010value_typeERKl
000000000018c3a4 T _ZN2us3gov4cash3app11local_delta9account_tC2Ev
000000000018c206 T _ZN2us3gov4cash3app11local_deltaaSEi
0000000000190194 W _ZN2us3gov4cash3app11local_deltaaSERKS3_
0000000000196a0a W _ZN2us3gov4cash3app11local_deltaC1ERKS3_
000000000018c27a T _ZN2us3gov4cash3app11local_deltaC1Ev
0000000000196a0a W _ZN2us3gov4cash3app11local_deltaC2ERKS3_
000000000018c27a T _ZN2us3gov4cash3app11local_deltaC2Ev
000000000018c372 T _ZN2us3gov4cash3app11local_deltaD0Ev
000000000018c31c T _ZN2us3gov4cash3app11local_deltaD1Ev
000000000018c31c T _ZN2us3gov4cash3app11local_deltaD2Ev
0000000000188f7c T _ZN2us3gov4cash3app12add_policiesEv
0000000000189134 T _ZN2us3gov4cash3app13process_queryEPNS0_10blockchain6peer_tEPNS0_6socket8datagramE
000000000018ba04 T _ZN2us3gov4cash3app13shell_commandERKNSt7__cxx1112basic_stringIcSt11char_traitsIcESaIcEEE
00000000003ee278 u _ZN2us3gov4cash3app15policies_traits8paramstrE
00000000001891aa T _ZN2us3gov4cash3app16process_evidenceEPNS0_10blockchain6peer_tEPNS0_6socket8datagramE
0000000000189320 T _ZN2us3gov4cash3app16query_accounts_t11from_stringERKNSt7__cxx1112basic_stringIcSt11char_traitsIcESaIcEEE
000000000018947c T _ZN2us3gov4cash3app16query_accounts_t13from_datagramEPNS0_6socket8datagramE
000000000018fe6a W _ZN2us3gov4cash3app16query_accounts_tC1EOS3_
000000000018fe32 W _ZN2us3gov4cash3app16query_accounts_tC1Ev
000000000018fe6a W _ZN2us3gov4cash3app16query_accounts_tC2EOS3_
000000000018fe32 W _ZN2us3gov4cash3app16query_accounts_tC2Ev
000000000018fe4e W _ZN2us3gov4cash3app16query_accounts_tD1Ev
000000000018fe4e W _ZN2us3gov4cash3app16query_accounts_tD2Ev
000000000018904e T _ZN2us3gov4cash3app18create_local_deltaEv
0000000000183bf7 W _ZN2us3gov4cash3app2idEv
000000000018987e T _ZN2us3gov4cash3app3runEv
0000000000189bf0 T _ZN2us3gov4cash3app4db_t11from_streamERSi
0000000000189f08 T _ZN2us3gov4cash3app4db_t11get_newcashEv
0000000000189ea4 T _ZN2us3gov4cash3app4db_t4add_ERKNS0_6crypto9ripemd16010value_typeERKl
000000000018bf2e T _ZN2us3gov4cash3app4db_t5clearEv
0000000000189ed6 T _ZN2us3gov4cash3app4db_t9withdraw_ERKNS0_6crypto9ripemd16010value_typeERKl
000000000018cd68 T _ZN2us3gov4cash3app4db_tC1EOS3_
000000000018cd34 T _ZN2us3gov4cash3app4db_tC1Ev
000000000018cd68 T _ZN2us3gov4cash3app4db_tC2EOS3_
000000000018cd34 T _ZN2us3gov4cash3app4db_tC2Ev
000000000018cdd0 T _ZN2us3gov4cash3app4db_tD1Ev
000000000018cdd0 T _ZN2us3gov4cash3app4db_tD2Ev
000000000018c01a T _ZN2us3gov4cash3app5clearEv
000000000018b988 T _ZN2us3gov4cash3app5delta11from_streamERSi
000000000018caac T _ZN2us3gov4cash3app5delta5mergeEPNS0_10blockchain3app11local_deltaE
000000000018cb58 T _ZN2us3gov4cash3app5delta9end_mergeEv
000000000018cbd8 T _ZN2us3gov4cash3app5deltaC1Ev
000000000018cbd8 T _ZN2us3gov4cash3app5deltaC2Ev
000000000018cd02 T _ZN2us3gov4cash3app5deltaD0Ev
000000000018cc7e T _ZN2us3gov4cash3app5deltaD1Ev
000000000018cc7e T _ZN2us3gov4cash3app5deltaD2Ev
0000000000189f72 T _ZN2us3gov4cash3app6importERKNS0_10blockchain3app5deltaERKNS3_5pow_tE
000000000018a7b4 T _ZN2us3gov4cash3app6unlockERKNS0_6crypto9ripemd16010value_typeERKmS7_RKNSt7__cxx1112basic_stringIcSt11char_traitsIcESaIcEEERKNS1_2txE
000000000018ae7a T _ZN2us3gov4cash3app7processERKNS1_2txE
0000000000188d7a T _ZN2us3gov4cash3appC1Ev
0000000000188d7a T _ZN2us3gov4cash3appC2Ev
0000000000188f50 T _ZN2us3gov4cash3appD0Ev
0000000000188ec2 T _ZN2us3gov4cash3appD1Ev
0000000000188ec2 T _ZN2us3gov4cash3appD2Ev
000000000018cfb8 T _ZN2us3gov4cash5p2pkh11check_inputERKNS0_6crypto9ripemd16010value_typeERKNS1_2txERKmRKNSt7__cxx1112basic_stringIcSt11char_traitsIcESaIcEEE
000000000018d1d8 T _ZN2us3gov4cash5p2pkh12create_inputB5cxx11ERKNS0_6crypto6sha25610value_typeERKhRKNS3_2ec4keys6priv_tE
000000000018d180 T _ZN2us3gov4cash5p2pkh12create_inputB5cxx11ERKNS1_2txERKmRKhRKNS0_6crypto2ec4keys6priv_tE
00000000003ee3f0 B _ZN2us3gov4cash5p2pkh20locking_program_hashE
0000000000198b06 T _ZN2us3gov4loan11local_delta11from_streamERSi
0000000000199210 W _ZN2us3gov4loan11local_deltaC1Ev
0000000000199210 W _ZN2us3gov4loan11local_deltaC2Ev
00000000001992a2 W _ZN2us3gov4loan11local_deltaD0Ev
000000000019925c W _ZN2us3gov4loan11local_deltaD1Ev
000000000019925c W _ZN2us3gov4loan11local_deltaD2Ev
00000000003ee288 u _ZN2us3gov4loan15policies_traits8paramstrE
00000000001994ea W _ZN2us3gov4loan3app10policies_t9temp_loadEv
0000000000199538 W _ZN2us3gov4loan3app10policies_taSERKS3_
0000000000199490 W _ZN2us3gov4loan3app10policies_tC1Ev
0000000000199490 W _ZN2us3gov4loan3app10policies_tC2Ev
0000000000199bfa W _ZN2us3gov4loan3app10policies_tD0Ev
0000000000199bcc W _ZN2us3gov4loan3app10policies_tD1Ev
0000000000199bcc W _ZN2us3gov4loan3app10policies_tD2Ev
0000000000198874 T _ZN2us3gov4loan3app12add_policiesEv
0000000000198bc4 T _ZN2us3gov4loan3app13shell_commandERKNSt7__cxx1112basic_stringIcSt11char_traitsIcESaIcEEE
000000000019894e T _ZN2us3gov4loan3app18create_local_deltaEv
0000000000199455 W _ZN2us3gov4loan3app2idEv
0000000000199474 W _ZN2us3gov4loan3app4db_tC1Ev
0000000000199474 W _ZN2us3gov4loan3app4db_tC2Ev
0000000000198a82 T _ZN2us3gov4loan3app6importERKNS0_10blockchain3app5deltaERKNS3_5pow_tE
0000000000198698 T _ZN2us3gov4loan3appC1Ev
0000000000198698 T _ZN2us3gov4loan3appC2Ev
0000000000198848 T _ZN2us3gov4loan3appD0Ev
00000000001987ca T _ZN2us3gov4loan3appD1Ev
00000000001987ca T _ZN2us3gov4loan3appD2Ev
0000000000198b5e T _ZN2us3gov4loan5delta11from_streamERSi
0000000000199398 W _ZN2us3gov4loan5delta5mergeEPNS0_10blockchain3app11local_deltaE
00000000001992d4 W _ZN2us3gov4loan5deltaC1Ev
00000000001992d4 W _ZN2us3gov4loan5deltaC2Ev
0000000000199366 W _ZN2us3gov4loan5deltaD0Ev
0000000000199320 W _ZN2us3gov4loan5deltaD1Ev
0000000000199320 W _ZN2us3gov4loan5deltaD2Ev
000000000015bb14 T _ZN2us3gov4peer6daemon10purge_slowERNS2_5pub_tE
000000000015bf94 T _ZN2us3gov4peer6daemon11purge_peersERNS2_5pub_tE
000000000015b07e T _ZN2us3gov4peer6daemon12daemon_timerEv
000000000015b3e6 T _ZN2us3gov4peer6daemon12process_workEPNS0_6socket6peer_tEPNS3_8datagramE
000000000015bdfe T _ZN2us3gov4peer6daemon12purge_excessERNS2_5pub_tE
000000000015b0e0 T _ZN2us3gov4peer6daemon13check_latencyERKNS2_5pub_tE
000000000015b018 T _ZN2us3gov4peer6daemon13create_clientEi
000000000015b3c4 T _ZN2us3gov4peer6daemon15clear_evidencesEv
000000000015b3ac T _ZN2us3gov4peer6daemon16process_evidenceEPNS1_6peer_tEPNS0_6socket8datagramE
000000000015b310 T _ZN2us3gov4peer6daemon18adjust_peer_numberEv
000000000015bfce T _ZN2us3gov4peer6daemon4sendEiPNS1_6peer_tEPNS0_6socket8datagramE
000000000015ce26 W _ZN2us3gov4peer6daemon5pub_taSERKS3_
000000000015cce2 W _ZN2us3gov4peer6daemon5pub_tC1EOS3_
000000000015ccc6 W _ZN2us3gov4peer6daemon5pub_tC1Ev
000000000015cce2 W _ZN2us3gov4peer6daemon5pub_tC2EOS3_
000000000015ccc6 W _ZN2us3gov4peer6daemon5pub_tC2Ev
000000000015ccaa W _ZN2us3gov4peer6daemon5pub_tD1Ev
000000000015ccaa W _ZN2us3gov4peer6daemon5pub_tD2Ev
000000000015bd3a T _ZN2us3gov4peer6daemon8set_modeEi
000000000015b5c6 T _ZN2us3gov4peer6daemon9add_peersERNS2_5pub_tE
000000000015af34 T _ZN2us3gov4peer6daemonC1Ett
000000000015aed6 T _ZN2us3gov4peer6daemonC1Ev
000000000015af34 T _ZN2us3gov4peer6daemonC2Ett
000000000015aed6 T _ZN2us3gov4peer6daemonC2Ev
000000000015afec T _ZN2us3gov4peer6daemonD0Ev
000000000015afac T _ZN2us3gov4peer6daemonD1Ev
000000000015afac T _ZN2us3gov4peer6daemonD2Ev
000000000015a864 T _ZN2us3gov4peer6peer_t10disconnectEv
000000000015a52a T _ZN2us3gov4peer6peer_t10on_connectEv
000000000015a794 T _ZN2us3gov4peer6peer_t12process_pongEv
000000000015a8b0 T _ZN2us3gov4peer6peer_t12process_workEPNS0_6socket8datagramE
000000000015a636 T _ZN2us3gov4peer6peer_t17complete_datagramEv
000000000015a56a T _ZN2us3gov4peer6peer_t4pingEv
000000000015a4e6 T _ZN2us3gov4peer6peer_t7connectERKNSt7__cxx1112basic_stringIcSt11char_traitsIcESaIcEEEtb
00000000003ee250 u _ZN2us3gov4peer6peer_t7modestrE
000000000015c9bc W _ZN2us3gov4peer6peer_t8set_modeEi
00000000003ee220 u _ZN2us3gov4peer6peer_t8stagestrE
000000000015a390 T _ZN2us3gov4peer6peer_tC1Ei
000000000015a390 T _ZN2us3gov4peer6peer_tC2Ei
000000000015a4ba T _ZN2us3gov4peer6peer_tD0Ev
000000000015a462 T _ZN2us3gov4peer6peer_tD1Ev
000000000015a462 T _ZN2us3gov4peer6peer_tD2Ev
000000000012c230 T _ZN2us3gov6crypto13double_sha2565resetEv
000000000012c110 T _ZN2us3gov6crypto13double_sha2565writeEPKhm
000000000012c1b8 T _ZN2us3gov6crypto13double_sha2565writeERKNS1_6sha25610value_typeE
000000000012c1f4 T _ZN2us3gov6crypto13double_sha2565writeERKNS1_9ripemd16010value_typeE
000000000012c14e T _ZN2us3gov6crypto13double_sha2565writeERKNSt7__cxx1112basic_stringIcSt11char_traitsIcESaIcEEE
000000000012c054 T _ZN2us3gov6crypto13double_sha2568finalizeEPh
000000000012c0b2 T _ZN2us3gov6crypto13double_sha2568finalizeERNS1_6sha25610value_typeE
0000000000134494 W _ZN2us3gov6crypto13double_sha256C1Ev
0000000000134494 W _ZN2us3gov6crypto13double_sha256C2Ev
000000000012b5bc T _ZN2us3gov6crypto19SymmetricEncryption17SetAgreedKeyValueENS1_2ec4keys6priv_tENS4_5pub_tE
000000000012ba16 T _ZN2us3gov6crypto19SymmetricEncryption26RetrieveCiphertextAndSetIvENSt7__cxx1112basic_stringIcSt11char_traitsIcESaIcEEE
000000000012bab4 T _ZN2us3gov6crypto19SymmetricEncryption7DecryptERKNSt7__cxx1112basic_stringIcSt11char_traitsIcESaIcEEE
000000000012b61e T _ZN2us3gov6crypto19SymmetricEncryption7EncryptERKNSt7__cxx1112basic_stringIcSt11char_traitsIcESaIcEEE
000000000012b4e0 T _ZN2us3gov6crypto19SymmetricEncryptionC1ENS1_2ec4keys6priv_tENS4_5pub_tE
000000000012b4e0 T _ZN2us3gov6crypto19SymmetricEncryptionC2ENS1_2ec4keys6priv_tENS4_5pub_tE
000000000012af78 T _ZN2us3gov6crypto2ec4keys10get_pubkeyERKNS3_6priv_tE
000000000012a5d8 T _ZN2us3gov6crypto2ec4keys5pub_t6assignERKNSt7__cxx1112basic_stringIcSt11char_traitsIcESaIcEEE
000000000012a32e T _ZN2us3gov6crypto2ec4keys5pub_t7set_b58ERKNSt7__cxx1112basic_stringIcSt11char_traitsIcESaIcEEE
000000000012a0cc T _ZN2us3gov6crypto2ec4keys5pub_t8from_b58ERKNSt7__cxx1112basic_stringIcSt11char_traitsIcESaIcEEE
000000000012a400 T _ZN2us3gov6crypto2ec4keys5pub_t8from_hexERKNSt7__cxx1112basic_stringIcSt11char_traitsIcESaIcEEE
000000000012a794 T _ZN2us3gov6crypto2ec4keys5pub_taSERKS4_
00000000001343d6 W _ZN2us3gov6crypto2ec4keys5pub_tC1Ev
00000000001343d6 W _ZN2us3gov6crypto2ec4keys5pub_tC2Ev
000000000012a098 T _ZN2us3gov6crypto2ec4keys6priv_t7set_b58ERKNSt7__cxx1112basic_stringIcSt11char_traitsIcESaIcEEE
0000000000129fee T _ZN2us3gov6crypto2ec4keys6priv_t8from_b58ERKNSt7__cxx1112basic_stringIcSt11char_traitsIcESaIcEEE
0000000000129d00 T _ZN2us3gov6crypto2ec4keys6to_hexB5cxx11ERKNS3_6priv_tE
000000000012af36 T _ZN2us3gov6crypto2ec4keys6verifyERKNS3_6priv_tE
000000000012b07a T _ZN2us3gov6crypto2ec4keys8generateEv
0000000000129acc T _ZN2us3gov6crypto2ec4keysC1EOS3_
0000000000129832 T _ZN2us3gov6crypto2ec4keysC1ERKNS3_6priv_tE
00000000001298f6 T _ZN2us3gov6crypto2ec4keysC1ERKNSt7__cxx1112basic_stringIcSt11char_traitsIcESaIcEEE
0000000000129a0c T _ZN2us3gov6crypto2ec4keysC1ERKS3_
00000000001343fe W _ZN2us3gov6crypto2ec4keysC1Ev
0000000000129acc T _ZN2us3gov6crypto2ec4keysC2EOS3_
0000000000129832 T _ZN2us3gov6crypto2ec4keysC2ERKNS3_6priv_tE
00000000001298f6 T _ZN2us3gov6crypto2ec4keysC2ERKNSt7__cxx1112basic_stringIcSt11char_traitsIcESaIcEEE
0000000000129a0c T _ZN2us3gov6crypto2ec4keysC2ERKS3_
00000000001343fe W _ZN2us3gov6crypto2ec4keysC2Ev
000000000012ab66 T _ZN2us3gov6crypto2ec6to_b58B5cxx11ERKSt6vectorIhSaIhEE
000000000012aa0c T _ZN2us3gov6crypto2ec6to_hexB5cxx11ERKSt6vectorIhSaIhEE
000000000012b34a T _ZN2us3gov6crypto2ec8from_b58ERKNSt7__cxx1112basic_stringIcSt11char_traitsIcESaIcEEE
000000000012b216 T _ZN2us3gov6crypto2ec8from_hexERKNSt7__cxx1112basic_stringIcSt11char_traitsIcESaIcEEE
00000000003ee2c8 B _ZN2us3gov6crypto2ec8instanceE
00000000001297f0 T _ZN2us3gov6crypto2ecC1Ev
00000000001297f0 T _ZN2us3gov6crypto2ecC2Ev
0000000000129814 T _ZN2us3gov6crypto2ecD1Ev
0000000000129814 T _ZN2us3gov6crypto2ecD2Ev
0000000000128ef8 T _ZN2us3gov6crypto3b586decodeEPKcRSt5arrayIhLm32EE
0000000000128b08 T _ZN2us3gov6crypto3b586decodeEPKcRSt6vectorIhSaIhEE
00000000001289ea T _ZN2us3gov6crypto3b586decodeERKNSt7__cxx1112basic_stringIcSt11char_traitsIcESaIcEEE
0000000000129762 T _ZN2us3gov6crypto3b586decodeERKNSt7__cxx1112basic_stringIcSt11char_traitsIcESaIcEEERSt6vectorIhSaIhEE
0000000000129361 T _ZN2us3gov6crypto3b586encodeB5cxx11EPKhS4_
00000000001296fd T _ZN2us3gov6crypto3b586encodeB5cxx11ERKSt6vectorIhSaIhEE
0000000000129306 T _ZN2us3gov6crypto3b586encodeERKNSt7__cxx1112basic_stringIcSt11char_traitsIcESaIcEEE
000000000012f13a T _ZN2us3gov6crypto6sha25610initializeEPj
0000000000131648 T _ZN2us3gov6crypto6sha25610value_type4zeroEv
00000000001313dc T _ZN2us3gov6crypto6sha25610value_type8from_b58ERKNSt7__cxx1112basic_stringIcSt11char_traitsIcESaIcEEE
000000000013154e T _ZN2us3gov6crypto6sha25610value_type8from_hexERKNSt7__cxx1112basic_stringIcSt11char_traitsIcESaIcEEE
00000000001343ca W _ZN2us3gov6crypto6sha25610value_typeC1Ev
00000000001343ca W _ZN2us3gov6crypto6sha25610value_typeC2Ev
000000000013cf7c W _ZN2us3gov6crypto6sha2562ChEjjj
000000000013cf9c W _ZN2us3gov6crypto6sha2563MajEjjj
0000000000131326 T _ZN2us3gov6crypto6sha2565resetEv
000000000013d05a W _ZN2us3gov6crypto6sha2565RoundEjjjRjjjjS3_jj
0000000000130efe T _ZN2us3gov6crypto6sha2565writeEPKhm
0000000000130e94 T _ZN2us3gov6crypto6sha2565writeERKNSt7__cxx1112basic_stringIcSt11char_traitsIcESaIcEEE
000000000013d00e W _ZN2us3gov6crypto6sha2566sigma0Ej
000000000013cfc2 W _ZN2us3gov6crypto6sha2566Sigma0Ej
000000000013d034 W _ZN2us3gov6crypto6sha2566sigma1Ej
000000000013cfe8 W _ZN2us3gov6crypto6sha2566Sigma1Ej
00000000001311ec T _ZN2us3gov6crypto6sha2568finalizeEPh
0000000000131060 T _ZN2us3gov6crypto6sha2568finalizeERNS2_10value_typeE
000000000012f1b6 T _ZN2us3gov6crypto6sha2569transformEPjPKh
000000000012f10c T _ZN2us3gov6crypto6sha256C1Ev
000000000012f10c T _ZN2us3gov6crypto6sha256C2Ev
000000000012efd0 T _ZN2us3gov6crypto9ripemd16010value_type4zeroEv
000000000012eab6 T _ZN2us3gov6crypto9ripemd16010value_type7set_b58ERKNSt7__cxx1112basic_stringIcSt11char_traitsIcESaIcEEE
000000000012e94c T _ZN2us3gov6crypto9ripemd16010value_type8from_b58ERKNSt7__cxx1112basic_stringIcSt11char_traitsIcESaIcEEE
000000000012ebdc T _ZN2us3gov6crypto9ripemd16010value_type8from_hexERKNSt7__cxx1112basic_stringIcSt11char_traitsIcESaIcEEE
000000000012ec28 T _ZN2us3gov6crypto9ripemd16010value_typeC1Ej
000000000012ec0c T _ZN2us3gov6crypto9ripemd16010value_typeC1Ev
000000000012ec28 T _ZN2us3gov6crypto9ripemd16010value_typeC2Ej
000000000012ec0c T _ZN2us3gov6crypto9ripemd16010value_typeC2Ev
000000000019b2c0 R _ZN2us3gov6crypto9ripemd1603padE
000000000012e89c T _ZN2us3gov6crypto9ripemd1605resetEv
000000000012e494 T _ZN2us3gov6crypto9ripemd1605writeEPKhm
000000000012e654 T _ZN2us3gov6crypto9ripemd1605writeERKm
000000000012e458 T _ZN2us3gov6crypto9ripemd1605writeERKNS2_10value_typeE
000000000012e5ea T _ZN2us3gov6crypto9ripemd1605writeERKNSt7__cxx1112basic_stringIcSt11char_traitsIcESaIcEEE
000000000012e7aa T _ZN2us3gov6crypto9ripemd1608finalizeEPh
000000000012e680 T _ZN2us3gov6crypto9ripemd1608finalizeERNS2_10value_typeE
000000000012e430 T _ZN2us3gov6crypto9ripemd160C1Ev
000000000012e430 T _ZN2us3gov6crypto9ripemd160C2Ev
000000000013441d W _ZN2us3gov6cryptolsERSoRKNS1_2ec4keys5pub_tE
000000000016e378 W _ZN2us3gov6cryptolsERSoRKNS1_9ripemd16010value_typeE
00000000001752d3 W _ZN2us3gov6cryptolsIdEERNS1_9ripemd160ES4_RKT_
0000000000173fc9 W _ZN2us3gov6cryptolsINS1_9ripemd16010value_typeEEERS3_S5_RKT_
0000000000173ff2 W _ZN2us3gov6cryptolsINSt7__cxx1112basic_stringIcSt11char_traitsIcESaIcEEEEERNS1_9ripemd160ESA_RKT_
000000000016e51e W _ZN2us3gov6cryptorsERSiRNS1_2ec4keys5pub_tE
000000000016e3e2 W _ZN2us3gov6cryptorsERSiRNS1_9ripemd16010value_typeE
0000000000140d4e T _ZN2us3gov6socket2io4sendEic
0000000000140cf4 T _ZN2us3gov6socket2io4sendEiPNS1_8datagramE
0000000000150836 W _ZN2us3gov6socket2io4sendEiRKNS1_8datagramE
00000000001412b0 T _ZN2us3gov6socket6client10disconnectEv
0000000000150864 W _ZN2us3gov6socket6client10on_connectEv
0000000000141336 T _ZN2us3gov6socket6client13init_sockaddrEP11sockaddr_inPKct
0000000000141708 T _ZN2us3gov6socket6client4sendEiRKNSt7__cxx1112basic_stringIcSt11char_traitsIcESaIcEEE
0000000000150858 W _ZN2us3gov6socket6client5readyEv
00000000001411de T _ZN2us3gov6socket6client7connectERKNSt7__cxx1112basic_stringIcSt11char_traitsIcESaIcEEEtb
00000000001413e4 T _ZN2us3gov6socket6client9init_sockERKNSt7__cxx1112basic_stringIcSt11char_traitsIcESaIcEEEtb
0000000000140efa T _ZN2us3gov6socket6clientC1Ei
0000000000140e9e T _ZN2us3gov6socket6clientC1Ev
0000000000140efa T _ZN2us3gov6socket6clientC2Ei
0000000000140e9e T _ZN2us3gov6socket6clientC2Ev
0000000000141018 T _ZN2us3gov6socket6clientD0Ev
0000000000140fca T _ZN2us3gov6socket6clientD1Ev
0000000000140fca T _ZN2us3gov6socket6clientD2Ev
000000000015287c W _ZN2us3gov6socket6daemon12daemon_timerEv
0000000000142040 T _ZN2us3gov6socket6daemon12process_workEPNS1_6peer_tE
0000000000152864 W _ZN2us3gov6socket6daemon12process_workEPNS1_6peer_tEPNS1_8datagramE
0000000000142194 T _ZN2us3gov6socket6daemon13create_clientEi
0000000000141fb8 T _ZN2us3gov6socket6daemon19receive_and_processEPNS1_6clientE
0000000000141dee T _ZN2us3gov6socket6daemon3runEv
0000000000141d78 T _ZN2us3gov6socket6daemon9on_finishEv
0000000000141c06 T _ZN2us3gov6socket6daemonC1Eti
0000000000141b9a T _ZN2us3gov6socket6daemonC1Ev
0000000000141c06 T _ZN2us3gov6socket6daemonC2Eti
0000000000141b9a T _ZN2us3gov6socket6daemonC2Ev
0000000000141d4c T _ZN2us3gov6socket6daemonD0Ev
0000000000141ce2 T _ZN2us3gov6socket6daemonD1Ev
0000000000141ce2 T _ZN2us3gov6socket6daemonD2Ev
0000000000140b18 T _ZN2us3gov6socket6peer_t10on_connectEv
00000000001507fc W _ZN2us3gov6socket6peer_t12process_workEPNS1_8datagramE
0000000000140a0e T _ZN2us3gov6socket6peer_t17complete_datagramEv
00000000001409da T _ZN2us3gov6socket6peer_t5readyEv
0000000000140b4e T _ZN2us3gov6socket6peer_t9send_recvERKNSt7__cxx1112basic_stringIcSt11char_traitsIcESaIcEEEtPNS1_8datagramE
0000000000140906 T _ZN2us3gov6socket6peer_tC1Ei
00000000001408b8 T _ZN2us3gov6socket6peer_tC1Ev
0000000000140906 T _ZN2us3gov6socket6peer_tC2Ei
00000000001408b8 T _ZN2us3gov6socket6peer_tC2Ev
00000000001409ae T _ZN2us3gov6socket6peer_tD0Ev
0000000000140956 T _ZN2us3gov6socket6peer_tD1Ev
0000000000140956 T _ZN2us3gov6socket6peer_tD2Ev
000000000013de7c T _ZN2us3gov6socket6server10disconnectEPNS1_6clientE
000000000013ddfc T _ZN2us3gov6socket6server11incorporateEPNS1_6clientE
000000000013d300 T _ZN2us3gov6socket6server11make_socketEt
000000000013d422 T _ZN2us3gov6socket6server19receive_and_processEPNS1_6clientE
00000000003ee348 B _ZN2us3gov6socket6server2osE
000000000013d44c T _ZN2us3gov6socket6server3runEv
0000000000144c2a W _ZN2us3gov6socket6server5pub_tC1EOS3_
0000000000144c0e W _ZN2us3gov6socket6server5pub_tC1Ev
0000000000144c2a W _ZN2us3gov6socket6server5pub_tC2EOS3_
0000000000144c0e W _ZN2us3gov6socket6server5pub_tC2Ev
0000000000144b80 W _ZN2us3gov6socket6server5pub_tD1Ev
0000000000144b80 W _ZN2us3gov6socket6server5pub_tD2Ev
000000000013e096 T _ZN2us3gov6socket6server9clients_t12read_socketsEv
000000000013dfac T _ZN2us3gov6socket6server9clients_t3addEPNS1_6clientEb
000000000013e0bc T _ZN2us3gov6socket6server9clients_t4holdEPNS1_6clientE
000000000013f6b0 T _ZN2us3gov6socket6server9clients_t4wait3addEPNS1_6clientE
000000000013f71a T _ZN2us3gov6socket6server9clients_t4wait6removeEPNS1_6clientE
0000000000144904 W _ZN2us3gov6socket6server9clients_t4waitC1Ev
0000000000144904 W _ZN2us3gov6socket6server9clients_t4waitC2Ev
000000000013f616 T _ZN2us3gov6socket6server9clients_t4waitD1Ev
000000000013f616 T _ZN2us3gov6socket6server9clients_t4waitD2Ev
000000000013e4ea T _ZN2us3gov6socket6server9clients_t6finishEv
000000000013e24a T _ZN2us3gov6socket6server9clients_t6importEv
000000000013e026 T _ZN2us3gov6socket6server9clients_t6removeEPNS1_6clientE
000000000013e1a2 T _ZN2us3gov6socket6server9clients_t6resumeEPNS1_6clientE
000000000013f2ba T _ZN2us3gov6socket6server9clients_t6rmlist3addEPNS1_6clientE
000000000013f3b8 T _ZN2us3gov6socket6server9clients_t6rmlist6removeEi
0000000000144930 W _ZN2us3gov6socket6server9clients_t6rmlistC1Ev
0000000000144930 W _ZN2us3gov6socket6server9clients_t6rmlistC2Ev
000000000013f216 T _ZN2us3gov6socket6server9clients_t6rmlistD1Ev
000000000013f216 T _ZN2us3gov6socket6server9clients_t6rmlistD2Ev
000000000013e910 T _ZN2us3gov6socket6server9clients_t6updateEv
000000000013ed8e T _ZN2us3gov6socket6server9clients_t7attic_t5purgeEv
0000000000144a7a W _ZN2us3gov6socket6server9clients_t7attic_tC1Ev
0000000000144a7a W _ZN2us3gov6socket6server9clients_t7attic_tC2Ev
000000000013ecec T _ZN2us3gov6socket6server9clients_t7attic_tD1Ev
000000000013ecec T _ZN2us3gov6socket6server9clients_t7attic_tD2Ev
0000000000144a96 W _ZN2us3gov6socket6server9clients_tC1Ev
0000000000144a96 W _ZN2us3gov6socket6server9clients_tC2Ev
000000000013e814 T _ZN2us3gov6socket6server9clients_tD1Ev
000000000013e814 T _ZN2us3gov6socket6server9clients_tD2Ev
000000000013dddc T _ZN2us3gov6socket6server9on_finishEv
000000000013d248 T _ZN2us3gov6socket6serverC1Et
000000000013d1f6 T _ZN2us3gov6socket6serverC1Ev
000000000013d248 T _ZN2us3gov6socket6serverC2Et
000000000013d1f6 T _ZN2us3gov6socket6serverC2Ev
000000000013d2d4 T _ZN2us3gov6socket6serverD0Ev
000000000013d2a2 T _ZN2us3gov6socket6serverD1Ev
000000000013d2a2 T _ZN2us3gov6socket6serverD2Ev
000000000013fd2a T _ZN2us3gov6socket8datagram11encode_sizeEj
000000000013fe90 T _ZN2us3gov6socket8datagram14encode_serviceEt
000000000014003a T _ZN2us3gov6socket8datagram4recvEi
000000000013ffe2 T _ZN2us3gov6socket8datagram4recvEii
000000000013fa54 T _ZN2us3gov6socket8datagramC1Et
00000000001621d4 W _ZN2us3gov6socket8datagramC1EtOSt6vectorIhSaIhEE
000000000013fbf0 T _ZN2us3gov6socket8datagramC1EtRKNSt7__cxx1112basic_stringIcSt11char_traitsIcESaIcEEE
000000000013fb04 T _ZN2us3gov6socket8datagramC1Ett
000000000013fa22 T _ZN2us3gov6socket8datagramC1Ev
000000000013fa54 T _ZN2us3gov6socket8datagramC2Et
00000000001621d4 W _ZN2us3gov6socket8datagramC2EtOSt6vectorIhSaIhEE
000000000013fbf0 T _ZN2us3gov6socket8datagramC2EtRKNSt7__cxx1112basic_stringIcSt11char_traitsIcESaIcEEE
000000000013fb04 T _ZN2us3gov6socket8datagramC2Ett
000000000013fa22 T _ZN2us3gov6socket8datagramC2Ev
0000000000150810 W _ZN2us3gov6socket8datagramD1Ev
0000000000150810 W _ZN2us3gov6socket8datagramD2Ev
0000000000152712 W _ZN4ctpl11thread_pool10set_threadEi
000000000015221a W _ZN4ctpl11thread_pool11clear_queueEv
0000000000152810 W _ZN4ctpl11thread_pool4initEv
0000000000151fc4 W _ZN4ctpl11thread_pool4sizeEv
000000000015226a W _ZN4ctpl11thread_pool4stopEb
000000000015201a W _ZN4ctpl11thread_pool6resizeEi
0000000000151e8e W _ZN4ctpl11thread_poolC1Ei
0000000000151e8e W _ZN4ctpl11thread_poolC2Ei
0000000000151f66 W _ZN4ctpl11thread_poolD1Ev
0000000000151f66 W _ZN4ctpl11thread_poolD2Ev
00000000001535b2 W _ZN4ctpl6detail5QueueIPSt8functionIFviEEE3popERS5_
00000000001553b2 W _ZN4ctpl6detail5QueueIPSt8functionIFviEEE4pushERKS5_
0000000000151e46 W _ZN4ctpl6detail5QueueIPSt8functionIFviEEEC1Ev
0000000000151e46 W _ZN4ctpl6detail5QueueIPSt8functionIFviEEEC2Ev
0000000000151e72 W _ZN4ctpl6detail5QueueIPSt8functionIFviEEED1Ev
0000000000151e72 W _ZN4ctpl6detail5QueueIPSt8functionIFviEEED2Ev
0000000000139336 W _ZN8CryptoPP10member_ptrINS_11BlockCipherEED1Ev
0000000000139336 W _ZN8CryptoPP10member_ptrINS_11BlockCipherEED2Ev
0000000000138eca W _ZN8CryptoPP10member_ptrINS_22BufferedTransformationEED1Ev
0000000000138eca W _ZN8CryptoPP10member_ptrINS_22BufferedTransformationEED2Ev
0000000000138e82 W _ZN8CryptoPP10member_ptrINS_23AlgorithmParametersBaseEE5resetEPS1_
0000000000138e5e W _ZN8CryptoPP10member_ptrINS_23AlgorithmParametersBaseEE7releaseEv
0000000000138e44 W _ZN8CryptoPP10member_ptrINS_23AlgorithmParametersBaseEEC1EPS1_
0000000000138e44 W _ZN8CryptoPP10member_ptrINS_23AlgorithmParametersBaseEEC2EPS1_
0000000000138e0c W _ZN8CryptoPP10member_ptrINS_23AlgorithmParametersBaseEED1Ev
0000000000138e0c W _ZN8CryptoPP10member_ptrINS_23AlgorithmParametersBaseEED2Ev
000000000013a846 W _ZN8CryptoPP10member_ptrINS_23AlgorithmParametersBaseEEptEv
                 U _ZN8CryptoPP10RandomPool18IncorporateEntropyEPKhm
                 U _ZN8CryptoPP10RandomPool34GenerateIntoBufferedTransformationERNS_22BufferedTransformationERKNSt7__cxx1112basic_stringIcSt11char_traitsIcESaIcEEEm
                 U _ZN8CryptoPP10RandomPoolC2Ev
0000000000137846 W _ZN8CryptoPP10RandomPoolD0Ev
00000000001377e6 W _ZN8CryptoPP10RandomPoolD1Ev
00000000001377e6 W _ZN8CryptoPP10RandomPoolD2Ev
0000000000137232 W _ZN8CryptoPP10RedirectorC1ERNS_22BufferedTransformationENS0_8BehaviorE
0000000000137232 W _ZN8CryptoPP10RedirectorC2ERNS_22BufferedTransformationENS0_8BehaviorE
000000000013bda8 W _ZN8CryptoPP11BlockCipherC1ERKS0_
000000000013950c W _ZN8CryptoPP11BlockCipherC1Ev
000000000013bda8 W _ZN8CryptoPP11BlockCipherC2ERKS0_
000000000013950c W _ZN8CryptoPP11BlockCipherC2Ev
0000000000139304 W _ZN8CryptoPP11BlockCipherD0Ev
00000000001392aa W _ZN8CryptoPP11BlockCipherD1Ev
00000000001392aa W _ZN8CryptoPP11BlockCipherD2Ev
                 U _ZN8CryptoPP11StringStore11TransferTo2ERNS_22BufferedTransformationERmRKNSt7__cxx1112basic_stringIcSt11char_traitsIcESaIcEEEb
                 U _ZN8CryptoPP11StringStore15StoreInitializeERKNS_14NameValuePairsE
000000000013732e W _ZN8CryptoPP11StringStoreC1EPKc
000000000013732e W _ZN8CryptoPP11StringStoreC2EPKc
000000000013902c W _ZN8CryptoPP11StringStoreD0Ev
0000000000138fe2 W _ZN8CryptoPP11StringStoreD1Ev
0000000000138fe2 W _ZN8CryptoPP11StringStoreD2Ev
000000000013c0b2 W _ZN8CryptoPP12ClonableImplINS_16BlockCipherFinalILNS_9CipherDirE0ENS_8Rijndael3EncEEES4_EC1ERKS6_
0000000000139ad2 W _ZN8CryptoPP12ClonableImplINS_16BlockCipherFinalILNS_9CipherDirE0ENS_8Rijndael3EncEEES4_EC1Ev
000000000013c0b2 W _ZN8CryptoPP12ClonableImplINS_16BlockCipherFinalILNS_9CipherDirE0ENS_8Rijndael3EncEEES4_EC2ERKS6_
0000000000139ad2 W _ZN8CryptoPP12ClonableImplINS_16BlockCipherFinalILNS_9CipherDirE0ENS_8Rijndael3EncEEES4_EC2Ev
0000000000139b60 W _ZN8CryptoPP12ClonableImplINS_16BlockCipherFinalILNS_9CipherDirE0ENS_8Rijndael3EncEEES4_ED0Ev
0000000000139b16 W _ZN8CryptoPP12ClonableImplINS_16BlockCipherFinalILNS_9CipherDirE0ENS_8Rijndael3EncEEES4_ED1Ev
0000000000139b16 W _ZN8CryptoPP12ClonableImplINS_16BlockCipherFinalILNS_9CipherDirE0ENS_8Rijndael3EncEEES4_ED2Ev
000000000013764a W _ZN8CryptoPP12StringSourceC1ERKNSt7__cxx1112basic_stringIcSt11char_traitsIcESaIcEEEbPNS_22BufferedTransformationE
000000000013764a W _ZN8CryptoPP12StringSourceC2ERKNSt7__cxx1112basic_stringIcSt11char_traitsIcESaIcEEEbPNS_22BufferedTransformationE
000000000013b9d2 W _ZN8CryptoPP12StringSourceD0Ev
000000000013b988 W _ZN8CryptoPP12StringSourceD1Ev
000000000013b988 W _ZN8CryptoPP12StringSourceD2Ev
000000000013beae W _ZN8CryptoPP13AlgorithmImplINS_25SimpleKeyingInterfaceImplINS_8TwoBasesINS_11BlockCipherENS_13Rijndael_InfoEEES5_EES6_EC1ERKS7_
0000000000139700 W _ZN8CryptoPP13AlgorithmImplINS_25SimpleKeyingInterfaceImplINS_8TwoBasesINS_11BlockCipherENS_13Rijndael_InfoEEES5_EES6_EC1Ev
000000000013beae W _ZN8CryptoPP13AlgorithmImplINS_25SimpleKeyingInterfaceImplINS_8TwoBasesINS_11BlockCipherENS_13Rijndael_InfoEEES5_EES6_EC2ERKS7_
0000000000139700 W _ZN8CryptoPP13AlgorithmImplINS_25SimpleKeyingInterfaceImplINS_8TwoBasesINS_11BlockCipherENS_13Rijndael_InfoEEES5_EES6_EC2Ev
000000000013978e W _ZN8CryptoPP13AlgorithmImplINS_25SimpleKeyingInterfaceImplINS_8TwoBasesINS_11BlockCipherENS_13Rijndael_InfoEEES5_EES6_ED0Ev
0000000000139744 W _ZN8CryptoPP13AlgorithmImplINS_25SimpleKeyingInterfaceImplINS_8TwoBasesINS_11BlockCipherENS_13Rijndael_InfoEEES5_EES6_ED1Ev
0000000000139744 W _ZN8CryptoPP13AlgorithmImplINS_25SimpleKeyingInterfaceImplINS_8TwoBasesINS_11BlockCipherENS_13Rijndael_InfoEEES5_EES6_ED2Ev
000000000013a814 W _ZN8CryptoPP13AllocatorBaseIhE9CheckSizeEm
000000000013ca1a W _ZN8CryptoPP13AutoSignalingINS_14InputRejectingINS_22BufferedTransformationEEEE24SetAutoSignalPropagationEi
0000000000138cba W _ZN8CryptoPP13AutoSignalingINS_14InputRejectingINS_22BufferedTransformationEEEEC1Ei
0000000000138cba W _ZN8CryptoPP13AutoSignalingINS_14InputRejectingINS_22BufferedTransformationEEEEC2Ei
0000000000136b2e W _ZN8CryptoPP13AutoSignalingINS_14InputRejectingINS_22BufferedTransformationEEEED0Ev
0000000000136ae4 W _ZN8CryptoPP13AutoSignalingINS_14InputRejectingINS_22BufferedTransformationEEEED1Ev
0000000000136ae4 W _ZN8CryptoPP13AutoSignalingINS_14InputRejectingINS_22BufferedTransformationEEEED2Ev
000000000013a874 W _ZN8CryptoPP13NullAllocatorIhE10deallocateEPvm
000000000013b418 W _ZN8CryptoPP13NullAllocatorIjE10deallocateEPvm
000000000013b64c W _ZN8CryptoPP13NullAllocatorIjE8allocateEmPKv
0000000000137758 W _ZN8CryptoPP13Rijndael_Info19StaticAlgorithmNameEv
                 U _ZN8CryptoPP14CipherModeBase13ResizeBuffersEv
0000000000137fbe W _ZN8CryptoPP14CipherModeBase15SetFeedbackSizeEj
0000000000138162 W _ZN8CryptoPP14CTR_ModePolicy14WriteKeystreamEPhm
                 U _ZN8CryptoPP14CTR_ModePolicy15SeekToIterationEm
                 U _ZN8CryptoPP14CTR_ModePolicy16OperateKeystreamENS_18KeystreamOperationEPhPKhm
                 U _ZN8CryptoPP14CTR_ModePolicy19CipherResynchronizeEPhPKhm
                 U _ZN8CryptoPP14CTR_ModePolicy21IncrementCounterBy256Ev
000000000013b0ae W _ZN8CryptoPP14GetAlignmentOfIjEEjv
000000000013b0b9 W _ZN8CryptoPP14GetAlignmentOfItEEjv
000000000013ca44 W _ZN8CryptoPP14InputRejectingINS_22BufferedTransformationEE11ChannelPut2ERKNSt7__cxx1112basic_stringIcSt11char_traitsIcESaIcEEEPKhmib
000000000013ce4c W _ZN8CryptoPP14InputRejectingINS_22BufferedTransformationEE13InputRejectedC1Ev
000000000013ce4c W _ZN8CryptoPP14InputRejectingINS_22BufferedTransformationEE13InputRejectedC2Ev
000000000013c90e W _ZN8CryptoPP14InputRejectingINS_22BufferedTransformationEE13InputRejectedD0Ev
000000000013c8e0 W _ZN8CryptoPP14InputRejectingINS_22BufferedTransformationEE13InputRejectedD1Ev
000000000013c8e0 W _ZN8CryptoPP14InputRejectingINS_22BufferedTransformationEE13InputRejectedD2Ev
000000000013c9a2 W _ZN8CryptoPP14InputRejectingINS_22BufferedTransformationEE13IsolatedFlushEbb
000000000013cab0 W _ZN8CryptoPP14InputRejectingINS_22BufferedTransformationEE23ChannelMessageSeriesEndERKNSt7__cxx1112basic_stringIcSt11char_traitsIcESaIcEEEib
000000000013c9be W _ZN8CryptoPP14InputRejectingINS_22BufferedTransformationEE24IsolatedMessageSeriesEndEb
000000000013c93a W _ZN8CryptoPP14InputRejectingINS_22BufferedTransformationEE4Put2EPKhmib
0000000000136c3e W _ZN8CryptoPP14InputRejectingINS_22BufferedTransformationEEC1Ev
0000000000136c3e W _ZN8CryptoPP14InputRejectingINS_22BufferedTransformationEEC2Ev
0000000000136ab2 W _ZN8CryptoPP14InputRejectingINS_22BufferedTransformationEED0Ev
0000000000136a68 W _ZN8CryptoPP14InputRejectingINS_22BufferedTransformationEED1Ev
0000000000136a68 W _ZN8CryptoPP14InputRejectingINS_22BufferedTransformationEED2Ev
000000000013c3d0 W _ZN8CryptoPP14InputRejectingINS_6FilterEE11ChannelPut2ERKNSt7__cxx1112basic_stringIcSt11char_traitsIcESaIcEEEPKhmib
000000000013cdaa W _ZN8CryptoPP14InputRejectingINS_6FilterEE13InputRejectedC1Ev
000000000013cdaa W _ZN8CryptoPP14InputRejectingINS_6FilterEE13InputRejectedC2Ev
000000000013c2c4 W _ZN8CryptoPP14InputRejectingINS_6FilterEE13InputRejectedD0Ev
000000000013c296 W _ZN8CryptoPP14InputRejectingINS_6FilterEE13InputRejectedD1Ev
000000000013c296 W _ZN8CryptoPP14InputRejectingINS_6FilterEE13InputRejectedD2Ev
000000000013c358 W _ZN8CryptoPP14InputRejectingINS_6FilterEE13IsolatedFlushEbb
000000000013c43c W _ZN8CryptoPP14InputRejectingINS_6FilterEE23ChannelMessageSeriesEndERKNSt7__cxx1112basic_stringIcSt11char_traitsIcESaIcEEEib
000000000013c374 W _ZN8CryptoPP14InputRejectingINS_6FilterEE24IsolatedMessageSeriesEndEb
000000000013c2f0 W _ZN8CryptoPP14InputRejectingINS_6FilterEE4Put2EPKhmib
0000000000137510 W _ZN8CryptoPP14InputRejectingINS_6FilterEEC1Ev
0000000000137510 W _ZN8CryptoPP14InputRejectingINS_6FilterEEC2Ev
0000000000137462 W _ZN8CryptoPP14InputRejectingINS_6FilterEED0Ev
0000000000137418 W _ZN8CryptoPP14InputRejectingINS_6FilterEED1Ev
0000000000137418 W _ZN8CryptoPP14InputRejectingINS_6FilterEED2Ev
0000000000138f5e W _ZN8CryptoPP14MakeParametersINS_23ConstByteArrayParameterEEENS_19AlgorithmParametersEPKcRKT_b
0000000000134fc8 W _ZN8CryptoPP14NameValuePairsC1Ev
0000000000134fc8 W _ZN8CryptoPP14NameValuePairsC2Ev
0000000000134f16 W _ZN8CryptoPP14NameValuePairsD0Ev
0000000000134ef8 W _ZN8CryptoPP14NameValuePairsD1Ev
0000000000134ef8 W _ZN8CryptoPP14NameValuePairsD2Ev
0000000000134ebe W _ZN8CryptoPP14NotImplementedC1ERKNSt7__cxx1112basic_stringIcSt11char_traitsIcESaIcEEE
0000000000134ebe W _ZN8CryptoPP14NotImplementedC2ERKNSt7__cxx1112basic_stringIcSt11char_traitsIcESaIcEEE
0000000000135f50 W _ZN8CryptoPP14NotImplementedD0Ev
0000000000135f22 W _ZN8CryptoPP14NotImplementedD1Ev
0000000000135f22 W _ZN8CryptoPP14NotImplementedD2Ev
000000000013c572 W _ZN8CryptoPP14SourceTemplateINS_11StringStoreEE13PumpMessages2ERjb
000000000013c49e W _ZN8CryptoPP14SourceTemplateINS_11StringStoreEE18IsolatedInitializeERKNS_14NameValuePairsE
000000000013c4c8 W _ZN8CryptoPP14SourceTemplateINS_11StringStoreEE24SetAutoSignalPropagationEi
000000000013c50e W _ZN8CryptoPP14SourceTemplateINS_11StringStoreEE5Pump2ERmb
000000000013c5d6 W _ZN8CryptoPP14SourceTemplateINS_11StringStoreEE8PumpAll2Eb
000000000013905e W _ZN8CryptoPP14SourceTemplateINS_11StringStoreEEC1EPNS_22BufferedTransformationE
000000000013905e W _ZN8CryptoPP14SourceTemplateINS_11StringStoreEEC2EPNS_22BufferedTransformationE
000000000013913c W _ZN8CryptoPP14SourceTemplateINS_11StringStoreEED0Ev
00000000001390e2 W _ZN8CryptoPP14SourceTemplateINS_11StringStoreEED1Ev
00000000001390e2 W _ZN8CryptoPP14SourceTemplateINS_11StringStoreEED2Ev
                 U _ZN8CryptoPP15AlignedAllocateEm
000000000013befc W _ZN8CryptoPP15BlockCipherImplINS_13Rijndael_InfoENS_11BlockCipherEEC1ERKS3_
00000000001397c0 W _ZN8CryptoPP15BlockCipherImplINS_13Rijndael_InfoENS_11BlockCipherEEC1Ev
000000000013befc W _ZN8CryptoPP15BlockCipherImplINS_13Rijndael_InfoENS_11BlockCipherEEC2ERKS3_
00000000001397c0 W _ZN8CryptoPP15BlockCipherImplINS_13Rijndael_InfoENS_11BlockCipherEEC2Ev
000000000013984e W _ZN8CryptoPP15BlockCipherImplINS_13Rijndael_InfoENS_11BlockCipherEED0Ev
0000000000139804 W _ZN8CryptoPP15BlockCipherImplINS_13Rijndael_InfoENS_11BlockCipherEED1Ev
0000000000139804 W _ZN8CryptoPP15BlockCipherImplINS_13Rijndael_InfoENS_11BlockCipherEED2Ev
0000000000134e84 W _ZN8CryptoPP15InvalidArgumentC1ERKNSt7__cxx1112basic_stringIcSt11char_traitsIcESaIcEEE
0000000000134e84 W _ZN8CryptoPP15InvalidArgumentC2ERKNSt7__cxx1112basic_stringIcSt11char_traitsIcESaIcEEE
0000000000134f70 W _ZN8CryptoPP15InvalidArgumentD0Ev
0000000000134f42 W _ZN8CryptoPP15InvalidArgumentD1Ev
0000000000134f42 W _ZN8CryptoPP15InvalidArgumentD2Ev
000000000013a81f W _ZN8CryptoPP15SecureWipeArrayIhEEvPT_m
000000000013b371 W _ZN8CryptoPP15SecureWipeArrayIjEEvPT_m
000000000013c100 W _ZN8CryptoPP16BlockCipherFinalILNS_9CipherDirE0ENS_8Rijndael3EncEEC1ERKS4_
0000000000139b92 W _ZN8CryptoPP16BlockCipherFinalILNS_9CipherDirE0ENS_8Rijndael3EncEEC1Ev
000000000013c100 W _ZN8CryptoPP16BlockCipherFinalILNS_9CipherDirE0ENS_8Rijndael3EncEEC2ERKS4_
0000000000139b92 W _ZN8CryptoPP16BlockCipherFinalILNS_9CipherDirE0ENS_8Rijndael3EncEEC2Ev
000000000013b956 W _ZN8CryptoPP16BlockCipherFinalILNS_9CipherDirE0ENS_8Rijndael3EncEED0Ev
000000000013b90c W _ZN8CryptoPP16BlockCipherFinalILNS_9CipherDirE0ENS_8Rijndael3EncEED1Ev
000000000013b90c W _ZN8CryptoPP16BlockCipherFinalILNS_9CipherDirE0ENS_8Rijndael3EncEED2Ev
00000000001369b3 W _ZN8CryptoPP16SecureWipeBufferIhEEvPT_m
0000000000136a2c W _ZN8CryptoPP16SecureWipeBufferIjEEvPT_m
00000000001369ef W _ZN8CryptoPP16SecureWipeBufferItEEvPT_m
                 U _ZN8CryptoPP17AlignedDeallocateEPv
0000000000137776 W _ZN8CryptoPP17FixedSizeSecBlockIhLj16ENS_29FixedSizeAllocatorWithCleanupIhLm16ENS_13NullAllocatorIhEELb1EEEED1Ev
0000000000137776 W _ZN8CryptoPP17FixedSizeSecBlockIhLj16ENS_29FixedSizeAllocatorWithCleanupIhLm16ENS_13NullAllocatorIhEELb1EEEED2Ev
00000000001377ae W _ZN8CryptoPP17FixedSizeSecBlockIhLj32ENS_29FixedSizeAllocatorWithCleanupIhLm32ENS_13NullAllocatorIhEELb1EEEED1Ev
00000000001377ae W _ZN8CryptoPP17FixedSizeSecBlockIhLj32ENS_29FixedSizeAllocatorWithCleanupIhLm32ENS_13NullAllocatorIhEELb1EEEED2Ev
000000000013bf4a W _ZN8CryptoPP17FixedSizeSecBlockIjLj60ENS_29FixedSizeAllocatorWithCleanupIjLm60ENS_13NullAllocatorIjEELb1EEEEC1ERKS5_
000000000013a5fa W _ZN8CryptoPP17FixedSizeSecBlockIjLj60ENS_29FixedSizeAllocatorWithCleanupIjLm60ENS_13NullAllocatorIjEELb1EEEEC1Ev
000000000013bf4a W _ZN8CryptoPP17FixedSizeSecBlockIjLj60ENS_29FixedSizeAllocatorWithCleanupIjLm60ENS_13NullAllocatorIjEELb1EEEEC2ERKS5_
000000000013a5fa W _ZN8CryptoPP17FixedSizeSecBlockIjLj60ENS_29FixedSizeAllocatorWithCleanupIjLm60ENS_13NullAllocatorIjEELb1EEEEC2Ev
0000000000139880 W _ZN8CryptoPP17FixedSizeSecBlockIjLj60ENS_29FixedSizeAllocatorWithCleanupIjLm60ENS_13NullAllocatorIjEELb1EEEED1Ev
0000000000139880 W _ZN8CryptoPP17FixedSizeSecBlockIjLj60ENS_29FixedSizeAllocatorWithCleanupIjLm60ENS_13NullAllocatorIjEELb1EEEED2Ev
                 U _ZN8CryptoPP17UnalignedAllocateEm
000000000013cb12 W _ZN8CryptoPP17VariableKeyLengthILj16ELj16ELj32ELj8ELj4ELj0EE23StaticGetValidKeyLengthEm
000000000013596e W _ZN8CryptoPP18HashTransformation12VerifyDigestEPKhS2_m
00000000001358c4 W _ZN8CryptoPP18HashTransformation15CalculateDigestEPhPKhm
                 U _ZN8CryptoPP18HashTransformation15TruncatedVerifyEPKhm
0000000000135806 W _ZN8CryptoPP18HashTransformation17CreateUpdateSpaceERm
0000000000135a24 W _ZN8CryptoPP18HashTransformation21VerifyTruncatedDigestEPKhmS2_m
00000000001359c6 W _ZN8CryptoPP18HashTransformation24CalculateTruncatedDigestEPhmPKhm
0000000000135824 W _ZN8CryptoPP18HashTransformation5FinalEPh
000000000013591c W _ZN8CryptoPP18HashTransformation6VerifyEPKh
0000000000135874 W _ZN8CryptoPP18HashTransformation7RestartEv
0000000000137962 W _ZN8CryptoPP18HashTransformationC1Ev
0000000000137962 W _ZN8CryptoPP18HashTransformationC2Ev
00000000001357da W _ZN8CryptoPP18HashTransformationD0Ev
00000000001357ac W _ZN8CryptoPP18HashTransformationD1Ev
00000000001357ac W _ZN8CryptoPP18HashTransformationD2Ev
0000000000134fe6 W _ZN8CryptoPP18NullNameValuePairsC1Ev
0000000000134fe6 W _ZN8CryptoPP18NullNameValuePairsC2Ev
000000000013ba32 W _ZN8CryptoPP18NullNameValuePairsD0Ev
000000000013ba04 W _ZN8CryptoPP18NullNameValuePairsD1Ev
000000000013ba04 W _ZN8CryptoPP18NullNameValuePairsD2Ev
                 U _ZN8CryptoPP18StringSinkTemplateINSt7__cxx1112basic_stringIcSt11char_traitsIcESaIcEEEEC1ERS6_
                 U _ZN8CryptoPP19AlgorithmParametersC1ERKS0_
                 U _ZN8CryptoPP19AlgorithmParametersC1Ev
0000000000139d8e W _ZN8CryptoPP19AlgorithmParametersclINS_23ConstByteArrayParameterEEERS0_PKcRKT_b
000000000013ba9c W _ZN8CryptoPP19AlgorithmParametersD0Ev
000000000013ba5e W _ZN8CryptoPP19AlgorithmParametersD1Ev
000000000013ba5e W _ZN8CryptoPP19AlgorithmParametersD2Ev
000000000013bd70 W _ZN8CryptoPP19BlockTransformationC1ERKS0_
00000000001394da W _ZN8CryptoPP19BlockTransformationC1Ev
000000000013bd70 W _ZN8CryptoPP19BlockTransformationC2ERKS0_
00000000001394da W _ZN8CryptoPP19BlockTransformationC2Ev
00000000001354b2 W _ZN8CryptoPP19BlockTransformationD0Ev
0000000000135484 W _ZN8CryptoPP19BlockTransformationD1Ev
0000000000135484 W _ZN8CryptoPP19BlockTransformationD2Ev
                 U _ZN8CryptoPP19UnalignedDeallocateEPv
                 U _ZN8CryptoPP20AllocatorWithCleanupIhLb0EE10deallocateEPvm
                 U _ZN8CryptoPP20AllocatorWithCleanupIhLb0EE10reallocateEPhmmb
                 U _ZN8CryptoPP20AllocatorWithCleanupIhLb0EE8allocateEmPKv
000000000013a5b0 W _ZN8CryptoPP20AllocatorWithCleanupIhLb1EE10deallocateEPvm
000000000013a422 W _ZN8CryptoPP20AllocatorWithCleanupIhLb1EE8allocateEmPKv
                 U _ZN8CryptoPP20AutoSeededRandomPool6ReseedEbj
00000000001378cc W _ZN8CryptoPP20AutoSeededRandomPoolC1Ebj
00000000001378cc W _ZN8CryptoPP20AutoSeededRandomPoolC2Ebj
00000000001378a0 W _ZN8CryptoPP20AutoSeededRandomPoolD0Ev
0000000000137872 W _ZN8CryptoPP20AutoSeededRandomPoolD1Ev
0000000000137872 W _ZN8CryptoPP20AutoSeededRandomPoolD2Ev
000000000013c284 W _ZN8CryptoPP20ConcretePolicyHolderINS_5EmptyENS_22AdditiveCipherTemplateINS_20AbstractPolicyHolderINS_28AdditiveCipherAbstractPolicyENS_14CTR_ModePolicyEEEEES4_E12AccessPolicyEv
000000000013949c W _ZN8CryptoPP20ConcretePolicyHolderINS_5EmptyENS_22AdditiveCipherTemplateINS_20AbstractPolicyHolderINS_28AdditiveCipherAbstractPolicyENS_14CTR_ModePolicyEEEEES4_ED0Ev
0000000000139418 W _ZN8CryptoPP20ConcretePolicyHolderINS_5EmptyENS_22AdditiveCipherTemplateINS_20AbstractPolicyHolderINS_28AdditiveCipherAbstractPolicyENS_14CTR_ModePolicyEEEEES4_ED1Ev
0000000000139418 W _ZN8CryptoPP20ConcretePolicyHolderINS_5EmptyENS_22AdditiveCipherTemplateINS_20AbstractPolicyHolderINS_28AdditiveCipherAbstractPolicyENS_14CTR_ModePolicyEEEEES4_ED2Ev
0000000000136e76 W _ZN8CryptoPP20FilterPutSpaceHelperD0Ev
0000000000136e44 W _ZN8CryptoPP20FilterPutSpaceHelperD1Ev
0000000000136e44 W _ZN8CryptoPP20FilterPutSpaceHelperD2Ev
                 U _ZN8CryptoPP20StreamTransformation16ProcessLastBlockEPhmPKhm
00000000001355be W _ZN8CryptoPP20StreamTransformation4SeekEm
0000000000137a08 W _ZN8CryptoPP20StreamTransformationC1Ev
0000000000137a08 W _ZN8CryptoPP20StreamTransformationC2Ev
000000000013552c W _ZN8CryptoPP20StreamTransformationD0Ev
00000000001354fe W _ZN8CryptoPP20StreamTransformationD1Ev
00000000001354fe W _ZN8CryptoPP20StreamTransformationD2Ev
                 U _ZN8CryptoPP21RandomNumberGenerator11GenerateBitEv
                 U _ZN8CryptoPP21RandomNumberGenerator12DiscardBytesEm
                 U _ZN8CryptoPP21RandomNumberGenerator12GenerateByteEv
                 U _ZN8CryptoPP21RandomNumberGenerator13GenerateBlockEPhm
                 U _ZN8CryptoPP21RandomNumberGenerator14GenerateWord32Ejj
0000000000135c96 W _ZN8CryptoPP21RandomNumberGenerator18IncorporateEntropyEPKhm
                 U _ZN8CryptoPP21RandomNumberGenerator34GenerateIntoBufferedTransformationERNS_22BufferedTransformationERKNSt7__cxx1112basic_stringIcSt11char_traitsIcESaIcEEEm
0000000000135c6a W _ZN8CryptoPP21RandomNumberGeneratorD0Ev
0000000000135c3c W _ZN8CryptoPP21RandomNumberGeneratorD1Ev
0000000000135c3c W _ZN8CryptoPP21RandomNumberGeneratorD2Ev
                 U _ZN8CryptoPP21SimpleKeyingInterface12SetKeyWithIVEPKhmS2_m
000000000013539e W _ZN8CryptoPP21SimpleKeyingInterface13ResynchronizeEPKhi
                 U _ZN8CryptoPP21SimpleKeyingInterface6SetKeyEPKhmRKNS_14NameValuePairsE
                 U _ZN8CryptoPP21SimpleKeyingInterface9GetNextIVERNS_21RandomNumberGeneratorEPh
000000000013bcf4 W _ZN8CryptoPP21SimpleKeyingInterfaceC1ERKS0_
0000000000137944 W _ZN8CryptoPP21SimpleKeyingInterfaceC1Ev
000000000013bcf4 W _ZN8CryptoPP21SimpleKeyingInterfaceC2ERKS0_
0000000000137944 W _ZN8CryptoPP21SimpleKeyingInterfaceC2Ev
0000000000135210 W _ZN8CryptoPP21SimpleKeyingInterfaceD0Ev
00000000001351f2 W _ZN8CryptoPP21SimpleKeyingInterfaceD1Ev
00000000001351f2 W _ZN8CryptoPP21SimpleKeyingInterfaceD2Ev
                 U _ZN8CryptoPP22AdditiveCipherTemplateINS_20AbstractPolicyHolderINS_28AdditiveCipherAbstractPolicyENS_14CTR_ModePolicyEEEE11ProcessDataEPhPKhm
                 U _ZN8CryptoPP22AdditiveCipherTemplateINS_20AbstractPolicyHolderINS_28AdditiveCipherAbstractPolicyENS_14CTR_ModePolicyEEEE13GenerateBlockEPhm
                 U _ZN8CryptoPP22AdditiveCipherTemplateINS_20AbstractPolicyHolderINS_28AdditiveCipherAbstractPolicyENS_14CTR_ModePolicyEEEE13ResynchronizeEPKhi
                 U _ZN8CryptoPP22AdditiveCipherTemplateINS_20AbstractPolicyHolderINS_28AdditiveCipherAbstractPolicyENS_14CTR_ModePolicyEEEE15UncheckedSetKeyEPKhjRKNS_14NameValuePairsE
                 U _ZN8CryptoPP22AdditiveCipherTemplateINS_20AbstractPolicyHolderINS_28AdditiveCipherAbstractPolicyENS_14CTR_ModePolicyEEEE4SeekEm
                 U _ZN8CryptoPP22AdditiveCipherTemplateINS_20AbstractPolicyHolderINS_28AdditiveCipherAbstractPolicyENS_14CTR_ModePolicyEEEED2Ev
00000000001360b0 W _ZN8CryptoPP22BufferedTransformation10AttachableEv
                 U _ZN8CryptoPP22BufferedTransformation10InitializeERKNS_14NameValuePairsEi
                 U _ZN8CryptoPP22BufferedTransformation11ChannelPut2ERKNSt7__cxx1112basic_stringIcSt11char_traitsIcESaIcEEEPKhmib
                 U _ZN8CryptoPP22BufferedTransformation12ChannelFlushERKNSt7__cxx1112basic_stringIcSt11char_traitsIcESaIcEEEbib
                 U _ZN8CryptoPP22BufferedTransformation12SkipMessagesEj
0000000000135eb0 W _ZN8CryptoPP22BufferedTransformation14CreatePutSpaceERm
                 U _ZN8CryptoPP22BufferedTransformation14GetNextMessageEv
                 U _ZN8CryptoPP22BufferedTransformation14GetWaitObjectsERNS_19WaitObjectContainerERKNS_9CallStackE
0000000000135ede W _ZN8CryptoPP22BufferedTransformation14PutModifiable2EPhmib
                 U _ZN8CryptoPP22BufferedTransformation14TransferAllTo2ERS0_RKNSt7__cxx1112basic_stringIcSt11char_traitsIcESaIcEEEb
                 U _ZN8CryptoPP22BufferedTransformation16MessageSeriesEndEib
0000000000135f7c W _ZN8CryptoPP22BufferedTransformation18IsolatedInitializeERKNS_14NameValuePairsE
                 U _ZN8CryptoPP22BufferedTransformation19SetRetrievalChannelERKNSt7__cxx1112basic_stringIcSt11char_traitsIcESaIcEEE
                 U _ZN8CryptoPP22BufferedTransformation19TransferMessagesTo2ERS0_RjRKNSt7__cxx1112basic_stringIcSt11char_traitsIcESaIcEEEb
0000000000136068 W _ZN8CryptoPP22BufferedTransformation20GetNextMessageSeriesEv
                 U _ZN8CryptoPP22BufferedTransformation21ChannelCreatePutSpaceERKNSt7__cxx1112basic_stringIcSt11char_traitsIcESaIcEEERm
                 U _ZN8CryptoPP22BufferedTransformation21ChannelPutModifiable2ERKNSt7__cxx1112basic_stringIcSt11char_traitsIcESaIcEEEPhmib
00000000001360c0 W _ZN8CryptoPP22BufferedTransformation22AttachedTransformationEv
                 U _ZN8CryptoPP22BufferedTransformation23ChannelMessageSeriesEndERKNSt7__cxx1112basic_stringIcSt11char_traitsIcESaIcEEEib
0000000000136036 W _ZN8CryptoPP22BufferedTransformation24IsolatedMessageSeriesEndEb
000000000013604a W _ZN8CryptoPP22BufferedTransformation24SetAutoSignalPropagationEi
                 U _ZN8CryptoPP22BufferedTransformation3GetEPhm
                 U _ZN8CryptoPP22BufferedTransformation3GetERh
                 U _ZN8CryptoPP22BufferedTransformation4SkipEm
                 U _ZN8CryptoPP22BufferedTransformation5FlushEbib
                 U _ZN8CryptoPP22BufferedTransformation6AttachEPS0_
000000000013623a W _ZN8CryptoPP22BufferedTransformation6DetachEPS0_
                 U _ZN8CryptoPP22BufferedTransformation7SkipAllEv
0000000000135e58 W _ZN8CryptoPP22BufferedTransformationC1Ev
0000000000135e58 W _ZN8CryptoPP22BufferedTransformationC2Ev
0000000000135e08 W _ZN8CryptoPP22BufferedTransformationD0Ev
0000000000135dae W _ZN8CryptoPP22BufferedTransformationD1Ev
0000000000135dae W _ZN8CryptoPP22BufferedTransformationD2Ev
000000000013c7a2 W _ZN8CryptoPP22CustomFlushPropagationINS_4SinkEE13IsolatedFlushEbb
00000000001371aa W _ZN8CryptoPP22CustomFlushPropagationINS_4SinkEEC1Ev
00000000001371aa W _ZN8CryptoPP22CustomFlushPropagationINS_4SinkEEC2Ev
000000000013705e W _ZN8CryptoPP22HashVerificationFilterD0Ev
0000000000137002 W _ZN8CryptoPP22HashVerificationFilterD1Ev
0000000000137002 W _ZN8CryptoPP22HashVerificationFilterD2Ev
0000000000136d26 W _ZN8CryptoPP23ConstByteArrayParameter6AssignEPKhmb
0000000000136c82 W _ZN8CryptoPP23ConstByteArrayParameterC1EPKcb
000000000013916e W _ZN8CryptoPP23ConstByteArrayParameterC1INSt7__cxx1112basic_stringIcSt11char_traitsIcESaIcEEEEERKT_b
0000000000136c82 W _ZN8CryptoPP23ConstByteArrayParameterC2EPKcb
000000000013916e W _ZN8CryptoPP23ConstByteArrayParameterC2INSt7__cxx1112basic_stringIcSt11char_traitsIcESaIcEEEEERKT_b
000000000013730e W _ZN8CryptoPP23ConstByteArrayParameterD1Ev
000000000013730e W _ZN8CryptoPP23ConstByteArrayParameterD2Ev
000000000013c674 W _ZN8CryptoPP23CustomSignalPropagationINS_4SinkEE18IsolatedInitializeERKNS_14NameValuePairsE
00000000001371ee W _ZN8CryptoPP23CustomSignalPropagationINS_4SinkEEC1Ev
00000000001371ee W _ZN8CryptoPP23CustomSignalPropagationINS_4SinkEEC2Ev
0000000000136ea2 W _ZN8CryptoPP23FilterWithBufferedInput10BlockQueueD1Ev
0000000000136ea2 W _ZN8CryptoPP23FilterWithBufferedInput10BlockQueueD2Ev
0000000000136f18 W _ZN8CryptoPP23FilterWithBufferedInputD0Ev
0000000000136ebe W _ZN8CryptoPP23FilterWithBufferedInputD1Ev
0000000000136ebe W _ZN8CryptoPP23FilterWithBufferedInputD2Ev
0000000000137792 W _ZN8CryptoPP24FixedSizeAlignedSecBlockIhLj16ELb1EED1Ev
0000000000137792 W _ZN8CryptoPP24FixedSizeAlignedSecBlockIhLj16ELb1EED2Ev
00000000001377ca W _ZN8CryptoPP24FixedSizeAlignedSecBlockIhLj32ELb1EED1Ev
00000000001377ca W _ZN8CryptoPP24FixedSizeAlignedSecBlockIhLj32ELb1EED2Ev
000000000013bf70 W _ZN8CryptoPP24FixedSizeAlignedSecBlockIjLj60ELb1EEC1ERKS1_
000000000013989c W _ZN8CryptoPP24FixedSizeAlignedSecBlockIjLj60ELb1EEC1Ev
000000000013bf70 W _ZN8CryptoPP24FixedSizeAlignedSecBlockIjLj60ELb1EEC2ERKS1_
000000000013989c W _ZN8CryptoPP24FixedSizeAlignedSecBlockIjLj60ELb1EEC2Ev
00000000001398b8 W _ZN8CryptoPP24FixedSizeAlignedSecBlockIjLj60ELb1EED1Ev
00000000001398b8 W _ZN8CryptoPP24FixedSizeAlignedSecBlockIjLj60ELb1EED2Ev
000000000013c1cc W _ZN8CryptoPP24ModePolicyCommonTemplateINS_28AdditiveCipherAbstractPolicyEE12CipherSetKeyERKNS_14NameValuePairsEPKhm
0000000000137994 W _ZN8CryptoPP25MessageAuthenticationCodeC1Ev
0000000000137994 W _ZN8CryptoPP25MessageAuthenticationCodeC2Ev
0000000000135b12 W _ZN8CryptoPP25MessageAuthenticationCodeD0Ev
0000000000135ab8 W _ZN8CryptoPP25MessageAuthenticationCodeD1Ev
0000000000135ab8 W _ZN8CryptoPP25MessageAuthenticationCodeD2Ev
000000000013be60 W _ZN8CryptoPP25SimpleKeyingInterfaceImplINS_8TwoBasesINS_11BlockCipherENS_13Rijndael_InfoEEES4_EC1ERKS5_
0000000000139640 W _ZN8CryptoPP25SimpleKeyingInterfaceImplINS_8TwoBasesINS_11BlockCipherENS_13Rijndael_InfoEEES4_EC1Ev
000000000013be60 W _ZN8CryptoPP25SimpleKeyingInterfaceImplINS_8TwoBasesINS_11BlockCipherENS_13Rijndael_InfoEEES4_EC2ERKS5_
0000000000139640 W _ZN8CryptoPP25SimpleKeyingInterfaceImplINS_8TwoBasesINS_11BlockCipherENS_13Rijndael_InfoEEES4_EC2Ev
00000000001396ce W _ZN8CryptoPP25SimpleKeyingInterfaceImplINS_8TwoBasesINS_11BlockCipherENS_13Rijndael_InfoEEES4_ED0Ev
0000000000139684 W _ZN8CryptoPP25SimpleKeyingInterfaceImplINS_8TwoBasesINS_11BlockCipherENS_13Rijndael_InfoEEES4_ED1Ev
0000000000139684 W _ZN8CryptoPP25SimpleKeyingInterfaceImplINS_8TwoBasesINS_11BlockCipherENS_13Rijndael_InfoEEES4_ED2Ev
0000000000136fc8 W _ZN8CryptoPP26StreamTransformationFilterD0Ev
0000000000136f4a W _ZN8CryptoPP26StreamTransformationFilterD1Ev
0000000000136f4a W _ZN8CryptoPP26StreamTransformationFilterD2Ev
                 U _ZN8CryptoPP27AlgorithmParametersTemplateINS_23ConstByteArrayParameterEEC1EPKcRKS1_b
                 U _ZN8CryptoPP28AuthenticatedSymmetricCipher16DecryptAndVerifyEPhPKhmS3_iS3_mS3_m
                 U _ZN8CryptoPP28AuthenticatedSymmetricCipher22EncryptAndAuthenticateEPhS1_mPKhiS3_mS3_m
0000000000135c24 W _ZN8CryptoPP28AuthenticatedSymmetricCipher27UncheckedSpecifyDataLengthsEmmm
0000000000137a3a W _ZN8CryptoPP28AuthenticatedSymmetricCipherC1Ev
0000000000137a3a W _ZN8CryptoPP28AuthenticatedSymmetricCipherC2Ev
0000000000135bba W _ZN8CryptoPP28AuthenticatedSymmetricCipherD0Ev
0000000000135b44 W _ZN8CryptoPP28AuthenticatedSymmetricCipherD1Ev
0000000000135b44 W _ZN8CryptoPP28AuthenticatedSymmetricCipherD2Ev
                 U _ZN8CryptoPP29AuthenticatedDecryptionFilterC1ERNS_28AuthenticatedSymmetricCipherEPNS_22BufferedTransformationEjiNS_21BlockPaddingSchemeDef18BlockPaddingSchemeE
0000000000137114 W _ZN8CryptoPP29AuthenticatedDecryptionFilterD0Ev
00000000001370a6 W _ZN8CryptoPP29AuthenticatedDecryptionFilterD1Ev
00000000001370a6 W _ZN8CryptoPP29AuthenticatedDecryptionFilterD2Ev
                 U _ZN8CryptoPP29AuthenticatedEncryptionFilterC1ERNS_28AuthenticatedSymmetricCipherEPNS_22BufferedTransformationEbiRKNSt7__cxx1112basic_stringIcSt11char_traitsIcESaIcEEENS_21BlockPaddingSchemeDef18BlockPaddingSchemeE
0000000000139e86 W _ZN8CryptoPP29FixedSizeAllocatorWithCleanupIhLm16ENS_13NullAllocatorIhEELb1EE10deallocateEPvm
000000000013a858 W _ZN8CryptoPP29FixedSizeAllocatorWithCleanupIhLm16ENS_13NullAllocatorIhEELb1EE15GetAlignedArrayEv
000000000013a154 W _ZN8CryptoPP29FixedSizeAllocatorWithCleanupIhLm32ENS_13NullAllocatorIhEELb1EE10deallocateEPvm
000000000013a9a8 W _ZN8CryptoPP29FixedSizeAllocatorWithCleanupIhLm32ENS_13NullAllocatorIhEELb1EE15GetAlignedArrayEv
000000000013aa2e W _ZN8CryptoPP29FixedSizeAllocatorWithCleanupIjLm60ENS_13NullAllocatorIjEELb1EE10deallocateEPvm
000000000013b356 W _ZN8CryptoPP29FixedSizeAllocatorWithCleanupIjLm60ENS_13NullAllocatorIjEELb1EE15GetAlignedArrayEv
000000000013b2da W _ZN8CryptoPP29FixedSizeAllocatorWithCleanupIjLm60ENS_13NullAllocatorIjEELb1EE8allocateEmPKv
000000000013b340 W _ZN8CryptoPP29FixedSizeAllocatorWithCleanupIjLm60ENS_13NullAllocatorIjEELb1EEC1Ev
000000000013b340 W _ZN8CryptoPP29FixedSizeAllocatorWithCleanupIjLm60ENS_13NullAllocatorIjEELb1EEC2Ev
                 U _ZN8CryptoPP32AuthenticatedSymmetricCipherBase11ProcessDataEPhPKhm
                 U _ZN8CryptoPP32AuthenticatedSymmetricCipherBase13ResynchronizeEPKhi
                 U _ZN8CryptoPP32AuthenticatedSymmetricCipherBase14TruncatedFinalEPhm
0000000000137be2 W _ZN8CryptoPP32AuthenticatedSymmetricCipherBase15UncheckedSetKeyEPKhjRKNS_14NameValuePairsE
                 U _ZN8CryptoPP32AuthenticatedSymmetricCipherBase6SetKeyEPKhmRKNS_14NameValuePairsE
                 U _ZN8CryptoPP32AuthenticatedSymmetricCipherBase6UpdateEPKhm
0000000000137bba W _ZN8CryptoPP32AuthenticatedSymmetricCipherBase7RestartEv
0000000000137ac4 W _ZN8CryptoPP32AuthenticatedSymmetricCipherBaseC1Ev
0000000000137ac4 W _ZN8CryptoPP32AuthenticatedSymmetricCipherBaseC2Ev
00000000001384e6 W _ZN8CryptoPP32AuthenticatedSymmetricCipherBaseD0Ev
0000000000138470 W _ZN8CryptoPP32AuthenticatedSymmetricCipherBaseD1Ev
0000000000138470 W _ZN8CryptoPP32AuthenticatedSymmetricCipherBaseD2Ev
                 U _ZN8CryptoPP38CipherModeFinalTemplate_ExternalCipherINS_20ConcretePolicyHolderINS_5EmptyENS_22AdditiveCipherTemplateINS_20AbstractPolicyHolderINS_28AdditiveCipherAbstractPolicyENS_14CTR_ModePolicyEEEEES5_EEEC2Ev
00000000001385a2 W _ZN8CryptoPP38CipherModeFinalTemplate_ExternalCipherINS_20ConcretePolicyHolderINS_5EmptyENS_22AdditiveCipherTemplateINS_20AbstractPolicyHolderINS_28AdditiveCipherAbstractPolicyENS_14CTR_ModePolicyEEEEES5_EEED0Ev
000000000013851e W _ZN8CryptoPP38CipherModeFinalTemplate_ExternalCipherINS_20ConcretePolicyHolderINS_5EmptyENS_22AdditiveCipherTemplateINS_20AbstractPolicyHolderINS_28AdditiveCipherAbstractPolicyENS_14CTR_ModePolicyEEEEES5_EEED1Ev
000000000013851e W _ZN8CryptoPP38CipherModeFinalTemplate_ExternalCipherINS_20ConcretePolicyHolderINS_5EmptyENS_22AdditiveCipherTemplateINS_20AbstractPolicyHolderINS_28AdditiveCipherAbstractPolicyENS_14CTR_ModePolicyEEEEES5_EEED2Ev
0000000000137937 W _ZN8CryptoPP4Name12FeedbackSizeEv
0000000000136bec W _ZN8CryptoPP4Sink11TransferTo2ERNS_22BufferedTransformationERmRKNSt7__cxx1112basic_stringIcSt11char_traitsIcESaIcEEEb
0000000000137166 W _ZN8CryptoPP4SinkC1Ev
0000000000137166 W _ZN8CryptoPP4SinkC2Ev
0000000000136bb0 W _ZN8CryptoPP5Store18IsolatedInitializeERKNS_14NameValuePairsE
0000000000136b60 W _ZN8CryptoPP5StoreC1Ev
0000000000136b60 W _ZN8CryptoPP5StoreC2Ev
00000000001372dc W _ZN8CryptoPP5StoreD0Ev
0000000000137292 W _ZN8CryptoPP5StoreD1Ev
0000000000137292 W _ZN8CryptoPP5StoreD2Ev
0000000000136e14 W _ZN8CryptoPP6Filter10AttachableEv
                 U _ZN8CryptoPP6Filter10InitializeERKNS_14NameValuePairsEi
                 U _ZN8CryptoPP6Filter11TransferTo2ERNS_22BufferedTransformationERmRKNSt7__cxx1112basic_stringIcSt11char_traitsIcESaIcEEEb
                 U _ZN8CryptoPP6Filter16MessageSeriesEndEib
                 U _ZN8CryptoPP6Filter22AttachedTransformationEv
                 U _ZN8CryptoPP6Filter5FlushEbib
                 U _ZN8CryptoPP6Filter6DetachEPNS_22BufferedTransformationE
                 U _ZN8CryptoPP6FilterC2EPNS_22BufferedTransformationE
0000000000136de2 W _ZN8CryptoPP6FilterD0Ev
0000000000136d88 W _ZN8CryptoPP6FilterD1Ev
0000000000136d88 W _ZN8CryptoPP6FilterD2Ev
0000000000137602 W _ZN8CryptoPP6Source16SourceInitializeEbRKNS_14NameValuePairsE
00000000001375d4 W _ZN8CryptoPP6Source7PumpAllEv
0000000000137558 W _ZN8CryptoPP6SourceC1EPNS_22BufferedTransformationE
0000000000137558 W _ZN8CryptoPP6SourceC2EPNS_22BufferedTransformationE
00000000001374de W _ZN8CryptoPP6SourceD0Ev
0000000000137494 W _ZN8CryptoPP6SourceD1Ev
0000000000137494 W _ZN8CryptoPP6SourceD2Ev
0000000000139d62 W _ZN8CryptoPP6STDMINImEERKT_S3_S3_
000000000013bd16 W _ZN8CryptoPP8ClonableC1ERKS0_
000000000013bd16 W _ZN8CryptoPP8ClonableC2ERKS0_
000000000013504e W _ZN8CryptoPP8ClonableD0Ev
0000000000135030 W _ZN8CryptoPP8ClonableD1Ev
0000000000135030 W _ZN8CryptoPP8ClonableD2Ev
                 U _ZN8CryptoPP8GCM_Base18AuthenticateBlocksEPKhm
                 U _ZN8CryptoPP8GCM_Base19SetKeyWithoutResyncEPKhmRKNS_14NameValuePairsE
0000000000138436 W _ZN8CryptoPP8GCM_Base21AccessSymmetricCipherEv
                 U _ZN8CryptoPP8GCM_Base27AuthenticateLastFooterBlockEPhm
                 U _ZN8CryptoPP8GCM_Base27AuthenticateLastHeaderBlockEv
                 U _ZN8CryptoPP8GCM_Base33AuthenticateLastConfidentialBlockEv
00000000001385e0 W _ZN8CryptoPP8GCM_Base4GCTRC1Ev
00000000001385e0 W _ZN8CryptoPP8GCM_Base4GCTRC2Ev
000000000013bb4c W _ZN8CryptoPP8GCM_Base4GCTRD0Ev
000000000013bac8 W _ZN8CryptoPP8GCM_Base4GCTRD1Ev
000000000013bac8 W _ZN8CryptoPP8GCM_Base4GCTRD2Ev
                 U _ZN8CryptoPP8GCM_Base6ResyncEPKhm
0000000000138650 W _ZN8CryptoPP8GCM_BaseC1Ev
0000000000138650 W _ZN8CryptoPP8GCM_BaseC2Ev
0000000000138750 W _ZN8CryptoPP8GCM_BaseD0Ev
00000000001386da W _ZN8CryptoPP8GCM_BaseD1Ev
00000000001386da W _ZN8CryptoPP8GCM_BaseD2Ev
000000000013642a W _ZN8CryptoPP8memcpy_sEPvmPKvm
000000000013c064 W _ZN8CryptoPP8Rijndael3EncC1ERKS1_
0000000000139a12 W _ZN8CryptoPP8Rijndael3EncC1Ev
000000000013c064 W _ZN8CryptoPP8Rijndael3EncC2ERKS1_
0000000000139a12 W _ZN8CryptoPP8Rijndael3EncC2Ev
0000000000139aa0 W _ZN8CryptoPP8Rijndael3EncD0Ev
0000000000139a56 W _ZN8CryptoPP8Rijndael3EncD1Ev
0000000000139a56 W _ZN8CryptoPP8Rijndael3EncD2Ev
                 U _ZN8CryptoPP8Rijndael4Base15UncheckedSetKeyEPKhjRKNS_14NameValuePairsE
000000000013bf96 W _ZN8CryptoPP8Rijndael4BaseC1ERKS1_
00000000001398d4 W _ZN8CryptoPP8Rijndael4BaseC1Ev
000000000013bf96 W _ZN8CryptoPP8Rijndael4BaseC2ERKS1_
00000000001398d4 W _ZN8CryptoPP8Rijndael4BaseC2Ev
00000000001399e0 W _ZN8CryptoPP8Rijndael4BaseD0Ev
0000000000139974 W _ZN8CryptoPP8Rijndael4BaseD1Ev
0000000000139974 W _ZN8CryptoPP8Rijndael4BaseD2Ev
0000000000138f02 W _ZN8CryptoPP8SecBlockIhNS_20AllocatorWithCleanupIhLb0EEEE3NewEm
0000000000138da2 W _ZN8CryptoPP8SecBlockIhNS_20AllocatorWithCleanupIhLb0EEEE6AssignEPKhm
0000000000138d0a W _ZN8CryptoPP8SecBlockIhNS_20AllocatorWithCleanupIhLb0EEEEC1Em
000000000013b0c4 W _ZN8CryptoPP8SecBlockIhNS_20AllocatorWithCleanupIhLb0EEEEC1ERKS3_
0000000000138d0a W _ZN8CryptoPP8SecBlockIhNS_20AllocatorWithCleanupIhLb0EEEEC2Em
000000000013b0c4 W _ZN8CryptoPP8SecBlockIhNS_20AllocatorWithCleanupIhLb0EEEEC2ERKS3_
0000000000138d58 W _ZN8CryptoPP8SecBlockIhNS_20AllocatorWithCleanupIhLb0EEEED1Ev
0000000000138d58 W _ZN8CryptoPP8SecBlockIhNS_20AllocatorWithCleanupIhLb0EEEED2Ev
000000000013936e W _ZN8CryptoPP8SecBlockIhNS_20AllocatorWithCleanupIhLb1EEEEC1Em
000000000013936e W _ZN8CryptoPP8SecBlockIhNS_20AllocatorWithCleanupIhLb1EEEEC2Em
00000000001393bc W _ZN8CryptoPP8SecBlockIhNS_20AllocatorWithCleanupIhLb1EEEED1Ev
00000000001393bc W _ZN8CryptoPP8SecBlockIhNS_20AllocatorWithCleanupIhLb1EEEED2Ev
0000000000139216 W _ZN8CryptoPP8SecBlockIhNS_29FixedSizeAllocatorWithCleanupIhLm16ENS_13NullAllocatorIhEELb1EEEED1Ev
0000000000139216 W _ZN8CryptoPP8SecBlockIhNS_29FixedSizeAllocatorWithCleanupIhLm16ENS_13NullAllocatorIhEELb1EEEED2Ev
0000000000139260 W _ZN8CryptoPP8SecBlockIhNS_29FixedSizeAllocatorWithCleanupIhLm32ENS_13NullAllocatorIhEELb1EEEED1Ev
0000000000139260 W _ZN8CryptoPP8SecBlockIhNS_29FixedSizeAllocatorWithCleanupIhLm32ENS_13NullAllocatorIhEELb1EEEED2Ev
000000000013a9c4 W _ZN8CryptoPP8SecBlockIjNS_29FixedSizeAllocatorWithCleanupIjLm60ENS_13NullAllocatorIjEELb1EEEEC1Em
000000000013cb44 W _ZN8CryptoPP8SecBlockIjNS_29FixedSizeAllocatorWithCleanupIjLm60ENS_13NullAllocatorIjEELb1EEEEC1ERKS5_
000000000013a9c4 W _ZN8CryptoPP8SecBlockIjNS_29FixedSizeAllocatorWithCleanupIjLm60ENS_13NullAllocatorIjEELb1EEEEC2Em
000000000013cb44 W _ZN8CryptoPP8SecBlockIjNS_29FixedSizeAllocatorWithCleanupIjLm60ENS_13NullAllocatorIjEELb1EEEEC2ERKS5_
000000000013a61a W _ZN8CryptoPP8SecBlockIjNS_29FixedSizeAllocatorWithCleanupIjLm60ENS_13NullAllocatorIjEELb1EEEED1Ev
000000000013a61a W _ZN8CryptoPP8SecBlockIjNS_29FixedSizeAllocatorWithCleanupIjLm60ENS_13NullAllocatorIjEELb1EEEED2Ev
000000000013be12 W _ZN8CryptoPP8TwoBasesINS_11BlockCipherENS_13Rijndael_InfoEEC1ERKS3_
0000000000139580 W _ZN8CryptoPP8TwoBasesINS_11BlockCipherENS_13Rijndael_InfoEEC1Ev
000000000013be12 W _ZN8CryptoPP8TwoBasesINS_11BlockCipherENS_13Rijndael_InfoEEC2ERKS3_
0000000000139580 W _ZN8CryptoPP8TwoBasesINS_11BlockCipherENS_13Rijndael_InfoEEC2Ev
000000000013960e W _ZN8CryptoPP8TwoBasesINS_11BlockCipherENS_13Rijndael_InfoEED0Ev
00000000001395c4 W _ZN8CryptoPP8TwoBasesINS_11BlockCipherENS_13Rijndael_InfoEED1Ev
00000000001395c4 W _ZN8CryptoPP8TwoBasesINS_11BlockCipherENS_13Rijndael_InfoEED2Ev
0000000000135e3a W _ZN8CryptoPP8WaitableC1Ev
0000000000135e3a W _ZN8CryptoPP8WaitableC2Ev
0000000000135d82 W _ZN8CryptoPP8WaitableD0Ev
0000000000135d64 W _ZN8CryptoPP8WaitableD1Ev
0000000000135d64 W _ZN8CryptoPP8WaitableD2Ev
000000000013bd38 W _ZN8CryptoPP9AlgorithmC1ERKS0_
                 U _ZN8CryptoPP9AlgorithmC2Eb
000000000013bd38 W _ZN8CryptoPP9AlgorithmC2ERKS0_
000000000013515e W _ZN8CryptoPP9AlgorithmD0Ev
0000000000135130 W _ZN8CryptoPP9AlgorithmD1Ev
0000000000135130 W _ZN8CryptoPP9AlgorithmD2Ev
0000000000134df0 W _ZN8CryptoPP9ExceptionC1ENS0_9ErrorTypeERKNSt7__cxx1112basic_stringIcSt11char_traitsIcESaIcEEE
0000000000134df0 W _ZN8CryptoPP9ExceptionC2ENS0_9ErrorTypeERKNSt7__cxx1112basic_stringIcSt11char_traitsIcESaIcEEE
0000000000134dc4 W _ZN8CryptoPP9ExceptionD0Ev
0000000000134d86 W _ZN8CryptoPP9ExceptionD1Ev
0000000000134d86 W _ZN8CryptoPP9ExceptionD2Ev
000000000013bb8a W _ZN8CryptoPP9GCM_FinalINS_8RijndaelELNS_16GCM_TablesOptionE0ELb0EE17AccessBlockCipherEv
0000000000138814 W _ZN8CryptoPP9GCM_FinalINS_8RijndaelELNS_16GCM_TablesOptionE0ELb0EEC1Ev
0000000000138814 W _ZN8CryptoPP9GCM_FinalINS_8RijndaelELNS_16GCM_TablesOptionE0ELb0EEC2Ev
000000000013b824 W _ZN8CryptoPP9GCM_FinalINS_8RijndaelELNS_16GCM_TablesOptionE0ELb0EED0Ev
000000000013b7ac W _ZN8CryptoPP9GCM_FinalINS_8RijndaelELNS_16GCM_TablesOptionE0ELb0EED1Ev
000000000013b7ac W _ZN8CryptoPP9GCM_FinalINS_8RijndaelELNS_16GCM_TablesOptionE0ELb0EED2Ev
000000000013bbc4 W _ZN8CryptoPP9GCM_FinalINS_8RijndaelELNS_16GCM_TablesOptionE0ELb1EE17AccessBlockCipherEv
0000000000138788 W _ZN8CryptoPP9GCM_FinalINS_8RijndaelELNS_16GCM_TablesOptionE0ELb1EEC1Ev
0000000000138788 W _ZN8CryptoPP9GCM_FinalINS_8RijndaelELNS_16GCM_TablesOptionE0ELb1EEC2Ev
000000000013b8d4 W _ZN8CryptoPP9GCM_FinalINS_8RijndaelELNS_16GCM_TablesOptionE0ELb1EED0Ev
000000000013b85c W _ZN8CryptoPP9GCM_FinalINS_8RijndaelELNS_16GCM_TablesOptionE0ELb1EED1Ev
000000000013b85c W _ZN8CryptoPP9GCM_FinalINS_8RijndaelELNS_16GCM_TablesOptionE0ELb1EED2Ev
000000000013188e W _ZN9__gnu_cxx11char_traitsIcE2eqERKcS3_
000000000015ce4f W _ZN9__gnu_cxx11char_traitsIcE2ltERKcS3_
0000000000131848 W _ZN9__gnu_cxx11char_traitsIcE6lengthEPKc
000000000015ce70 W _ZN9__gnu_cxx11char_traitsIcE7compareEPKcS3_m
0000000000133f96 W _ZN9__gnu_cxx13new_allocatorIcE10deallocateEPcm
0000000000133f3e W _ZN9__gnu_cxx13new_allocatorIcE8allocateEmPKv
0000000000133d32 W _ZN9__gnu_cxx13new_allocatorIhE10deallocateEPhm
0000000000133f14 W _ZN9__gnu_cxx13new_allocatorIhE7destroyIhEEvPT_
0000000000134076 W _ZN9__gnu_cxx13new_allocatorIhE8allocateEmPKv
0000000000133bf8 W _ZN9__gnu_cxx13new_allocatorIhE9constructIhJhEEEvPT_DpOT0_
00000000001336a8 W _ZN9__gnu_cxx13new_allocatorIhE9constructIhJRKhEEEvPT_DpOT0_
000000000013403a W _ZN9__gnu_cxx13new_allocatorIhEC1ERKS1_
0000000000132448 W _ZN9__gnu_cxx13new_allocatorIhEC1Ev
000000000013403a W _ZN9__gnu_cxx13new_allocatorIhEC2ERKS1_
0000000000132448 W _ZN9__gnu_cxx13new_allocatorIhEC2Ev
0000000000132454 W _ZN9__gnu_cxx13new_allocatorIhED1Ev
0000000000132454 W _ZN9__gnu_cxx13new_allocatorIhED2Ev
000000000014c32e W _ZN9__gnu_cxx13new_allocatorIiE10deallocateEPim
000000000014c350 W _ZN9__gnu_cxx13new_allocatorIiE7destroyIiEEvPT_
000000000014dc8a W _ZN9__gnu_cxx13new_allocatorIiE8allocateEmPKv
00000000001791dc W _ZN9__gnu_cxx13new_allocatorIiE9constructIiJiEEEvPT_DpOT0_
000000000014a100 W _ZN9__gnu_cxx13new_allocatorIiE9constructIiJRKiEEEvPT_DpOT0_
000000000014dcfa W _ZN9__gnu_cxx13new_allocatorIiEC1ERKS1_
000000000014dc7e W _ZN9__gnu_cxx13new_allocatorIiEC1Ev
000000000014dcfa W _ZN9__gnu_cxx13new_allocatorIiEC2ERKS1_
000000000014dc7e W _ZN9__gnu_cxx13new_allocatorIiEC2Ev
000000000014b556 W _ZN9__gnu_cxx13new_allocatorIiED1Ev
000000000014b556 W _ZN9__gnu_cxx13new_allocatorIiED2Ev
000000000018f44a W _ZN9__gnu_cxx13new_allocatorIN2us3gov4cash2tx7input_tEE10deallocateEPS5_m
000000000018f7bc W _ZN9__gnu_cxx13new_allocatorIN2us3gov4cash2tx7input_tEE7destroyIS5_EEvPT_
000000000018f83c W _ZN9__gnu_cxx13new_allocatorIN2us3gov4cash2tx7input_tEE8allocateEmPKv
000000000018efa8 W _ZN9__gnu_cxx13new_allocatorIN2us3gov4cash2tx7input_tEE9constructIS5_JS5_EEEvPT_DpOT0_
000000000018f81c W _ZN9__gnu_cxx13new_allocatorIN2us3gov4cash2tx7input_tEEC1ERKS6_
000000000018f7dc W _ZN9__gnu_cxx13new_allocatorIN2us3gov4cash2tx7input_tEEC1Ev
000000000018f81c W _ZN9__gnu_cxx13new_allocatorIN2us3gov4cash2tx7input_tEEC2ERKS6_
000000000018f7dc W _ZN9__gnu_cxx13new_allocatorIN2us3gov4cash2tx7input_tEEC2Ev
000000000018f254 W _ZN9__gnu_cxx13new_allocatorIN2us3gov4cash2tx7input_tEED1Ev
000000000018f254 W _ZN9__gnu_cxx13new_allocatorIN2us3gov4cash2tx7input_tEED2Ev
000000000018f4dc W _ZN9__gnu_cxx13new_allocatorIN2us3gov4cash2tx8output_tEE10deallocateEPS5_m
000000000018fa30 W _ZN9__gnu_cxx13new_allocatorIN2us3gov4cash2tx8output_tEE7destroyIS5_EEvPT_
000000000018f936 W _ZN9__gnu_cxx13new_allocatorIN2us3gov4cash2tx8output_tEE8allocateEmPKv
000000000018f4fe W _ZN9__gnu_cxx13new_allocatorIN2us3gov4cash2tx8output_tEE9constructIS5_JS5_EEEvPT_DpOT0_
000000000018f82c W _ZN9__gnu_cxx13new_allocatorIN2us3gov4cash2tx8output_tEEC1ERKS6_
000000000018f810 W _ZN9__gnu_cxx13new_allocatorIN2us3gov4cash2tx8output_tEEC1Ev
000000000018f82c W _ZN9__gnu_cxx13new_allocatorIN2us3gov4cash2tx8output_tEEC2ERKS6_
000000000018f810 W _ZN9__gnu_cxx13new_allocatorIN2us3gov4cash2tx8output_tEEC2Ev
000000000018f2b4 W _ZN9__gnu_cxx13new_allocatorIN2us3gov4cash2tx8output_tEED1Ev
000000000018f2b4 W _ZN9__gnu_cxx13new_allocatorIN2us3gov4cash2tx8output_tEED2Ev
0000000000181366 W _ZN9__gnu_cxx13new_allocatorIN2us3gov6crypto9ripemd16010value_typeEE10deallocateEPS5_m
0000000000160fdc W _ZN9__gnu_cxx13new_allocatorIN2us3gov6crypto9ripemd16010value_typeEE7destroyIS5_EEvPT_
00000000001813b0 W _ZN9__gnu_cxx13new_allocatorIN2us3gov6crypto9ripemd16010value_typeEE8allocateEmPKv
000000000017df46 W _ZN9__gnu_cxx13new_allocatorIN2us3gov6crypto9ripemd16010value_typeEE9constructIS5_JRKS5_EEEvPT_DpOT0_
000000000016113a W _ZN9__gnu_cxx13new_allocatorIN2us3gov6crypto9ripemd16010value_typeEE9constructIS5_JRS5_EEEvPT_DpOT0_
0000000000192b8e W _ZN9__gnu_cxx13new_allocatorIN2us3gov6crypto9ripemd16010value_typeEE9constructIS5_JS5_EEEvPT_DpOT0_
0000000000194b54 W _ZN9__gnu_cxx13new_allocatorIN2us3gov6crypto9ripemd16010value_typeEEC1ERKS6_
0000000000160faa W _ZN9__gnu_cxx13new_allocatorIN2us3gov6crypto9ripemd16010value_typeEEC1Ev
0000000000194b54 W _ZN9__gnu_cxx13new_allocatorIN2us3gov6crypto9ripemd16010value_typeEEC2ERKS6_
0000000000160faa W _ZN9__gnu_cxx13new_allocatorIN2us3gov6crypto9ripemd16010value_typeEEC2Ev
0000000000160fb6 W _ZN9__gnu_cxx13new_allocatorIN2us3gov6crypto9ripemd16010value_typeEED1Ev
0000000000160fb6 W _ZN9__gnu_cxx13new_allocatorIN2us3gov6crypto9ripemd16010value_typeEED2Ev
0000000000150518 W _ZN9__gnu_cxx13new_allocatorINSt7__cxx1112basic_stringIcSt11char_traitsIcESaIcEEEE10deallocateEPS6_m
000000000015053a W _ZN9__gnu_cxx13new_allocatorINSt7__cxx1112basic_stringIcSt11char_traitsIcESaIcEEEE7destroyIS6_EEvPT_
0000000000150614 W _ZN9__gnu_cxx13new_allocatorINSt7__cxx1112basic_stringIcSt11char_traitsIcESaIcEEEE8allocateEmPKv
0000000000172588 W _ZN9__gnu_cxx13new_allocatorINSt7__cxx1112basic_stringIcSt11char_traitsIcESaIcEEEE9constructIS6_JRKS6_EEEvPT_DpOT0_
00000000001613b4 W _ZN9__gnu_cxx13new_allocatorINSt7__cxx1112basic_stringIcSt11char_traitsIcESaIcEEEE9constructIS6_JRS6_EEEvPT_DpOT0_
0000000000150116 W _ZN9__gnu_cxx13new_allocatorINSt7__cxx1112basic_stringIcSt11char_traitsIcESaIcEEEE9constructIS6_JS6_EEEvPT_DpOT0_
0000000000150704 W _ZN9__gnu_cxx13new_allocatorINSt7__cxx1112basic_stringIcSt11char_traitsIcESaIcEEEEC1ERKS7_
00000000001505e0 W _ZN9__gnu_cxx13new_allocatorINSt7__cxx1112basic_stringIcSt11char_traitsIcESaIcEEEEC1Ev
0000000000150704 W _ZN9__gnu_cxx13new_allocatorINSt7__cxx1112basic_stringIcSt11char_traitsIcESaIcEEEEC2ERKS7_
00000000001505e0 W _ZN9__gnu_cxx13new_allocatorINSt7__cxx1112basic_stringIcSt11char_traitsIcESaIcEEEEC2Ev
0000000000150464 W _ZN9__gnu_cxx13new_allocatorINSt7__cxx1112basic_stringIcSt11char_traitsIcESaIcEEEED1Ev
0000000000150464 W _ZN9__gnu_cxx13new_allocatorINSt7__cxx1112basic_stringIcSt11char_traitsIcESaIcEEEED2Ev
0000000000178988 W _ZN9__gnu_cxx13new_allocatorINSt8__detail10_Hash_nodeIiLb0EEEE10deallocateEPS3_m
000000000017919a W _ZN9__gnu_cxx13new_allocatorINSt8__detail10_Hash_nodeIiLb0EEEE8allocateEmPKv
0000000000174814 W _ZN9__gnu_cxx13new_allocatorINSt8__detail10_Hash_nodeIiLb0EEEEC1Ev
0000000000174814 W _ZN9__gnu_cxx13new_allocatorINSt8__detail10_Hash_nodeIiLb0EEEEC2Ev
0000000000174820 W _ZN9__gnu_cxx13new_allocatorINSt8__detail10_Hash_nodeIiLb0EEEED1Ev
0000000000174820 W _ZN9__gnu_cxx13new_allocatorINSt8__detail10_Hash_nodeIiLb0EEEED2Ev
0000000000160fec W _ZN9__gnu_cxx13new_allocatorINSt8__detail10_Hash_nodeIN2us3gov6crypto9ripemd16010value_typeELb1EEEE10deallocateEPS8_m
00000000001610ee W _ZN9__gnu_cxx13new_allocatorINSt8__detail10_Hash_nodeIN2us3gov6crypto9ripemd16010value_typeELb1EEEE8allocateEmPKv
000000000015dacc W _ZN9__gnu_cxx13new_allocatorINSt8__detail10_Hash_nodeIN2us3gov6crypto9ripemd16010value_typeELb1EEEEC1Ev
000000000015dacc W _ZN9__gnu_cxx13new_allocatorINSt8__detail10_Hash_nodeIN2us3gov6crypto9ripemd16010value_typeELb1EEEEC2Ev
000000000015dad8 W _ZN9__gnu_cxx13new_allocatorINSt8__detail10_Hash_nodeIN2us3gov6crypto9ripemd16010value_typeELb1EEEED1Ev
000000000015dad8 W _ZN9__gnu_cxx13new_allocatorINSt8__detail10_Hash_nodeIN2us3gov6crypto9ripemd16010value_typeELb1EEEED2Ev
0000000000161346 W _ZN9__gnu_cxx13new_allocatorINSt8__detail10_Hash_nodeINSt7__cxx1112basic_stringIcSt11char_traitsIcESaIcEEELb1EEEE10deallocateEPS9_m
0000000000161368 W _ZN9__gnu_cxx13new_allocatorINSt8__detail10_Hash_nodeINSt7__cxx1112basic_stringIcSt11char_traitsIcESaIcEEELb1EEEE8allocateEmPKv
000000000015e046 W _ZN9__gnu_cxx13new_allocatorINSt8__detail10_Hash_nodeINSt7__cxx1112basic_stringIcSt11char_traitsIcESaIcEEELb1EEEEC1Ev
000000000015e046 W _ZN9__gnu_cxx13new_allocatorINSt8__detail10_Hash_nodeINSt7__cxx1112basic_stringIcSt11char_traitsIcESaIcEEELb1EEEEC2Ev
000000000015e052 W _ZN9__gnu_cxx13new_allocatorINSt8__detail10_Hash_nodeINSt7__cxx1112basic_stringIcSt11char_traitsIcESaIcEEELb1EEEED1Ev
000000000015e052 W _ZN9__gnu_cxx13new_allocatorINSt8__detail10_Hash_nodeINSt7__cxx1112basic_stringIcSt11char_traitsIcESaIcEEELb1EEEED2Ev
000000000014e30e W _ZN9__gnu_cxx13new_allocatorINSt8__detail10_Hash_nodeIPN2us3gov14signal_handler8callbackELb0EEEE10deallocateEPS8_m
000000000014e25a W _ZN9__gnu_cxx13new_allocatorINSt8__detail10_Hash_nodeIPN2us3gov14signal_handler8callbackELb0EEEE8allocateEmPKv
000000000019a3f4 W _ZN9__gnu_cxx13new_allocatorINSt8__detail10_Hash_nodeIPN2us3gov14signal_handler8callbackELb0EEEEC1Ev
000000000019a3f4 W _ZN9__gnu_cxx13new_allocatorINSt8__detail10_Hash_nodeIPN2us3gov14signal_handler8callbackELb0EEEEC2Ev
000000000019a400 W _ZN9__gnu_cxx13new_allocatorINSt8__detail10_Hash_nodeIPN2us3gov14signal_handler8callbackELb0EEEED1Ev
000000000019a400 W _ZN9__gnu_cxx13new_allocatorINSt8__detail10_Hash_nodeIPN2us3gov14signal_handler8callbackELb0EEEED2Ev
000000000014bbfa W _ZN9__gnu_cxx13new_allocatorINSt8__detail10_Hash_nodeIPN2us3gov6socket6clientELb0EEEE10deallocateEPS8_m
000000000014bb92 W _ZN9__gnu_cxx13new_allocatorINSt8__detail10_Hash_nodeIPN2us3gov6socket6clientELb0EEEE8allocateEmPKv
000000000014670a W _ZN9__gnu_cxx13new_allocatorINSt8__detail10_Hash_nodeIPN2us3gov6socket6clientELb0EEEEC1Ev
000000000014670a W _ZN9__gnu_cxx13new_allocatorINSt8__detail10_Hash_nodeIPN2us3gov6socket6clientELb0EEEEC2Ev
0000000000146716 W _ZN9__gnu_cxx13new_allocatorINSt8__detail10_Hash_nodeIPN2us3gov6socket6clientELb0EEEED1Ev
0000000000146716 W _ZN9__gnu_cxx13new_allocatorINSt8__detail10_Hash_nodeIPN2us3gov6socket6clientELb0EEEED2Ev
0000000000181eb6 W _ZN9__gnu_cxx13new_allocatorINSt8__detail10_Hash_nodeISt4pairIKiPN2us3gov10blockchain3appEELb0EEEE10deallocateEPSB_m
00000000001820fc W _ZN9__gnu_cxx13new_allocatorINSt8__detail10_Hash_nodeISt4pairIKiPN2us3gov10blockchain3appEELb0EEEE8allocateEmPKv
000000000017b9f2 W _ZN9__gnu_cxx13new_allocatorINSt8__detail10_Hash_nodeISt4pairIKiPN2us3gov10blockchain3appEELb0EEEEC1Ev
000000000017b9f2 W _ZN9__gnu_cxx13new_allocatorINSt8__detail10_Hash_nodeISt4pairIKiPN2us3gov10blockchain3appEELb0EEEEC2Ev
000000000017b9fe W _ZN9__gnu_cxx13new_allocatorINSt8__detail10_Hash_nodeISt4pairIKiPN2us3gov10blockchain3appEELb0EEEED1Ev
000000000017b9fe W _ZN9__gnu_cxx13new_allocatorINSt8__detail10_Hash_nodeISt4pairIKiPN2us3gov10blockchain3appEELb0EEEED2Ev
000000000014be74 W _ZN9__gnu_cxx13new_allocatorINSt8__detail10_Hash_nodeISt4pairIKiPN2us3gov6socket6clientEELb0EEEE10deallocateEPSB_m
000000000014bdc2 W _ZN9__gnu_cxx13new_allocatorINSt8__detail10_Hash_nodeISt4pairIKiPN2us3gov6socket6clientEELb0EEEE8allocateEmPKv
000000000014665a W _ZN9__gnu_cxx13new_allocatorINSt8__detail10_Hash_nodeISt4pairIKiPN2us3gov6socket6clientEELb0EEEEC1Ev
000000000014665a W _ZN9__gnu_cxx13new_allocatorINSt8__detail10_Hash_nodeISt4pairIKiPN2us3gov6socket6clientEELb0EEEEC2Ev
0000000000146666 W _ZN9__gnu_cxx13new_allocatorINSt8__detail10_Hash_nodeISt4pairIKiPN2us3gov6socket6clientEELb0EEEED1Ev
0000000000146666 W _ZN9__gnu_cxx13new_allocatorINSt8__detail10_Hash_nodeISt4pairIKiPN2us3gov6socket6clientEELb0EEEED2Ev
0000000000196234 W _ZN9__gnu_cxx13new_allocatorINSt8__detail10_Hash_nodeISt4pairIKN2us3gov4cash3app11local_deltaEmELb1EEEE10deallocateEPSB_m
00000000001965b6 W _ZN9__gnu_cxx13new_allocatorINSt8__detail10_Hash_nodeISt4pairIKN2us3gov4cash3app11local_deltaEmELb1EEEE8allocateEmPKv
0000000000192ade W _ZN9__gnu_cxx13new_allocatorINSt8__detail10_Hash_nodeISt4pairIKN2us3gov4cash3app11local_deltaEmELb1EEEEC1Ev
0000000000192ade W _ZN9__gnu_cxx13new_allocatorINSt8__detail10_Hash_nodeISt4pairIKN2us3gov4cash3app11local_deltaEmELb1EEEEC2Ev
0000000000192aea W _ZN9__gnu_cxx13new_allocatorINSt8__detail10_Hash_nodeISt4pairIKN2us3gov4cash3app11local_deltaEmELb1EEEED1Ev
0000000000192aea W _ZN9__gnu_cxx13new_allocatorINSt8__detail10_Hash_nodeISt4pairIKN2us3gov4cash3app11local_deltaEmELb1EEEED2Ev
0000000000184ee8 W _ZN9__gnu_cxx13new_allocatorINSt8__detail10_Hash_nodeISt4pairIKN2us3gov6crypto9ripemd16010value_typeEmELb1EEEE10deallocateEPSB_m
0000000000185318 W _ZN9__gnu_cxx13new_allocatorINSt8__detail10_Hash_nodeISt4pairIKN2us3gov6crypto9ripemd16010value_typeEmELb1EEEE8allocateEmPKv
00000000001841de W _ZN9__gnu_cxx13new_allocatorINSt8__detail10_Hash_nodeISt4pairIKN2us3gov6crypto9ripemd16010value_typeEmELb1EEEEC1Ev
00000000001841de W _ZN9__gnu_cxx13new_allocatorINSt8__detail10_Hash_nodeISt4pairIKN2us3gov6crypto9ripemd16010value_typeEmELb1EEEEC2Ev
000000000019859a W _ZN9__gnu_cxx13new_allocatorINSt8__detail10_Hash_nodeISt4pairIKN2us3gov6crypto9ripemd16010value_typeEmELb1EEEED1Ev
000000000019859a W _ZN9__gnu_cxx13new_allocatorINSt8__detail10_Hash_nodeISt4pairIKN2us3gov6crypto9ripemd16010value_typeEmELb1EEEED2Ev
00000000001959de W _ZN9__gnu_cxx13new_allocatorINSt8__detail10_Hash_nodeISt4pairIKN2us3gov6crypto9ripemd16010value_typeENS5_4cash3app11local_delta9account_tEELb1EEEE10deallocateEPSF_m
0000000000195b72 W _ZN9__gnu_cxx13new_allocatorINSt8__detail10_Hash_nodeISt4pairIKN2us3gov6crypto9ripemd16010value_typeENS5_4cash3app11local_delta9account_tEELb1EEEE8allocateEmPKv
0000000000191f8c W _ZN9__gnu_cxx13new_allocatorINSt8__detail10_Hash_nodeISt4pairIKN2us3gov6crypto9ripemd16010value_typeENS5_4cash3app11local_delta9account_tEELb1EEEEC1Ev
0000000000191f8c W _ZN9__gnu_cxx13new_allocatorINSt8__detail10_Hash_nodeISt4pairIKN2us3gov6crypto9ripemd16010value_typeENS5_4cash3app11local_delta9account_tEELb1EEEEC2Ev
0000000000191f98 W _ZN9__gnu_cxx13new_allocatorINSt8__detail10_Hash_nodeISt4pairIKN2us3gov6crypto9ripemd16010value_typeENS5_4cash3app11local_delta9account_tEELb1EEEED1Ev
0000000000191f98 W _ZN9__gnu_cxx13new_allocatorINSt8__detail10_Hash_nodeISt4pairIKN2us3gov6crypto9ripemd16010value_typeENS5_4cash3app11local_delta9account_tEELb1EEEED2Ev
0000000000178880 W _ZN9__gnu_cxx13new_allocatorINSt8__detail10_Hash_nodeISt4pairIKN2us3gov6crypto9ripemd16010value_typeENSt7__cxx1112basic_stringIcSt11char_traitsIcESaIcEEEELb1EEEE10deallocateEPSH_m
0000000000178c34 W _ZN9__gnu_cxx13new_allocatorINSt8__detail10_Hash_nodeISt4pairIKN2us3gov6crypto9ripemd16010value_typeENSt7__cxx1112basic_stringIcSt11char_traitsIcESaIcEEEELb1EEEE8allocateEmPKv
0000000000174434 W _ZN9__gnu_cxx13new_allocatorINSt8__detail10_Hash_nodeISt4pairIKN2us3gov6crypto9ripemd16010value_typeENSt7__cxx1112basic_stringIcSt11char_traitsIcESaIcEEEELb1EEEEC1Ev
0000000000174434 W _ZN9__gnu_cxx13new_allocatorINSt8__detail10_Hash_nodeISt4pairIKN2us3gov6crypto9ripemd16010value_typeENSt7__cxx1112basic_stringIcSt11char_traitsIcESaIcEEEELb1EEEEC2Ev
0000000000174440 W _ZN9__gnu_cxx13new_allocatorINSt8__detail10_Hash_nodeISt4pairIKN2us3gov6crypto9ripemd16010value_typeENSt7__cxx1112basic_stringIcSt11char_traitsIcESaIcEEEELb1EEEED1Ev
0000000000174440 W _ZN9__gnu_cxx13new_allocatorINSt8__detail10_Hash_nodeISt4pairIKN2us3gov6crypto9ripemd16010value_typeENSt7__cxx1112basic_stringIcSt11char_traitsIcESaIcEEEELb1EEEED2Ev
0000000000181fca W _ZN9__gnu_cxx13new_allocatorINSt8__detail10_Hash_nodeISt4pairIKN2us3gov6crypto9ripemd16010value_typeES3_IS8_mEELb1EEEE10deallocateEPSC_m
000000000018270c W _ZN9__gnu_cxx13new_allocatorINSt8__detail10_Hash_nodeISt4pairIKN2us3gov6crypto9ripemd16010value_typeES3_IS8_mEELb1EEEE8allocateEmPKv
000000000017ba0a W _ZN9__gnu_cxx13new_allocatorINSt8__detail10_Hash_nodeISt4pairIKN2us3gov6crypto9ripemd16010value_typeES3_IS8_mEELb1EEEEC1Ev
000000000017ba0a W _ZN9__gnu_cxx13new_allocatorINSt8__detail10_Hash_nodeISt4pairIKN2us3gov6crypto9ripemd16010value_typeES3_IS8_mEELb1EEEEC2Ev
000000000017ba16 W _ZN9__gnu_cxx13new_allocatorINSt8__detail10_Hash_nodeISt4pairIKN2us3gov6crypto9ripemd16010value_typeES3_IS8_mEELb1EEEED1Ev
000000000017ba16 W _ZN9__gnu_cxx13new_allocatorINSt8__detail10_Hash_nodeISt4pairIKN2us3gov6crypto9ripemd16010value_typeES3_IS8_mEELb1EEEED2Ev
0000000000181f58 W _ZN9__gnu_cxx13new_allocatorINSt8__detail10_Hash_nodeISt4pairIKPN2us3gov10blockchain6peer_tENS6_5shellEELb0EEEE10deallocateEPSC_m
0000000000182a76 W _ZN9__gnu_cxx13new_allocatorINSt8__detail10_Hash_nodeISt4pairIKPN2us3gov10blockchain6peer_tENS6_5shellEELb0EEEE8allocateEmPKv
000000000017b942 W _ZN9__gnu_cxx13new_allocatorINSt8__detail10_Hash_nodeISt4pairIKPN2us3gov10blockchain6peer_tENS6_5shellEELb0EEEEC1Ev
000000000017b942 W _ZN9__gnu_cxx13new_allocatorINSt8__detail10_Hash_nodeISt4pairIKPN2us3gov10blockchain6peer_tENS6_5shellEELb0EEEEC2Ev
000000000017b94e W _ZN9__gnu_cxx13new_allocatorINSt8__detail10_Hash_nodeISt4pairIKPN2us3gov10blockchain6peer_tENS6_5shellEELb0EEEED1Ev
000000000017b94e W _ZN9__gnu_cxx13new_allocatorINSt8__detail10_Hash_nodeISt4pairIKPN2us3gov10blockchain6peer_tENS6_5shellEELb0EEEED2Ev
000000000014e5ec W _ZN9__gnu_cxx13new_allocatorINSt8__detail10_Hash_nodeISt4pairIKPN2us3gov6socket6clientENSt6chrono10time_pointINSA_3_V212steady_clockENSA_8durationIlSt5ratioILl1ELl1000000000EEEEEEELb0EEEE10deallocateEPSK_m
000000000014e992 W _ZN9__gnu_cxx13new_allocatorINSt8__detail10_Hash_nodeISt4pairIKPN2us3gov6socket6clientENSt6chrono10time_pointINSA_3_V212steady_clockENSA_8durationIlSt5ratioILl1ELl1000000000EEEEEEELb0EEEE8allocateEmPKv
00000000001467ba W _ZN9__gnu_cxx13new_allocatorINSt8__detail10_Hash_nodeISt4pairIKPN2us3gov6socket6clientENSt6chrono10time_pointINSA_3_V212steady_clockENSA_8durationIlSt5ratioILl1ELl1000000000EEEEEEELb0EEEEC1Ev
00000000001467ba W _ZN9__gnu_cxx13new_allocatorINSt8__detail10_Hash_nodeISt4pairIKPN2us3gov6socket6clientENSt6chrono10time_pointINSA_3_V212steady_clockENSA_8durationIlSt5ratioILl1ELl1000000000EEEEEEELb0EEEEC2Ev
00000000001467c6 W _ZN9__gnu_cxx13new_allocatorINSt8__detail10_Hash_nodeISt4pairIKPN2us3gov6socket6clientENSt6chrono10time_pointINSA_3_V212steady_clockENSA_8durationIlSt5ratioILl1ELl1000000000EEEEEEELb0EEEED1Ev
00000000001467c6 W _ZN9__gnu_cxx13new_allocatorINSt8__detail10_Hash_nodeISt4pairIKPN2us3gov6socket6clientENSt6chrono10time_pointINSA_3_V212steady_clockENSA_8durationIlSt5ratioILl1ELl1000000000EEEEEEELb0EEEED2Ev
00000000001816d2 W _ZN9__gnu_cxx13new_allocatorIPN2us3gov10blockchain6peer_tEE10deallocateEPS5_m
000000000018028c W _ZN9__gnu_cxx13new_allocatorIPN2us3gov10blockchain6peer_tEE7destroyIS5_EEvPT_
0000000000181728 W _ZN9__gnu_cxx13new_allocatorIPN2us3gov10blockchain6peer_tEE8allocateEmPKv
000000000017ea88 W _ZN9__gnu_cxx13new_allocatorIPN2us3gov10blockchain6peer_tEE9constructIS5_JRKS5_EEEvPT_DpOT0_
00000000001816f4 W _ZN9__gnu_cxx13new_allocatorIPN2us3gov10blockchain6peer_tEEC1Ev
00000000001816f4 W _ZN9__gnu_cxx13new_allocatorIPN2us3gov10blockchain6peer_tEEC2Ev
0000000000180186 W _ZN9__gnu_cxx13new_allocatorIPN2us3gov10blockchain6peer_tEED1Ev
0000000000180186 W _ZN9__gnu_cxx13new_allocatorIPN2us3gov10blockchain6peer_tEED2Ev
000000000014e34a W _ZN9__gnu_cxx13new_allocatorIPN2us3gov14signal_handler8callbackEE7destroyIS5_EEvPT_
000000000014e2ce W _ZN9__gnu_cxx13new_allocatorIPN2us3gov14signal_handler8callbackEE9constructIS5_JRS5_EEEvPT_DpOT0_
000000000014e29c W _ZN9__gnu_cxx13new_allocatorIPN2us3gov14signal_handler8callbackEEC1Ev
000000000014e29c W _ZN9__gnu_cxx13new_allocatorIPN2us3gov14signal_handler8callbackEEC2Ev
000000000014e2a8 W _ZN9__gnu_cxx13new_allocatorIPN2us3gov14signal_handler8callbackEED1Ev
000000000014e2a8 W _ZN9__gnu_cxx13new_allocatorIPN2us3gov14signal_handler8callbackEED2Ev
0000000000160576 W _ZN9__gnu_cxx13new_allocatorIPN2us3gov4peer6peer_tEE10deallocateEPS5_m
000000000015f9cc W _ZN9__gnu_cxx13new_allocatorIPN2us3gov4peer6peer_tEE7destroyIS5_EEvPT_
00000000001607be W _ZN9__gnu_cxx13new_allocatorIPN2us3gov4peer6peer_tEE8allocateEmPKv
000000000015eab2 W _ZN9__gnu_cxx13new_allocatorIPN2us3gov4peer6peer_tEE9constructIS5_JRKS5_EEEvPT_DpOT0_
000000000015f562 W _ZN9__gnu_cxx13new_allocatorIPN2us3gov4peer6peer_tEE9constructIS5_JRS5_EEEvPT_DpOT0_
00000000001604f0 W _ZN9__gnu_cxx13new_allocatorIPN2us3gov4peer6peer_tEE9constructIS5_JS5_EEEvPT_DpOT0_
0000000000160800 W _ZN9__gnu_cxx13new_allocatorIPN2us3gov4peer6peer_tEEC1ERKS6_
00000000001607b2 W _ZN9__gnu_cxx13new_allocatorIPN2us3gov4peer6peer_tEEC1Ev
0000000000160800 W _ZN9__gnu_cxx13new_allocatorIPN2us3gov4peer6peer_tEEC2ERKS6_
00000000001607b2 W _ZN9__gnu_cxx13new_allocatorIPN2us3gov4peer6peer_tEEC2Ev
000000000015f96c W _ZN9__gnu_cxx13new_allocatorIPN2us3gov4peer6peer_tEED1Ev
000000000015f96c W _ZN9__gnu_cxx13new_allocatorIPN2us3gov4peer6peer_tEED2Ev
000000000014c472 W _ZN9__gnu_cxx13new_allocatorIPN2us3gov6socket6clientEE10deallocateEPS5_m
000000000014bd1c W _ZN9__gnu_cxx13new_allocatorIPN2us3gov6socket6clientEE7destroyIS5_EEvPT_
000000000014dd0a W _ZN9__gnu_cxx13new_allocatorIPN2us3gov6socket6clientEE8allocateEmPKv
000000000014a4fc W _ZN9__gnu_cxx13new_allocatorIPN2us3gov6socket6clientEE9constructIS5_JRKS5_EEEvPT_DpOT0_
000000000014ed22 W _ZN9__gnu_cxx13new_allocatorIPN2us3gov6socket6clientEE9constructIS5_JRS5_EEEvPT_DpOT0_
000000000014dd7a W _ZN9__gnu_cxx13new_allocatorIPN2us3gov6socket6clientEEC1ERKS6_
000000000014bbd4 W _ZN9__gnu_cxx13new_allocatorIPN2us3gov6socket6clientEEC1Ev
000000000014dd7a W _ZN9__gnu_cxx13new_allocatorIPN2us3gov6socket6clientEEC2ERKS6_
000000000014bbd4 W _ZN9__gnu_cxx13new_allocatorIPN2us3gov6socket6clientEEC2Ev
000000000014b436 W _ZN9__gnu_cxx13new_allocatorIPN2us3gov6socket6clientEED1Ev
000000000014b436 W _ZN9__gnu_cxx13new_allocatorIPN2us3gov6socket6clientEED2Ev
000000000014d962 W _ZN9__gnu_cxx13new_allocatorIPNSt8__detail15_Hash_node_baseEE10deallocateEPS3_m
000000000014d906 W _ZN9__gnu_cxx13new_allocatorIPNSt8__detail15_Hash_node_baseEE8allocateEmPKv
000000000014d8ee W _ZN9__gnu_cxx13new_allocatorIPNSt8__detail15_Hash_node_baseEEC1Ev
000000000014d8ee W _ZN9__gnu_cxx13new_allocatorIPNSt8__detail15_Hash_node_baseEEC2Ev
000000000014d8fa W _ZN9__gnu_cxx13new_allocatorIPNSt8__detail15_Hash_node_baseEED1Ev
000000000014d8fa W _ZN9__gnu_cxx13new_allocatorIPNSt8__detail15_Hash_node_baseEED2Ev
0000000000157854 W _ZN9__gnu_cxx13new_allocatorIPPSt8functionIFviEEE10deallocateEPS5_m
0000000000158794 W _ZN9__gnu_cxx13new_allocatorIPPSt8functionIFviEEE8allocateEmPKv
00000000001580cc W _ZN9__gnu_cxx13new_allocatorIPPSt8functionIFviEEEC1Ev
00000000001580cc W _ZN9__gnu_cxx13new_allocatorIPPSt8functionIFviEEEC2Ev
0000000000157848 W _ZN9__gnu_cxx13new_allocatorIPPSt8functionIFviEEED1Ev
0000000000157848 W _ZN9__gnu_cxx13new_allocatorIPPSt8functionIFviEEED2Ev
00000000001580aa W _ZN9__gnu_cxx13new_allocatorIPSt8functionIFviEEE10deallocateEPS4_m
0000000000157be2 W _ZN9__gnu_cxx13new_allocatorIPSt8functionIFviEEE7destroyIS4_EEvPT_
0000000000158f22 W _ZN9__gnu_cxx13new_allocatorIPSt8functionIFviEEE8allocateEmPKv
000000000015867a W _ZN9__gnu_cxx13new_allocatorIPSt8functionIFviEEE9constructIS4_JRKS4_EEEvPT_DpOT0_
000000000015803a W _ZN9__gnu_cxx13new_allocatorIPSt8functionIFviEEEC1Ev
000000000015803a W _ZN9__gnu_cxx13new_allocatorIPSt8functionIFviEEEC2Ev
0000000000156acc W _ZN9__gnu_cxx13new_allocatorIPSt8functionIFviEEED1Ev
0000000000156acc W _ZN9__gnu_cxx13new_allocatorIPSt8functionIFviEEED2Ev
0000000000157608 W _ZN9__gnu_cxx13new_allocatorISt10shared_ptrISt6atomicIbEEE10deallocateEPS4_m
00000000001579f8 W _ZN9__gnu_cxx13new_allocatorISt10shared_ptrISt6atomicIbEEE8allocateEmPKv
00000000001575fc W _ZN9__gnu_cxx13new_allocatorISt10shared_ptrISt6atomicIbEEEC1Ev
00000000001575fc W _ZN9__gnu_cxx13new_allocatorISt10shared_ptrISt6atomicIbEEEC2Ev
0000000000156860 W _ZN9__gnu_cxx13new_allocatorISt10shared_ptrISt6atomicIbEEED1Ev
0000000000156860 W _ZN9__gnu_cxx13new_allocatorISt10shared_ptrISt6atomicIbEEED2Ev
00000000001575b0 W _ZN9__gnu_cxx13new_allocatorISt10unique_ptrISt6threadSt14default_deleteIS2_EEE10deallocateEPS5_m
00000000001578fe W _ZN9__gnu_cxx13new_allocatorISt10unique_ptrISt6threadSt14default_deleteIS2_EEE8allocateEmPKv
00000000001575a4 W _ZN9__gnu_cxx13new_allocatorISt10unique_ptrISt6threadSt14default_deleteIS2_EEEC1Ev
00000000001575a4 W _ZN9__gnu_cxx13new_allocatorISt10unique_ptrISt6threadSt14default_deleteIS2_EEEC2Ev
00000000001567d2 W _ZN9__gnu_cxx13new_allocatorISt10unique_ptrISt6threadSt14default_deleteIS2_EEED1Ev
00000000001567d2 W _ZN9__gnu_cxx13new_allocatorISt10unique_ptrISt6threadSt14default_deleteIS2_EEED2Ev
000000000015a114 W _ZN9__gnu_cxx13new_allocatorISt13packaged_taskIFviEEE7destroyIS3_EEvPT_
0000000000159290 W _ZN9__gnu_cxx13new_allocatorISt13packaged_taskIFviEEEC1ERKS4_
00000000001572b2 W _ZN9__gnu_cxx13new_allocatorISt13packaged_taskIFviEEEC1Ev
0000000000159290 W _ZN9__gnu_cxx13new_allocatorISt13packaged_taskIFviEEEC2ERKS4_
00000000001572b2 W _ZN9__gnu_cxx13new_allocatorISt13packaged_taskIFviEEEC2Ev
00000000001572be W _ZN9__gnu_cxx13new_allocatorISt13packaged_taskIFviEEED1Ev
00000000001572be W _ZN9__gnu_cxx13new_allocatorISt13packaged_taskIFviEEED2Ev
00000000001719a2 W _ZN9__gnu_cxx13new_allocatorISt13_Rb_tree_nodeISt4pairIKiPN2us3gov10blockchain3app11local_deltaEEEE10deallocateEPSB_m
0000000000171992 W _ZN9__gnu_cxx13new_allocatorISt13_Rb_tree_nodeISt4pairIKiPN2us3gov10blockchain3app11local_deltaEEEE7destroyISA_EEvPT_
0000000000171a28 W _ZN9__gnu_cxx13new_allocatorISt13_Rb_tree_nodeISt4pairIKiPN2us3gov10blockchain3app11local_deltaEEEE8allocateEmPKv
0000000000171a74 W _ZN9__gnu_cxx13new_allocatorISt13_Rb_tree_nodeISt4pairIKiPN2us3gov10blockchain3app11local_deltaEEEE9constructISA_JRiRS9_EEEvPT_DpOT0_
00000000001825ca W _ZN9__gnu_cxx13new_allocatorISt13_Rb_tree_nodeISt4pairIKiPN2us3gov10blockchain3app11local_deltaEEEE9constructISA_JRS3_RS9_EEEvPT_DpOT0_
000000000016f56c W _ZN9__gnu_cxx13new_allocatorISt13_Rb_tree_nodeISt4pairIKiPN2us3gov10blockchain3app11local_deltaEEEEC1Ev
000000000016f56c W _ZN9__gnu_cxx13new_allocatorISt13_Rb_tree_nodeISt4pairIKiPN2us3gov10blockchain3app11local_deltaEEEEC2Ev
000000000016f578 W _ZN9__gnu_cxx13new_allocatorISt13_Rb_tree_nodeISt4pairIKiPN2us3gov10blockchain3app11local_deltaEEEED1Ev
000000000016f578 W _ZN9__gnu_cxx13new_allocatorISt13_Rb_tree_nodeISt4pairIKiPN2us3gov10blockchain3app11local_deltaEEEED2Ev
00000000001719d4 W _ZN9__gnu_cxx13new_allocatorISt13_Rb_tree_nodeISt4pairIKiPN2us3gov10blockchain3app5deltaEEEE10deallocateEPSB_m
00000000001719c4 W _ZN9__gnu_cxx13new_allocatorISt13_Rb_tree_nodeISt4pairIKiPN2us3gov10blockchain3app5deltaEEEE7destroyISA_EEvPT_
0000000000171ad6 W _ZN9__gnu_cxx13new_allocatorISt13_Rb_tree_nodeISt4pairIKiPN2us3gov10blockchain3app5deltaEEEE8allocateEmPKv
0000000000171b22 W _ZN9__gnu_cxx13new_allocatorISt13_Rb_tree_nodeISt4pairIKiPN2us3gov10blockchain3app5deltaEEEE9constructISA_JRiRS9_EEEvPT_DpOT0_
0000000000171c8a W _ZN9__gnu_cxx13new_allocatorISt13_Rb_tree_nodeISt4pairIKiPN2us3gov10blockchain3app5deltaEEEE9constructISA_JRiS9_EEEvPT_DpOT0_
000000000016f356 W _ZN9__gnu_cxx13new_allocatorISt13_Rb_tree_nodeISt4pairIKiPN2us3gov10blockchain3app5deltaEEEEC1Ev
000000000016f356 W _ZN9__gnu_cxx13new_allocatorISt13_Rb_tree_nodeISt4pairIKiPN2us3gov10blockchain3app5deltaEEEEC2Ev
000000000016f362 W _ZN9__gnu_cxx13new_allocatorISt13_Rb_tree_nodeISt4pairIKiPN2us3gov10blockchain3app5deltaEEEED1Ev
000000000016f362 W _ZN9__gnu_cxx13new_allocatorISt13_Rb_tree_nodeISt4pairIKiPN2us3gov10blockchain3app5deltaEEEED2Ev
0000000000171a06 W _ZN9__gnu_cxx13new_allocatorISt13_Rb_tree_nodeISt4pairIKN2us3gov6crypto9ripemd16010value_typeEmEEE10deallocateEPSA_m
00000000001719f6 W _ZN9__gnu_cxx13new_allocatorISt13_Rb_tree_nodeISt4pairIKN2us3gov6crypto9ripemd16010value_typeEmEEE7destroyIS9_EEvPT_
0000000000171b84 W _ZN9__gnu_cxx13new_allocatorISt13_Rb_tree_nodeISt4pairIKN2us3gov6crypto9ripemd16010value_typeEmEEE8allocateEmPKv
0000000000171bc6 W _ZN9__gnu_cxx13new_allocatorISt13_Rb_tree_nodeISt4pairIKN2us3gov6crypto9ripemd16010value_typeEmEEE9constructIS9_JRS7_RmEEEvPT_DpOT0_
0000000000171c28 W _ZN9__gnu_cxx13new_allocatorISt13_Rb_tree_nodeISt4pairIKN2us3gov6crypto9ripemd16010value_typeEmEEE9constructIS9_JRS8_iEEEvPT_DpOT0_
000000000016f3e6 W _ZN9__gnu_cxx13new_allocatorISt13_Rb_tree_nodeISt4pairIKN2us3gov6crypto9ripemd16010value_typeEmEEEC1Ev
000000000016f3e6 W _ZN9__gnu_cxx13new_allocatorISt13_Rb_tree_nodeISt4pairIKN2us3gov6crypto9ripemd16010value_typeEmEEEC2Ev
000000000016f3f2 W _ZN9__gnu_cxx13new_allocatorISt13_Rb_tree_nodeISt4pairIKN2us3gov6crypto9ripemd16010value_typeEmEEED1Ev
000000000016f3f2 W _ZN9__gnu_cxx13new_allocatorISt13_Rb_tree_nodeISt4pairIKN2us3gov6crypto9ripemd16010value_typeEmEEED2Ev
000000000019582a W _ZN9__gnu_cxx13new_allocatorISt13_Rb_tree_nodeISt4pairIKN2us3gov6crypto9ripemd16010value_typeENS4_4cash3app11local_delta9account_tEEEE10deallocateEPSE_m
000000000019581a W _ZN9__gnu_cxx13new_allocatorISt13_Rb_tree_nodeISt4pairIKN2us3gov6crypto9ripemd16010value_typeENS4_4cash3app11local_delta9account_tEEEE7destroyISD_EEvPT_
0000000000195780 W _ZN9__gnu_cxx13new_allocatorISt13_Rb_tree_nodeISt4pairIKN2us3gov6crypto9ripemd16010value_typeENS4_4cash3app11local_delta9account_tEEEE8allocateEmPKv
0000000000195da4 W _ZN9__gnu_cxx13new_allocatorISt13_Rb_tree_nodeISt4pairIKN2us3gov6crypto9ripemd16010value_typeENS4_4cash3app11local_delta9account_tEEEE9constructISD_JRKSD_EEEvPT_DpOT0_
0000000000195e1a W _ZN9__gnu_cxx13new_allocatorISt13_Rb_tree_nodeISt4pairIKN2us3gov6crypto9ripemd16010value_typeENS4_4cash3app11local_delta9account_tEEEE9constructISD_JRS7_SC_EEEvPT_DpOT0_
000000000019584c W _ZN9__gnu_cxx13new_allocatorISt13_Rb_tree_nodeISt4pairIKN2us3gov6crypto9ripemd16010value_typeENS4_4cash3app11local_delta9account_tEEEE9constructISD_JRS8_SC_EEEvPT_DpOT0_
00000000001957d2 W _ZN9__gnu_cxx13new_allocatorISt13_Rb_tree_nodeISt4pairIKN2us3gov6crypto9ripemd16010value_typeENS4_4cash3app11local_delta9account_tEEEE9constructISD_JS2_IS7_SC_EEEEvPT_DpOT0_
0000000000195a00 W _ZN9__gnu_cxx13new_allocatorISt13_Rb_tree_nodeISt4pairIKN2us3gov6crypto9ripemd16010value_typeENS4_4cash3app11local_delta9account_tEEEE9constructISD_JS7_SC_EEEvPT_DpOT0_
0000000000196f86 W _ZN9__gnu_cxx13new_allocatorISt13_Rb_tree_nodeISt4pairIKN2us3gov6crypto9ripemd16010value_typeENS4_4cash3app11local_delta9account_tEEEEC1ERKSF_
0000000000192236 W _ZN9__gnu_cxx13new_allocatorISt13_Rb_tree_nodeISt4pairIKN2us3gov6crypto9ripemd16010value_typeENS4_4cash3app11local_delta9account_tEEEEC1Ev
0000000000196f86 W _ZN9__gnu_cxx13new_allocatorISt13_Rb_tree_nodeISt4pairIKN2us3gov6crypto9ripemd16010value_typeENS4_4cash3app11local_delta9account_tEEEEC2ERKSF_
0000000000192236 W _ZN9__gnu_cxx13new_allocatorISt13_Rb_tree_nodeISt4pairIKN2us3gov6crypto9ripemd16010value_typeENS4_4cash3app11local_delta9account_tEEEEC2Ev
0000000000192242 W _ZN9__gnu_cxx13new_allocatorISt13_Rb_tree_nodeISt4pairIKN2us3gov6crypto9ripemd16010value_typeENS4_4cash3app11local_delta9account_tEEEED1Ev
0000000000192242 W _ZN9__gnu_cxx13new_allocatorISt13_Rb_tree_nodeISt4pairIKN2us3gov6crypto9ripemd16010value_typeENS4_4cash3app11local_delta9account_tEEEED2Ev
000000000017873e W _ZN9__gnu_cxx13new_allocatorISt13_Rb_tree_nodeISt4pairIKN2us3gov6crypto9ripemd16010value_typeENSt7__cxx1112basic_stringIcSt11char_traitsIcESaIcEEEEEE10deallocateEPSG_m
000000000017871e W _ZN9__gnu_cxx13new_allocatorISt13_Rb_tree_nodeISt4pairIKN2us3gov6crypto9ripemd16010value_typeENSt7__cxx1112basic_stringIcSt11char_traitsIcESaIcEEEEEE7destroyISF_EEvPT_
0000000000178760 W _ZN9__gnu_cxx13new_allocatorISt13_Rb_tree_nodeISt4pairIKN2us3gov6crypto9ripemd16010value_typeENSt7__cxx1112basic_stringIcSt11char_traitsIcESaIcEEEEEE8allocateEmPKv
00000000001787b2 W _ZN9__gnu_cxx13new_allocatorISt13_Rb_tree_nodeISt4pairIKN2us3gov6crypto9ripemd16010value_typeENSt7__cxx1112basic_stringIcSt11char_traitsIcESaIcEEEEEE9constructISF_JRS2_IS7_SE_EEEEvPT_DpOT0_
0000000000178f5a W _ZN9__gnu_cxx13new_allocatorISt13_Rb_tree_nodeISt4pairIKN2us3gov6crypto9ripemd16010value_typeENSt7__cxx1112basic_stringIcSt11char_traitsIcESaIcEEEEEE9constructISF_JS2_IS7_SE_EEEEvPT_DpOT0_
0000000000174212 W _ZN9__gnu_cxx13new_allocatorISt13_Rb_tree_nodeISt4pairIKN2us3gov6crypto9ripemd16010value_typeENSt7__cxx1112basic_stringIcSt11char_traitsIcESaIcEEEEEEC1Ev
0000000000174212 W _ZN9__gnu_cxx13new_allocatorISt13_Rb_tree_nodeISt4pairIKN2us3gov6crypto9ripemd16010value_typeENSt7__cxx1112basic_stringIcSt11char_traitsIcESaIcEEEEEEC2Ev
000000000017421e W _ZN9__gnu_cxx13new_allocatorISt13_Rb_tree_nodeISt4pairIKN2us3gov6crypto9ripemd16010value_typeENSt7__cxx1112basic_stringIcSt11char_traitsIcESaIcEEEEEED1Ev
000000000017421e W _ZN9__gnu_cxx13new_allocatorISt13_Rb_tree_nodeISt4pairIKN2us3gov6crypto9ripemd16010value_typeENSt7__cxx1112basic_stringIcSt11char_traitsIcESaIcEEEEEED2Ev
00000000001594b8 W _ZN9__gnu_cxx13new_allocatorISt23_Sp_counted_ptr_inplaceISt13packaged_taskIFviEESaIS4_ELNS_12_Lock_policyE2EEE10deallocateEPS7_m
0000000000159468 W _ZN9__gnu_cxx13new_allocatorISt23_Sp_counted_ptr_inplaceISt13packaged_taskIFviEESaIS4_ELNS_12_Lock_policyE2EEE8allocateEmPKv
00000000001591d8 W _ZN9__gnu_cxx13new_allocatorISt23_Sp_counted_ptr_inplaceISt13packaged_taskIFviEESaIS4_ELNS_12_Lock_policyE2EEEC1Ev
00000000001591d8 W _ZN9__gnu_cxx13new_allocatorISt23_Sp_counted_ptr_inplaceISt13packaged_taskIFviEESaIS4_ELNS_12_Lock_policyE2EEEC2Ev
00000000001591e4 W _ZN9__gnu_cxx13new_allocatorISt23_Sp_counted_ptr_inplaceISt13packaged_taskIFviEESaIS4_ELNS_12_Lock_policyE2EEED1Ev
00000000001591e4 W _ZN9__gnu_cxx13new_allocatorISt23_Sp_counted_ptr_inplaceISt13packaged_taskIFviEESaIS4_ELNS_12_Lock_policyE2EEED2Ev
0000000000159112 W _ZN9__gnu_cxx13new_allocatorISt23_Sp_counted_ptr_inplaceISt6atomicIbESaIS3_ELNS_12_Lock_policyE2EEE10deallocateEPS6_m
00000000001590b8 W _ZN9__gnu_cxx13new_allocatorISt23_Sp_counted_ptr_inplaceISt6atomicIbESaIS3_ELNS_12_Lock_policyE2EEE8allocateEmPKv
00000000001589c4 W _ZN9__gnu_cxx13new_allocatorISt23_Sp_counted_ptr_inplaceISt6atomicIbESaIS3_ELNS_12_Lock_policyE2EEEC1Ev
00000000001589c4 W _ZN9__gnu_cxx13new_allocatorISt23_Sp_counted_ptr_inplaceISt6atomicIbESaIS3_ELNS_12_Lock_policyE2EEEC2Ev
00000000001589d0 W _ZN9__gnu_cxx13new_allocatorISt23_Sp_counted_ptr_inplaceISt6atomicIbESaIS3_ELNS_12_Lock_policyE2EEED1Ev
00000000001589d0 W _ZN9__gnu_cxx13new_allocatorISt23_Sp_counted_ptr_inplaceISt6atomicIbESaIS3_ELNS_12_Lock_policyE2EEED2Ev
0000000000181ea6 W _ZN9__gnu_cxx13new_allocatorISt4pairIKiPN2us3gov10blockchain3appEEE7destroyIS8_EEvPT_
0000000000182148 W _ZN9__gnu_cxx13new_allocatorISt4pairIKiPN2us3gov10blockchain3appEEE9constructIS8_JiRS7_EEEvPT_DpOT0_
0000000000181e8e W _ZN9__gnu_cxx13new_allocatorISt4pairIKiPN2us3gov10blockchain3appEEEC1Ev
0000000000181e8e W _ZN9__gnu_cxx13new_allocatorISt4pairIKiPN2us3gov10blockchain3appEEEC2Ev
0000000000181e9a W _ZN9__gnu_cxx13new_allocatorISt4pairIKiPN2us3gov10blockchain3appEEED1Ev
0000000000181e9a W _ZN9__gnu_cxx13new_allocatorISt4pairIKiPN2us3gov10blockchain3appEEED2Ev
000000000014bf40 W _ZN9__gnu_cxx13new_allocatorISt4pairIKiPN2us3gov6socket6clientEEE7destroyIS8_EEvPT_
000000000014e762 W _ZN9__gnu_cxx13new_allocatorISt4pairIKiPN2us3gov6socket6clientEEE9constructIS8_JRiRS7_EEEvPT_DpOT0_
000000000014be26 W _ZN9__gnu_cxx13new_allocatorISt4pairIKiPN2us3gov6socket6clientEEE9constructIS8_JRKS8_EEEvPT_DpOT0_
000000000014be0e W _ZN9__gnu_cxx13new_allocatorISt4pairIKiPN2us3gov6socket6clientEEEC1Ev
000000000014be0e W _ZN9__gnu_cxx13new_allocatorISt4pairIKiPN2us3gov6socket6clientEEEC2Ev
000000000014be1a W _ZN9__gnu_cxx13new_allocatorISt4pairIKiPN2us3gov6socket6clientEEED1Ev
000000000014be1a W _ZN9__gnu_cxx13new_allocatorISt4pairIKiPN2us3gov6socket6clientEEED2Ev
0000000000196214 W _ZN9__gnu_cxx13new_allocatorISt4pairIKN2us3gov4cash3app11local_deltaEmEE7destroyIS8_EEvPT_
00000000001965f8 W _ZN9__gnu_cxx13new_allocatorISt4pairIKN2us3gov4cash3app11local_deltaEmEE9constructIS8_JRS7_iEEEvPT_DpOT0_
00000000001961e0 W _ZN9__gnu_cxx13new_allocatorISt4pairIKN2us3gov4cash3app11local_deltaEmEEC1Ev
00000000001961e0 W _ZN9__gnu_cxx13new_allocatorISt4pairIKN2us3gov4cash3app11local_deltaEmEEC2Ev
00000000001961ec W _ZN9__gnu_cxx13new_allocatorISt4pairIKN2us3gov4cash3app11local_deltaEmEED1Ev
00000000001961ec W _ZN9__gnu_cxx13new_allocatorISt4pairIKN2us3gov4cash3app11local_deltaEmEED2Ev
0000000000184ed8 W _ZN9__gnu_cxx13new_allocatorISt4pairIKN2us3gov6crypto9ripemd16010value_typeEmEE7destroyIS8_EEvPT_
0000000000185364 W _ZN9__gnu_cxx13new_allocatorISt4pairIKN2us3gov6crypto9ripemd16010value_typeEmEE9constructIS8_JRS7_iEEEvPT_DpOT0_
0000000000184ec0 W _ZN9__gnu_cxx13new_allocatorISt4pairIKN2us3gov6crypto9ripemd16010value_typeEmEEC1Ev
0000000000184ec0 W _ZN9__gnu_cxx13new_allocatorISt4pairIKN2us3gov6crypto9ripemd16010value_typeEmEEC2Ev
0000000000184ecc W _ZN9__gnu_cxx13new_allocatorISt4pairIKN2us3gov6crypto9ripemd16010value_typeEmEED1Ev
0000000000184ecc W _ZN9__gnu_cxx13new_allocatorISt4pairIKN2us3gov6crypto9ripemd16010value_typeEmEED2Ev
00000000001959ce W _ZN9__gnu_cxx13new_allocatorISt4pairIKN2us3gov6crypto9ripemd16010value_typeENS3_4cash3app11local_delta9account_tEEE7destroyISC_EEvPT_
0000000000195bbe W _ZN9__gnu_cxx13new_allocatorISt4pairIKN2us3gov6crypto9ripemd16010value_typeENS3_4cash3app11local_delta9account_tEEE9constructISC_JRS7_RKSB_EEEvPT_DpOT0_
00000000001959b6 W _ZN9__gnu_cxx13new_allocatorISt4pairIKN2us3gov6crypto9ripemd16010value_typeENS3_4cash3app11local_delta9account_tEEEC1Ev
00000000001959b6 W _ZN9__gnu_cxx13new_allocatorISt4pairIKN2us3gov6crypto9ripemd16010value_typeENS3_4cash3app11local_delta9account_tEEEC2Ev
00000000001959c2 W _ZN9__gnu_cxx13new_allocatorISt4pairIKN2us3gov6crypto9ripemd16010value_typeENS3_4cash3app11local_delta9account_tEEED1Ev
00000000001959c2 W _ZN9__gnu_cxx13new_allocatorISt4pairIKN2us3gov6crypto9ripemd16010value_typeENS3_4cash3app11local_delta9account_tEEED2Ev
0000000000178860 W _ZN9__gnu_cxx13new_allocatorISt4pairIKN2us3gov6crypto9ripemd16010value_typeENSt7__cxx1112basic_stringIcSt11char_traitsIcESaIcEEEEE7destroyISE_EEvPT_
0000000000178fa2 W _ZN9__gnu_cxx13new_allocatorISt4pairIKN2us3gov6crypto9ripemd16010value_typeENSt7__cxx1112basic_stringIcSt11char_traitsIcESaIcEEEEE9constructISE_JRKSE_EEEvPT_DpOT0_
0000000000178cca W _ZN9__gnu_cxx13new_allocatorISt4pairIKN2us3gov6crypto9ripemd16010value_typeENSt7__cxx1112basic_stringIcSt11char_traitsIcESaIcEEEEE9constructISE_JRSE_EEEvPT_DpOT0_
0000000000178848 W _ZN9__gnu_cxx13new_allocatorISt4pairIKN2us3gov6crypto9ripemd16010value_typeENSt7__cxx1112basic_stringIcSt11char_traitsIcESaIcEEEEEC1Ev
0000000000178848 W _ZN9__gnu_cxx13new_allocatorISt4pairIKN2us3gov6crypto9ripemd16010value_typeENSt7__cxx1112basic_stringIcSt11char_traitsIcESaIcEEEEEC2Ev
0000000000178854 W _ZN9__gnu_cxx13new_allocatorISt4pairIKN2us3gov6crypto9ripemd16010value_typeENSt7__cxx1112basic_stringIcSt11char_traitsIcESaIcEEEEED1Ev
0000000000178854 W _ZN9__gnu_cxx13new_allocatorISt4pairIKN2us3gov6crypto9ripemd16010value_typeENSt7__cxx1112basic_stringIcSt11char_traitsIcESaIcEEEEED2Ev
0000000000181fba W _ZN9__gnu_cxx13new_allocatorISt4pairIKN2us3gov6crypto9ripemd16010value_typeES1_IS6_mEEE7destroyIS9_EEvPT_
0000000000182758 W _ZN9__gnu_cxx13new_allocatorISt4pairIKN2us3gov6crypto9ripemd16010value_typeES1_IS6_mEEE9constructIS9_JRS7_S1_IS6_iEEEEvPT_DpOT0_
0000000000181fa2 W _ZN9__gnu_cxx13new_allocatorISt4pairIKN2us3gov6crypto9ripemd16010value_typeES1_IS6_mEEEC1Ev
0000000000181fa2 W _ZN9__gnu_cxx13new_allocatorISt4pairIKN2us3gov6crypto9ripemd16010value_typeES1_IS6_mEEEC2Ev
0000000000181fae W _ZN9__gnu_cxx13new_allocatorISt4pairIKN2us3gov6crypto9ripemd16010value_typeES1_IS6_mEEED1Ev
0000000000181fae W _ZN9__gnu_cxx13new_allocatorISt4pairIKN2us3gov6crypto9ripemd16010value_typeES1_IS6_mEEED2Ev
0000000000181f38 W _ZN9__gnu_cxx13new_allocatorISt4pairIKPN2us3gov10blockchain6peer_tENS4_5shellEEE7destroyIS9_EEvPT_
0000000000182ab8 W _ZN9__gnu_cxx13new_allocatorISt4pairIKPN2us3gov10blockchain6peer_tENS4_5shellEEE9constructIS9_JRS6_S8_EEEvPT_DpOT0_
0000000000181f00 W _ZN9__gnu_cxx13new_allocatorISt4pairIKPN2us3gov10blockchain6peer_tENS4_5shellEEEC1Ev
0000000000181f00 W _ZN9__gnu_cxx13new_allocatorISt4pairIKPN2us3gov10blockchain6peer_tENS4_5shellEEEC2Ev
0000000000181f0c W _ZN9__gnu_cxx13new_allocatorISt4pairIKPN2us3gov10blockchain6peer_tENS4_5shellEEED1Ev
0000000000181f0c W _ZN9__gnu_cxx13new_allocatorISt4pairIKPN2us3gov10blockchain6peer_tENS4_5shellEEED2Ev
000000000014e5dc W _ZN9__gnu_cxx13new_allocatorISt4pairIKPN2us3gov6socket6clientENSt6chrono10time_pointINS8_3_V212steady_clockENS8_8durationIlSt5ratioILl1ELl1000000000EEEEEEEE7destroyISH_EEvPT_
000000000014e9de W _ZN9__gnu_cxx13new_allocatorISt4pairIKPN2us3gov6socket6clientENSt6chrono10time_pointINS8_3_V212steady_clockENS8_8durationIlSt5ratioILl1ELl1000000000EEEEEEEE9constructISH_JRS6_SG_EEEvPT_DpOT0_
000000000014e5c4 W _ZN9__gnu_cxx13new_allocatorISt4pairIKPN2us3gov6socket6clientENSt6chrono10time_pointINS8_3_V212steady_clockENS8_8durationIlSt5ratioILl1ELl1000000000EEEEEEEEC1Ev
000000000014e5c4 W _ZN9__gnu_cxx13new_allocatorISt4pairIKPN2us3gov6socket6clientENSt6chrono10time_pointINS8_3_V212steady_clockENS8_8durationIlSt5ratioILl1ELl1000000000EEEEEEEEC2Ev
000000000014e5d0 W _ZN9__gnu_cxx13new_allocatorISt4pairIKPN2us3gov6socket6clientENSt6chrono10time_pointINS8_3_V212steady_clockENS8_8durationIlSt5ratioILl1ELl1000000000EEEEEEEED1Ev
000000000014e5d0 W _ZN9__gnu_cxx13new_allocatorISt4pairIKPN2us3gov6socket6clientENSt6chrono10time_pointINS8_3_V212steady_clockENS8_8durationIlSt5ratioILl1ELl1000000000EEEEEEEED2Ev
000000000017762e W _ZN9__gnu_cxx13new_allocatorISt4pairIN2us3gov6crypto9ripemd16010value_typeENSt7__cxx1112basic_stringIcSt11char_traitsIcESaIcEEEEE10deallocateEPSD_m
0000000000177c8a W _ZN9__gnu_cxx13new_allocatorISt4pairIN2us3gov6crypto9ripemd16010value_typeENSt7__cxx1112basic_stringIcSt11char_traitsIcESaIcEEEEE7destroyISD_EEvPT_
0000000000178578 W _ZN9__gnu_cxx13new_allocatorISt4pairIN2us3gov6crypto9ripemd16010value_typeENSt7__cxx1112basic_stringIcSt11char_traitsIcESaIcEEEEE8allocateEmPKv
00000000001769d8 W _ZN9__gnu_cxx13new_allocatorISt4pairIN2us3gov6crypto9ripemd16010value_typeENSt7__cxx1112basic_stringIcSt11char_traitsIcESaIcEEEEE9constructISD_JSD_EEEvPT_DpOT0_
0000000000177c08 W _ZN9__gnu_cxx13new_allocatorISt4pairIN2us3gov6crypto9ripemd16010value_typeENSt7__cxx1112basic_stringIcSt11char_traitsIcESaIcEEEEEC1Ev
0000000000177c08 W _ZN9__gnu_cxx13new_allocatorISt4pairIN2us3gov6crypto9ripemd16010value_typeENSt7__cxx1112basic_stringIcSt11char_traitsIcESaIcEEEEEC2Ev
0000000000176436 W _ZN9__gnu_cxx13new_allocatorISt4pairIN2us3gov6crypto9ripemd16010value_typeENSt7__cxx1112basic_stringIcSt11char_traitsIcESaIcEEEEED1Ev
0000000000176436 W _ZN9__gnu_cxx13new_allocatorISt4pairIN2us3gov6crypto9ripemd16010value_typeENSt7__cxx1112basic_stringIcSt11char_traitsIcESaIcEEEEED2Ev
000000000015a142 W _ZN9__gnu_cxx13new_allocatorISt6atomicIbEE7destroyIS2_EEvPT_
0000000000159174 W _ZN9__gnu_cxx13new_allocatorISt6atomicIbEE9constructIS2_JbEEEvPT_DpOT0_
0000000000158a7c W _ZN9__gnu_cxx13new_allocatorISt6atomicIbEEC1ERKS3_
0000000000155e4e W _ZN9__gnu_cxx13new_allocatorISt6atomicIbEEC1Ev
0000000000158a7c W _ZN9__gnu_cxx13new_allocatorISt6atomicIbEEC2ERKS3_
0000000000155e4e W _ZN9__gnu_cxx13new_allocatorISt6atomicIbEEC2Ev
0000000000155e5a W _ZN9__gnu_cxx13new_allocatorISt6atomicIbEED1Ev
0000000000155e5a W _ZN9__gnu_cxx13new_allocatorISt6atomicIbEED2Ev
000000000017fe4a W _ZN9__gnu_cxx13new_allocatorISt6threadE10deallocateEPS1_m
000000000017ff14 W _ZN9__gnu_cxx13new_allocatorISt6threadE7destroyIS1_EEvPT_
00000000001814c4 W _ZN9__gnu_cxx13new_allocatorISt6threadE8allocateEmPKv
000000000017e5aa W _ZN9__gnu_cxx13new_allocatorISt6threadE9constructIS1_JS1_EEEvPT_DpOT0_
0000000000181490 W _ZN9__gnu_cxx13new_allocatorISt6threadEC1Ev
0000000000181490 W _ZN9__gnu_cxx13new_allocatorISt6threadEC2Ev
000000000017fd96 W _ZN9__gnu_cxx13new_allocatorISt6threadED1Ev
000000000017fd96 W _ZN9__gnu_cxx13new_allocatorISt6threadED2Ev
000000000015087a W _ZN9__gnu_cxx14__alloc_traitsISaIcEE15_S_always_equalEv
0000000000139d00 W _ZN9__gnu_cxx14__alloc_traitsISaIcEE17_S_select_on_copyERKS1_
0000000000150ace W _ZN9__gnu_cxx14__alloc_traitsISaIcEE27_S_propagate_on_copy_assignEv
000000000015086f W _ZN9__gnu_cxx14__alloc_traitsISaIcEE27_S_propagate_on_move_assignEv
000000000017b72b W _ZN9__gnu_cxx14__alloc_traitsISaINSt7__cxx1112basic_stringIcSt11char_traitsIcESaIcEEEEE17_S_select_on_copyERKS7_
00000000001452e0 W _ZN9__gnu_cxx14__alloc_traitsISaINSt8__detail10_Hash_nodeIPN2us3gov6socket6clientELb0EEEEE15_S_always_equalEv
00000000001452d5 W _ZN9__gnu_cxx14__alloc_traitsISaINSt8__detail10_Hash_nodeIPN2us3gov6socket6clientELb0EEEEE27_S_propagate_on_copy_assignEv
000000000014577c W _ZN9__gnu_cxx14__alloc_traitsISaINSt8__detail10_Hash_nodeISt4pairIKiPN2us3gov6socket6clientEELb0EEEEE15_S_always_equalEv
0000000000145771 W _ZN9__gnu_cxx14__alloc_traitsISaINSt8__detail10_Hash_nodeISt4pairIKiPN2us3gov6socket6clientEELb0EEEEE27_S_propagate_on_copy_assignEv
000000000015d622 W _ZN9__gnu_cxx14__alloc_traitsISaIPN2us3gov4peer6peer_tEEE15_S_always_equalEv
000000000015d617 W _ZN9__gnu_cxx14__alloc_traitsISaIPN2us3gov4peer6peer_tEEE27_S_propagate_on_copy_assignEv
0000000000190dd4 W _ZN9__gnu_cxx14__alloc_traitsISaISt13_Rb_tree_nodeISt4pairIKN2us3gov6crypto9ripemd16010value_typeENS4_4cash3app11local_delta9account_tEEEEE15_S_always_equalEv
0000000000196def W _ZN9__gnu_cxx14__alloc_traitsISaISt13_Rb_tree_nodeISt4pairIKN2us3gov6crypto9ripemd16010value_typeENS4_4cash3app11local_delta9account_tEEEEE17_S_select_on_copyERKSF_
0000000000190dc9 W _ZN9__gnu_cxx14__alloc_traitsISaISt13_Rb_tree_nodeISt4pairIKN2us3gov6crypto9ripemd16010value_typeENS4_4cash3app11local_delta9account_tEEEEE27_S_propagate_on_copy_assignEv
000000000017896e W _ZN9__gnu_cxx16__aligned_bufferIiE6_M_ptrEv
000000000017907c W _ZN9__gnu_cxx16__aligned_bufferIiE7_M_addrEv
0000000000160fc2 W _ZN9__gnu_cxx16__aligned_bufferIN2us3gov6crypto9ripemd16010value_typeEE6_M_ptrEv
0000000000161710 W _ZN9__gnu_cxx16__aligned_bufferIN2us3gov6crypto9ripemd16010value_typeEE7_M_addrEv
000000000016132c W _ZN9__gnu_cxx16__aligned_bufferINSt7__cxx1112basic_stringIcSt11char_traitsIcESaIcEEEE6_M_ptrEv
00000000001617b6 W _ZN9__gnu_cxx16__aligned_bufferINSt7__cxx1112basic_stringIcSt11char_traitsIcESaIcEEEE7_M_addrEv
000000000014e2b4 W _ZN9__gnu_cxx16__aligned_bufferIPN2us3gov14signal_handler8callbackEE6_M_ptrEv
000000000014ef58 W _ZN9__gnu_cxx16__aligned_bufferIPN2us3gov14signal_handler8callbackEE7_M_addrEv
000000000014bbe0 W _ZN9__gnu_cxx16__aligned_bufferIPN2us3gov6socket6clientEE6_M_ptrEv
000000000014d88e W _ZN9__gnu_cxx16__aligned_bufferIPN2us3gov6socket6clientEE7_M_addrEv
0000000000159500 W _ZN9__gnu_cxx16__aligned_bufferISt13packaged_taskIFviEEE6_M_ptrEv
0000000000159646 W _ZN9__gnu_cxx16__aligned_bufferISt13packaged_taskIFviEEE7_M_addrEv
000000000017ed3c W _ZN9__gnu_cxx16__aligned_bufferISt4pairIKiPN2us3gov10blockchain3appEEE6_M_ptrEv
0000000000180354 W _ZN9__gnu_cxx16__aligned_bufferISt4pairIKiPN2us3gov10blockchain3appEEE7_M_addrEv
00000000001494ea W _ZN9__gnu_cxx16__aligned_bufferISt4pairIKiPN2us3gov6socket6clientEEE6_M_ptrEv
000000000014b6b2 W _ZN9__gnu_cxx16__aligned_bufferISt4pairIKiPN2us3gov6socket6clientEEE7_M_addrEv
0000000000194852 W _ZN9__gnu_cxx16__aligned_bufferISt4pairIKN2us3gov4cash3app11local_deltaEmEE6_M_ptrEv
000000000019533c W _ZN9__gnu_cxx16__aligned_bufferISt4pairIKN2us3gov4cash3app11local_deltaEmEE7_M_addrEv
000000000018476a W _ZN9__gnu_cxx16__aligned_bufferISt4pairIKN2us3gov6crypto9ripemd16010value_typeEmEE6_M_ptrEv
0000000000184b20 W _ZN9__gnu_cxx16__aligned_bufferISt4pairIKN2us3gov6crypto9ripemd16010value_typeEmEE7_M_addrEv
0000000000193358 W _ZN9__gnu_cxx16__aligned_bufferISt4pairIKN2us3gov6crypto9ripemd16010value_typeENS3_4cash3app11local_delta9account_tEEE6_M_ptrEv
000000000019402c W _ZN9__gnu_cxx16__aligned_bufferISt4pairIKN2us3gov6crypto9ripemd16010value_typeENS3_4cash3app11local_delta9account_tEEE7_M_addrEv
00000000001763dc W _ZN9__gnu_cxx16__aligned_bufferISt4pairIKN2us3gov6crypto9ripemd16010value_typeENSt7__cxx1112basic_stringIcSt11char_traitsIcESaIcEEEEE6_M_ptrEv
00000000001779e0 W _ZN9__gnu_cxx16__aligned_bufferISt4pairIKN2us3gov6crypto9ripemd16010value_typeENSt7__cxx1112basic_stringIcSt11char_traitsIcESaIcEEEEE7_M_addrEv
000000000017ee2a W _ZN9__gnu_cxx16__aligned_bufferISt4pairIKN2us3gov6crypto9ripemd16010value_typeES1_IS6_mEEE6_M_ptrEv
00000000001804a4 W _ZN9__gnu_cxx16__aligned_bufferISt4pairIKN2us3gov6crypto9ripemd16010value_typeES1_IS6_mEEE7_M_addrEv
000000000017f21a W _ZN9__gnu_cxx16__aligned_bufferISt4pairIKPN2us3gov10blockchain6peer_tENS4_5shellEEE6_M_ptrEv
0000000000180cc4 W _ZN9__gnu_cxx16__aligned_bufferISt4pairIKPN2us3gov10blockchain6peer_tENS4_5shellEEE7_M_addrEv
000000000014c534 W _ZN9__gnu_cxx16__aligned_bufferISt4pairIKPN2us3gov6socket6clientENSt6chrono10time_pointINS8_3_V212steady_clockENS8_8durationIlSt5ratioILl1ELl1000000000EEEEEEEE6_M_ptrEv
000000000014dd8a W _ZN9__gnu_cxx16__aligned_bufferISt4pairIKPN2us3gov6socket6clientENSt6chrono10time_pointINS8_3_V212steady_clockENS8_8durationIlSt5ratioILl1ELl1000000000EEEEEEEE7_M_addrEv
000000000015915a W _ZN9__gnu_cxx16__aligned_bufferISt6atomicIbEE6_M_ptrEv
000000000015945a W _ZN9__gnu_cxx16__aligned_bufferISt6atomicIbEE7_M_addrEv
0000000000170d10 W _ZN9__gnu_cxx16__aligned_membufISt4pairIKiPN2us3gov10blockchain3app11local_deltaEEE6_M_ptrEv
00000000001715e6 W _ZN9__gnu_cxx16__aligned_membufISt4pairIKiPN2us3gov10blockchain3app11local_deltaEEE7_M_addrEv
0000000000170054 W _ZN9__gnu_cxx16__aligned_membufISt4pairIKiPN2us3gov10blockchain3app5deltaEEE6_M_ptrEv
0000000000170eb4 W _ZN9__gnu_cxx16__aligned_membufISt4pairIKiPN2us3gov10blockchain3app5deltaEEE7_M_addrEv
0000000000170d2a W _ZN9__gnu_cxx16__aligned_membufISt4pairIKN2us3gov6crypto9ripemd16010value_typeEmEE6_M_ptrEv
00000000001715f4 W _ZN9__gnu_cxx16__aligned_membufISt4pairIKN2us3gov6crypto9ripemd16010value_typeEmEE7_M_addrEv
0000000000192dda W _ZN9__gnu_cxx16__aligned_membufISt4pairIKN2us3gov6crypto9ripemd16010value_typeENS3_4cash3app11local_delta9account_tEEE6_M_ptrEv
0000000000193c18 W _ZN9__gnu_cxx16__aligned_membufISt4pairIKN2us3gov6crypto9ripemd16010value_typeENS3_4cash3app11local_delta9account_tEEE7_M_addrEv
00000000001786e4 W _ZN9__gnu_cxx16__aligned_membufISt4pairIKN2us3gov6crypto9ripemd16010value_typeENSt7__cxx1112basic_stringIcSt11char_traitsIcESaIcEEEEE6_M_ptrEv
0000000000179010 W _ZN9__gnu_cxx16__aligned_membufISt4pairIKN2us3gov6crypto9ripemd16010value_typeENSt7__cxx1112basic_stringIcSt11char_traitsIcESaIcEEEEE7_M_addrEv
000000000013b5d8 W _ZN9__gnu_cxx17__is_null_pointerIcEEbPT_
0000000000133fc6 W _ZN9__gnu_cxx17__is_null_pointerIKcEEbPT_
0000000000162306 W _ZN9__gnu_cxx17__normal_iteratorIPcNSt7__cxx1112basic_stringIcSt11char_traitsIcESaIcEEEEC1ERKS1_
0000000000162306 W _ZN9__gnu_cxx17__normal_iteratorIPcNSt7__cxx1112basic_stringIcSt11char_traitsIcESaIcEEEEC2ERKS1_
0000000000132562 W _ZN9__gnu_cxx17__normal_iteratorIPhSt6vectorIhSaIhEEEC1ERKS1_
0000000000132562 W _ZN9__gnu_cxx17__normal_iteratorIPhSt6vectorIhSaIhEEEC2ERKS1_
0000000000131be8 W _ZN9__gnu_cxx17__normal_iteratorIPhSt6vectorIhSaIhEEEmmEv
0000000000131ca6 W _ZN9__gnu_cxx17__normal_iteratorIPhSt6vectorIhSaIhEEEppEi
0000000000146b0c W _ZN9__gnu_cxx17__normal_iteratorIPiSt6vectorIiSaIiEEEC1ERKS1_
0000000000146b0c W _ZN9__gnu_cxx17__normal_iteratorIPiSt6vectorIiSaIiEEEC2ERKS1_
0000000000145134 W _ZN9__gnu_cxx17__normal_iteratorIPiSt6vectorIiSaIiEEEppEv
0000000000134ade W _ZN9__gnu_cxx17__normal_iteratorIPKhSt6vectorIhSaIhEEEC1ERKS2_
0000000000134ade W _ZN9__gnu_cxx17__normal_iteratorIPKhSt6vectorIhSaIhEEEC2ERKS2_
0000000000134b24 W _ZN9__gnu_cxx17__normal_iteratorIPKhSt6vectorIhSaIhEEEmmEv
0000000000134710 W _ZN9__gnu_cxx17__normal_iteratorIPKhSt6vectorIhSaIhEEEppEv
000000000018e18c W _ZN9__gnu_cxx17__normal_iteratorIPKN2us3gov4cash2tx7input_tESt6vectorIS5_SaIS5_EEEC1ERKS7_
000000000018e18c W _ZN9__gnu_cxx17__normal_iteratorIPKN2us3gov4cash2tx7input_tESt6vectorIS5_SaIS5_EEEC2ERKS7_
000000000018da0e W _ZN9__gnu_cxx17__normal_iteratorIPKN2us3gov4cash2tx7input_tESt6vectorIS5_SaIS5_EEEppEv
000000000018e304 W _ZN9__gnu_cxx17__normal_iteratorIPKN2us3gov4cash2tx8output_tESt6vectorIS5_SaIS5_EEEC1ERKS7_
000000000018e304 W _ZN9__gnu_cxx17__normal_iteratorIPKN2us3gov4cash2tx8output_tESt6vectorIS5_SaIS5_EEEC2ERKS7_
000000000018dc72 W _ZN9__gnu_cxx17__normal_iteratorIPKN2us3gov4cash2tx8output_tESt6vectorIS5_SaIS5_EEEppEv
000000000017e14e W _ZN9__gnu_cxx17__normal_iteratorIPKN2us3gov6crypto9ripemd16010value_typeESt6vectorIS5_SaIS5_EEEC1ERKS7_
000000000017e14e W _ZN9__gnu_cxx17__normal_iteratorIPKN2us3gov6crypto9ripemd16010value_typeESt6vectorIS5_SaIS5_EEEC2ERKS7_
000000000017a85c W _ZN9__gnu_cxx17__normal_iteratorIPKN2us3gov6crypto9ripemd16010value_typeESt6vectorIS5_SaIS5_EEEmmEv
000000000017ceee W _ZN9__gnu_cxx17__normal_iteratorIPKNSt7__cxx1112basic_stringIcSt11char_traitsIcESaIcEEESt6vectorIS6_SaIS6_EEEC1ERKS8_
000000000017ceee W _ZN9__gnu_cxx17__normal_iteratorIPKNSt7__cxx1112basic_stringIcSt11char_traitsIcESaIcEEESt6vectorIS6_SaIS6_EEEC2ERKS8_
000000000017e8e6 W _ZN9__gnu_cxx17__normal_iteratorIPKNSt7__cxx1112basic_stringIcSt11char_traitsIcESaIcEEESt6vectorIS6_SaIS6_EEEpLEl
0000000000180d0e W _ZN9__gnu_cxx17__normal_iteratorIPKNSt7__cxx1112basic_stringIcSt11char_traitsIcESaIcEEESt6vectorIS6_SaIS6_EEEppEv
000000000017e9e4 W _ZN9__gnu_cxx17__normal_iteratorIPKPN2us3gov10blockchain6peer_tESt6vectorIS5_SaIS5_EEEC1ERKS7_
000000000017e9e4 W _ZN9__gnu_cxx17__normal_iteratorIPKPN2us3gov10blockchain6peer_tESt6vectorIS5_SaIS5_EEEC2ERKS7_
000000000015daa0 W _ZN9__gnu_cxx17__normal_iteratorIPKPN2us3gov4peer6peer_tESt6vectorIS5_SaIS5_EEEC1ERKS7_
000000000015daa0 W _ZN9__gnu_cxx17__normal_iteratorIPKPN2us3gov4peer6peer_tESt6vectorIS5_SaIS5_EEEC2ERKS7_
000000000015cf9a W _ZN9__gnu_cxx17__normal_iteratorIPKPN2us3gov4peer6peer_tESt6vectorIS5_SaIS5_EEEppEv
0000000000174c28 W _ZN9__gnu_cxx17__normal_iteratorIPKSt4pairIN2us3gov6crypto9ripemd16010value_typeENSt7__cxx1112basic_stringIcSt11char_traitsIcESaIcEEEESt6vectorISD_SaISD_EEEC1ERKSF_
0000000000174c28 W _ZN9__gnu_cxx17__normal_iteratorIPKSt4pairIN2us3gov6crypto9ripemd16010value_typeENSt7__cxx1112basic_stringIcSt11char_traitsIcESaIcEEEESt6vectorISD_SaISD_EEEC2ERKSF_
0000000000173978 W _ZN9__gnu_cxx17__normal_iteratorIPKSt4pairIN2us3gov6crypto9ripemd16010value_typeENSt7__cxx1112basic_stringIcSt11char_traitsIcESaIcEEEESt6vectorISD_SaISD_EEEppEv
000000000018eff0 W _ZN9__gnu_cxx17__normal_iteratorIPN2us3gov4cash2tx7input_tESt6vectorIS5_SaIS5_EEEC1ERKS6_
000000000018eff0 W _ZN9__gnu_cxx17__normal_iteratorIPN2us3gov4cash2tx7input_tESt6vectorIS5_SaIS5_EEEC2ERKS6_
000000000018f574 W _ZN9__gnu_cxx17__normal_iteratorIPN2us3gov4cash2tx8output_tESt6vectorIS5_SaIS5_EEEC1ERKS6_
000000000018f574 W _ZN9__gnu_cxx17__normal_iteratorIPN2us3gov4cash2tx8output_tESt6vectorIS5_SaIS5_EEEC2ERKS6_
000000000017c146 W _ZN9__gnu_cxx17__normal_iteratorIPN2us3gov6crypto9ripemd16010value_typeESt6vectorIS5_SaIS5_EEEC1ERKS6_
000000000017c146 W _ZN9__gnu_cxx17__normal_iteratorIPN2us3gov6crypto9ripemd16010value_typeESt6vectorIS5_SaIS5_EEEC2ERKS6_
00000000001906f4 W _ZN9__gnu_cxx17__normal_iteratorIPN2us3gov6crypto9ripemd16010value_typeESt6vectorIS5_SaIS5_EEEppEv
000000000015015e W _ZN9__gnu_cxx17__normal_iteratorIPNSt7__cxx1112basic_stringIcSt11char_traitsIcESaIcEEESt6vectorIS6_SaIS6_EEEC1ERKS7_
000000000015015e W _ZN9__gnu_cxx17__normal_iteratorIPNSt7__cxx1112basic_stringIcSt11char_traitsIcESaIcEEESt6vectorIS6_SaIS6_EEEC2ERKS7_
00000000001721d2 W _ZN9__gnu_cxx17__normal_iteratorIPNSt7__cxx1112basic_stringIcSt11char_traitsIcESaIcEEESt6vectorIS6_SaIS6_EEEppEv
00000000001721f2 W _ZN9__gnu_cxx17__normal_iteratorIPPN2us3gov10blockchain6peer_tESt6vectorIS5_SaIS5_EEEC1ERKS6_
00000000001721f2 W _ZN9__gnu_cxx17__normal_iteratorIPPN2us3gov10blockchain6peer_tESt6vectorIS5_SaIS5_EEEC2ERKS6_
000000000017ea10 W _ZN9__gnu_cxx17__normal_iteratorIPPN2us3gov10blockchain6peer_tESt6vectorIS5_SaIS5_EEEpLEl
00000000001720be W _ZN9__gnu_cxx17__normal_iteratorIPPN2us3gov10blockchain6peer_tESt6vectorIS5_SaIS5_EEEppEv
00000000001873a8 W _ZN9__gnu_cxx17__normal_iteratorIPPN2us3gov4auth6peer_tESt6vectorIS5_SaIS5_EEEC1ERKS6_
00000000001873a8 W _ZN9__gnu_cxx17__normal_iteratorIPPN2us3gov4auth6peer_tESt6vectorIS5_SaIS5_EEEC2ERKS6_
0000000000187376 W _ZN9__gnu_cxx17__normal_iteratorIPPN2us3gov4auth6peer_tESt6vectorIS5_SaIS5_EEEppEv
000000000015dc3c W _ZN9__gnu_cxx17__normal_iteratorIPPN2us3gov4peer6peer_tESt6vectorIS5_SaIS5_EEEC1ERKS6_
000000000015dc3c W _ZN9__gnu_cxx17__normal_iteratorIPPN2us3gov4peer6peer_tESt6vectorIS5_SaIS5_EEEC2ERKS6_
000000000015d124 W _ZN9__gnu_cxx17__normal_iteratorIPPN2us3gov4peer6peer_tESt6vectorIS5_SaIS5_EEEppEv
0000000000148c54 W _ZN9__gnu_cxx17__normal_iteratorIPPN2us3gov6socket6clientESt6vectorIS5_SaIS5_EEEC1ERKS6_
0000000000148c54 W _ZN9__gnu_cxx17__normal_iteratorIPPN2us3gov6socket6clientESt6vectorIS5_SaIS5_EEEC2ERKS6_
00000000001463d8 W _ZN9__gnu_cxx17__normal_iteratorIPPN2us3gov6socket6clientESt6vectorIS5_SaIS5_EEEppEv
00000000001742a2 W _ZN9__gnu_cxx17__normal_iteratorIPSt4pairIN2us3gov6crypto9ripemd16010value_typeENSt7__cxx1112basic_stringIcSt11char_traitsIcESaIcEEEESt6vectorISD_SaISD_EEEC1ERKSE_
00000000001742a2 W _ZN9__gnu_cxx17__normal_iteratorIPSt4pairIN2us3gov6crypto9ripemd16010value_typeENSt7__cxx1112basic_stringIcSt11char_traitsIcESaIcEEEESt6vectorISD_SaISD_EEEC2ERKSE_
00000000001731c8 W _ZN9__gnu_cxx17__normal_iteratorIPSt4pairIN2us3gov6crypto9ripemd16010value_typeENSt7__cxx1112basic_stringIcSt11char_traitsIcESaIcEEEESt6vectorISD_SaISD_EEEppEv
000000000017ce2e W _ZN9__gnu_cxx17__normal_iteratorIPSt6threadSt6vectorIS1_SaIS1_EEEC1ERKS2_
000000000017ce2e W _ZN9__gnu_cxx17__normal_iteratorIPSt6threadSt6vectorIS1_SaIS1_EEEC2ERKS2_
000000000017af12 W _ZN9__gnu_cxx17__normal_iteratorIPSt6threadSt6vectorIS1_SaIS1_EEEppEv
00000000001871b0 W _ZN9__gnu_cxx6__stoaIlicJiEEET0_PFT_PKT1_PPS3_DpT2_EPKcS5_PmS9_
00000000001333c7 W _ZN9__gnu_cxxeqIPhSt6vectorIhSaIhEEEEbRKNS_17__normal_iteratorIT_T0_EESA_
0000000000134b44 W _ZN9__gnu_cxxeqIPKhSt6vectorIhSaIhEEEEbRKNS_17__normal_iteratorIT_T0_EESB_
000000000017c109 W _ZN9__gnu_cxxeqIPKN2us3gov6crypto9ripemd16010value_typeESt6vectorIS5_SaIS5_EEEEbRKNS_17__normal_iteratorIT_T0_EESG_
000000000017ceb2 W _ZN9__gnu_cxxeqIPKNSt7__cxx1112basic_stringIcSt11char_traitsIcESaIcEEESt6vectorIS6_SaIS6_EEEEbRKNS_17__normal_iteratorIT_T0_EESH_
000000000017d09b W _ZN9__gnu_cxxeqIPKPN2us3gov10blockchain6peer_tESt6vectorIS5_SaIS5_EEEEbRKNS_17__normal_iteratorIT_T0_EESG_
000000000015d98f W _ZN9__gnu_cxxeqIPPN2us3gov4peer6peer_tESt6vectorIS5_SaIS5_EEEEbRKNS_17__normal_iteratorIT_T0_EESF_
0000000000131ce4 W _ZN9__gnu_cxxmiIPhSt6vectorIhSaIhEEEENS_17__normal_iteratorIT_T0_E15difference_typeERKS8_SB_
000000000014a207 W _ZN9__gnu_cxxmiIPiSt6vectorIiSaIiEEEENS_17__normal_iteratorIT_T0_E15difference_typeERKS8_SB_
000000000018f0fd W _ZN9__gnu_cxxmiIPN2us3gov4cash2tx7input_tESt6vectorIS5_SaIS5_EEEENS_17__normal_iteratorIT_T0_E15difference_typeERKSD_SG_
000000000018f681 W _ZN9__gnu_cxxmiIPN2us3gov4cash2tx8output_tESt6vectorIS5_SaIS5_EEEENS_17__normal_iteratorIT_T0_E15difference_typeERKSD_SG_
000000000017e063 W _ZN9__gnu_cxxmiIPN2us3gov6crypto9ripemd16010value_typeESt6vectorIS5_SaIS5_EEEENS_17__normal_iteratorIT_T0_E15difference_typeERKSD_SG_
000000000015026b W _ZN9__gnu_cxxmiIPNSt7__cxx1112basic_stringIcSt11char_traitsIcESaIcEEESt6vectorIS6_SaIS6_EEEENS_17__normal_iteratorIT_T0_E15difference_typeERKSE_SH_
000000000017eb91 W _ZN9__gnu_cxxmiIPPN2us3gov10blockchain6peer_tESt6vectorIS5_SaIS5_EEEENS_17__normal_iteratorIT_T0_E15difference_typeERKSD_SG_
000000000015e8ff W _ZN9__gnu_cxxmiIPPN2us3gov4peer6peer_tESt6vectorIS5_SaIS5_EEEENS_17__normal_iteratorIT_T0_E15difference_typeERKSD_SG_
000000000014a605 W _ZN9__gnu_cxxmiIPPN2us3gov6socket6clientESt6vectorIS5_SaIS5_EEEENS_17__normal_iteratorIT_T0_E15difference_typeERKSD_SG_
0000000000176ae9 W _ZN9__gnu_cxxmiIPSt4pairIN2us3gov6crypto9ripemd16010value_typeENSt7__cxx1112basic_stringIcSt11char_traitsIcESaIcEEEESt6vectorISD_SaISD_EEEENS_17__normal_iteratorIT_T0_E15difference_typeERKSL_SO_
000000000017e6bb W _ZN9__gnu_cxxmiIPSt6threadSt6vectorIS1_SaIS1_EEEENS_17__normal_iteratorIT_T0_E15difference_typeERKS9_SC_
0000000000131c69 W _ZN9__gnu_cxxneIPhSt6vectorIhSaIhEEEEbRKNS_17__normal_iteratorIT_T0_EESA_
00000000001450f7 W _ZN9__gnu_cxxneIPiSt6vectorIiSaIiEEEEbRKNS_17__normal_iteratorIT_T0_EESA_
00000000001346d3 W _ZN9__gnu_cxxneIPKhSt6vectorIhSaIhEEEEbRKNS_17__normal_iteratorIT_T0_EESB_
000000000018d9d1 W _ZN9__gnu_cxxneIPKN2us3gov4cash2tx7input_tESt6vectorIS5_SaIS5_EEEEbRKNS_17__normal_iteratorIT_T0_EESG_
000000000018dc35 W _ZN9__gnu_cxxneIPKN2us3gov4cash2tx8output_tESt6vectorIS5_SaIS5_EEEEbRKNS_17__normal_iteratorIT_T0_EESG_
0000000000180cd2 W _ZN9__gnu_cxxneIPKNSt7__cxx1112basic_stringIcSt11char_traitsIcESaIcEEESt6vectorIS6_SaIS6_EEEEbRKNS_17__normal_iteratorIT_T0_EESH_
000000000015cf5d W _ZN9__gnu_cxxneIPKPN2us3gov4peer6peer_tESt6vectorIS5_SaIS5_EEEEbRKNS_17__normal_iteratorIT_T0_EESG_
000000000017393b W _ZN9__gnu_cxxneIPKSt4pairIN2us3gov6crypto9ripemd16010value_typeENSt7__cxx1112basic_stringIcSt11char_traitsIcESaIcEEEESt6vectorISD_SaISD_EEEEbRKNS_17__normal_iteratorIT_T0_EESO_
00000000001906b8 W _ZN9__gnu_cxxneIPN2us3gov6crypto9ripemd16010value_typeESt6vectorIS5_SaIS5_EEEEbRKNS_17__normal_iteratorIT_T0_EESF_
0000000000172195 W _ZN9__gnu_cxxneIPNSt7__cxx1112basic_stringIcSt11char_traitsIcESaIcEEESt6vectorIS6_SaIS6_EEEEbRKNS_17__normal_iteratorIT_T0_EESG_
0000000000172081 W _ZN9__gnu_cxxneIPPN2us3gov10blockchain6peer_tESt6vectorIS5_SaIS5_EEEEbRKNS_17__normal_iteratorIT_T0_EESF_
0000000000187339 W _ZN9__gnu_cxxneIPPN2us3gov4auth6peer_tESt6vectorIS5_SaIS5_EEEEbRKNS_17__normal_iteratorIT_T0_EESF_
000000000015d0e7 W _ZN9__gnu_cxxneIPPN2us3gov4peer6peer_tESt6vectorIS5_SaIS5_EEEEbRKNS_17__normal_iteratorIT_T0_EESF_
000000000014639b W _ZN9__gnu_cxxneIPPN2us3gov6socket6clientESt6vectorIS5_SaIS5_EEEEbRKNS_17__normal_iteratorIT_T0_EESF_
000000000017318b W _ZN9__gnu_cxxneIPSt4pairIN2us3gov6crypto9ripemd16010value_typeENSt7__cxx1112basic_stringIcSt11char_traitsIcESaIcEEEESt6vectorISD_SaISD_EEEEbRKNS_17__normal_iteratorIT_T0_EESN_
000000000017aed5 W _ZN9__gnu_cxxneIPSt6threadSt6vectorIS1_SaIS1_EEEEbRKNS_17__normal_iteratorIT_T0_EESB_
0000000000173f5a W _ZNK2us3gov10blockchain10policies_tIdNS1_4auth15policies_traitsEE4hashERNS0_6crypto9ripemd160E
0000000000163572 T _ZNK2us3gov10blockchain11signed_data6verifyEv
00000000001624fc T _ZNK2us3gov10blockchain12local_deltas15message_to_signB5cxx11Ev
0000000000162686 T _ZNK2us3gov10blockchain12local_deltas9to_streamERSo
0000000000190be2 W _ZNK2us3gov10blockchain13policies_baseIdNS0_4cash3app15policies_traitsEE9to_streamERSo
0000000000173c76 W _ZNK2us3gov10blockchain13policies_baseIdNS1_4auth15policies_traitsEE9to_streamERSo
0000000000185894 W _ZNK2us3gov10blockchain13policies_baseINS0_6crypto9ripemd16010value_typeENS0_3rep15policies_traitsEE9to_streamERSo
000000000019995a W _ZNK2us3gov10blockchain13policies_baseINS0_6crypto9ripemd16010value_typeENS0_4loan15policies_traitsEE9to_streamERSo
0000000000174404 W _ZNK2us3gov10blockchain14average_mergerIdE5mergeERdRKd
00000000001796a0 W _ZNK2us3gov10blockchain14average_mergerIdE9end_mergeERdRKm
0000000000190b2e W _ZNK2us3gov10blockchain20policies_local_deltaIdNS0_4cash3app15policies_traitsEE9to_streamERSo
00000000001739aa W _ZNK2us3gov10blockchain20policies_local_deltaIdNS1_4auth15policies_traitsEE9to_streamERSo
0000000000185732 W _ZNK2us3gov10blockchain20policies_local_deltaINS0_6crypto9ripemd16010value_typeENS0_3rep15policies_traitsEE9to_streamERSo
0000000000199902 W _ZNK2us3gov10blockchain20policies_local_deltaINS0_6crypto9ripemd16010value_typeENS0_4loan15policies_traitsEE9to_streamERSo
0000000000165554 T _ZNK2us3gov10blockchain4auth3app11local_delta6app_idEv
000000000016556e T _ZNK2us3gov10blockchain4auth3app11local_delta9to_streamERSo
00000000001667de T _ZNK2us3gov10blockchain4auth3app13dump_policiesERSo
0000000000166178 T _ZNK2us3gov10blockchain4auth3app15get_random_nodeERSt23mersenne_twister_engineImLm64ELm312ELm156ELm31ELm13043109905998158313ELm29ELm6148914691236517205ELm17ELm8202884508482404352ELm37ELm18444473444759240704ELm43ELm6364136223846793005EERKSt13unordered_setINSt7__cxx1112basic_stringIcSt11char_traitsIcESaIcEEESt4hashISD_ESt8equal_toISD_ESaISD_EE
0000000000165e98 T _ZNK2us3gov10blockchain4auth3app4db_t4dumpERSo
0000000000166a06 T _ZNK2us3gov10blockchain4auth3app4db_t4hashERNS0_6crypto9ripemd160E
0000000000165c18 T _ZNK2us3gov10blockchain4auth3app4db_t9get_stageERKNS0_6crypto9ripemd16010value_typeE
00000000001657d2 T _ZNK2us3gov10blockchain4auth3app5delta9to_streamERSo
0000000000166978 T _ZNK2us3gov10blockchain4auth3app6dbhashERNS0_6crypto9ripemd160E
0000000000172aa8 W _ZNK2us3gov10blockchain4auth3app6get_idEv
00000000001798b4 W _ZNK2us3gov10blockchain4auth3app7is_nodeEv
0000000000172a36 W _ZNK2us3gov10blockchain4auth3app8get_nameB5cxx11Ev
0000000000164b3a T _ZNK2us3gov10blockchain4auth3app8my_stageEv
00000000001630ee T _ZNK2us3gov10blockchain4diff4hashEv
000000000016290e T _ZNK2us3gov10blockchain4diff9to_streamERSo
000000000018fc9e W _ZNK2us3gov10blockchain5pow_t3sumEv
0000000000163658 T _ZNK2us3gov10blockchain5shell4helpERSo
00000000001686bc T _ZNK2us3gov10blockchain6daemon10dbhash_offEv
000000000016a594 T _ZNK2us3gov10blockchain6daemon10load_blockB5cxx11ERKNS0_6crypto9ripemd16010value_typeE
000000000016a38e T _ZNK2us3gov10blockchain6daemon10load_blockERKNSt7__cxx1112basic_stringIcSt11char_traitsIcESaIcEEE
0000000000169650 T _ZNK2us3gov10blockchain6daemon10networking15get_random_peerERKSt13unordered_setINSt7__cxx1112basic_stringIcSt11char_traitsIcESaIcEEESt4hashISA_ESt8equal_toISA_ESaISA_EE
0000000000171f3c W _ZNK2us3gov10blockchain6daemon10networking4dumpERSo
000000000016d964 T _ZNK2us3gov10blockchain6daemon13shell_commandEiRKNSt7__cxx1112basic_stringIcSt11char_traitsIcESaIcEEE
000000000016a2c4 T _ZNK2us3gov10blockchain6daemon15get_random_nodeERKSt13unordered_setINSt7__cxx1112basic_stringIcSt11char_traitsIcESaIcEEESt4hashIS9_ESt8equal_toIS9_ESaIS9_EE
00000000001687b6 T _ZNK2us3gov10blockchain6daemon23get_last_block_importedEv
000000000016d886 T _ZNK2us3gov10blockchain6daemon4apps13shell_commandEiRKNSt7__cxx1112basic_stringIcSt11char_traitsIcESaIcEEE
000000000016d9a0 T _ZNK2us3gov10blockchain6daemon4apps4dumpERSo
000000000016dae8 T _ZNK2us3gov10blockchain6daemon4dumpERSo
0000000000169a4a T _ZNK2us3gov10blockchain6daemon4saveERKNS1_4diffE
0000000000168002 T _ZNK2us3gov10blockchain6daemon5syncd4dumpERSo
0000000000167f8c T _ZNK2us3gov10blockchain6daemon5syncd7in_syncEv
000000000016a822 T _ZNK2us3gov10blockchain6daemon8get_prevERKNS0_6crypto9ripemd16010value_typeERS5_
0000000000169a12 T _ZNK2us3gov10blockchain6daemon9blocksdirB5cxx11Ev
000000000016daba T _ZNK2us3gov10blockchain6daemon9list_appsERSo
00000000001633dc T _ZNK2us3gov10blockchain6peer_t4dumpERSo
000000000016bdf2 T _ZNK2us3gov10blockchain7cycle_t3strB5cxx11ENS2_5stageE
000000000019734c T _ZNK2us3gov3rep11local_delta6app_idEv
000000000019781e T _ZNK2us3gov3rep11local_delta9to_streamERSo
0000000000197d70 T _ZNK2us3gov3rep3app13dump_policiesERSo
0000000000197788 T _ZNK2us3gov3rep3app4db_t4dumpERSo
0000000000197366 T _ZNK2us3gov3rep3app6dbhashERNS0_6crypto9ripemd160E
0000000000198102 W _ZNK2us3gov3rep3app6get_idEv
000000000019809a W _ZNK2us3gov3rep3app8get_nameB5cxx11Ev
0000000000197876 T _ZNK2us3gov3rep5delta9to_streamERSo
0000000000186f22 T _ZNK2us3gov4auth6daemon4dumpERSo
0000000000185bc6 T _ZNK2us3gov4auth6peer_t4dumpERSo
00000000001888ee T _ZNK2us3gov4cash2tx12get_datagramEv
0000000000187800 T _ZNK2us3gov4cash2tx12write_prettyERSo
000000000018777a T _ZNK2us3gov4cash2tx12write_sigmsgERNS0_6crypto13double_sha256Emh
000000000018897a T _ZNK2us3gov4cash2tx5checkEv
0000000000187978 T _ZNK2us3gov4cash2tx5writeERSo
00000000001879da T _ZNK2us3gov4cash2tx6to_b58B5cxx11Ev
00000000001882fa T _ZNK2us3gov4cash2tx7input_t12write_prettyERSo
0000000000188122 T _ZNK2us3gov4cash2tx7input_t12write_sigmsgERNS0_6crypto13double_sha256E
0000000000188180 T _ZNK2us3gov4cash2tx7input_t5writeERSo
0000000000188830 T _ZNK2us3gov4cash2tx8get_hashERKmh
0000000000187c2a T _ZNK2us3gov4cash2tx8inputs_t12write_prettyERSo
0000000000187b6c T _ZNK2us3gov4cash2tx8inputs_t12write_sigmsgERNS0_6crypto13double_sha256EmNS2_9sigcode_tE
0000000000187cf4 T _ZNK2us3gov4cash2tx8inputs_t5writeERSo
00000000001884f0 T _ZNK2us3gov4cash2tx8output_t12write_prettyERSo
000000000018841c T _ZNK2us3gov4cash2tx8output_t12write_sigmsgERNS0_6crypto13double_sha256E
0000000000188476 T _ZNK2us3gov4cash2tx8output_t5writeERSo
0000000000187fda T _ZNK2us3gov4cash2tx9outputs_t12write_prettyERSo
0000000000187e46 T _ZNK2us3gov4cash2tx9outputs_t12write_sigmsgERNS0_6crypto13double_sha256EmNS2_9sigcode_tE
0000000000187f2c T _ZNK2us3gov4cash2tx9outputs_t5writeERSo
000000000018c68a T _ZNK2us3gov4cash3app11local_delta10accounts_t11get_balanceEv
0000000000189964 T _ZNK2us3gov4cash3app11local_delta10accounts_t4dumpERSo
000000000018c720 T _ZNK2us3gov4cash3app11local_delta10accounts_t9to_streamERSo
000000000018c948 T _ZNK2us3gov4cash3app11local_delta12compute_hashEv
0000000000188d60 T _ZNK2us3gov4cash3app11local_delta6app_idEv
000000000018c8d2 T _ZNK2us3gov4cash3app11local_delta8get_hashEv
0000000000189906 T _ZNK2us3gov4cash3app11local_delta9account_t4dumpERSo
000000000018c3fe T _ZNK2us3gov4cash3app11local_delta9account_t9to_streamERSo
000000000018b6ca T _ZNK2us3gov4cash3app11local_delta9to_streamERSo
000000000018aacc T _ZNK2us3gov4cash3app13account_stateERKNS2_11local_delta7batch_tERKNS0_6crypto9ripemd16010value_typeERNS3_9account_tE
000000000018c06e T _ZNK2us3gov4cash3app13dump_policiesERSo
0000000000189a7e T _ZNK2us3gov4cash3app4db_t4dumpERSo
0000000000189b7a T _ZNK2us3gov4cash3app4db_t9to_streamERSo
000000000018b944 T _ZNK2us3gov4cash3app5delta9to_streamERSo
000000000018c00a T _ZNK2us3gov4cash3app6dbhashERNS0_6crypto9ripemd160E
000000000018fd8a W _ZNK2us3gov4cash3app6get_idEv
000000000018fd22 W _ZNK2us3gov4cash3app8get_nameB5cxx11Ev
000000000019867e T _ZNK2us3gov4loan11local_delta6app_idEv
0000000000198ada T _ZNK2us3gov4loan11local_delta9to_streamERSo
000000000019902c T _ZNK2us3gov4loan3app13dump_policiesERSo
0000000000198a44 T _ZNK2us3gov4loan3app4db_t4dumpERSo
0000000000198a34 T _ZNK2us3gov4loan3app6dbhashERNS0_6crypto9ripemd160E
0000000000199460 W _ZNK2us3gov4loan3app6get_idEv
00000000001993ee W _ZNK2us3gov4loan3app8get_nameB5cxx11Ev
0000000000198b32 T _ZNK2us3gov4loan5delta9to_streamERSo
000000000015ba10 T _ZNK2us3gov4peer6daemon10in_serviceERKNS2_5pub_tE
000000000015b9a0 T _ZNK2us3gov4peer6daemon10in_serviceEv
000000000015b1a0 T _ZNK2us3gov4peer6daemon15connected_peersEv
000000000015cb20 W _ZNK2us3gov4peer6daemon15get_random_peerERKSt13unordered_setINSt7__cxx1112basic_stringIcSt11char_traitsIcESaIcEEESt4hashIS9_ESt8equal_toIS9_ESaIS9_EE
000000000015c14c T _ZNK2us3gov4peer6daemon4dumpERSo
000000000015ca84 W _ZNK2us3gov4peer6daemon5pub_t4dumpERSo
000000000015c9fe W _ZNK2us3gov4peer6daemon5pub_t5asizeEv
000000000015b2bc T _ZNK2us3gov4peer6daemon6activeEv
000000000015bc5e T _ZNK2us3gov4peer6daemon6oldestERNS2_5pub_tE
000000000015ab44 T _ZNK2us3gov4peer6peer_t4dumpERSo
000000000015a740 T _ZNK2us3gov4peer6peer_t7is_slowEv
000000000012ac4e T _ZNK2us3gov6crypto2ec11sign_encodeB5cxx11ERKNS2_4keys6priv_tERKNS1_6sha25610value_typeE
000000000012abd6 T _ZNK2us3gov6crypto2ec11sign_encodeERKNS2_4keys6priv_tERKNSt7__cxx1112basic_stringIcSt11char_traitsIcESaIcEEE
0000000000129b8c T _ZNK2us3gov6crypto2ec4keys4dumpERSo
0000000000129c6e T _ZNK2us3gov6crypto2ec4keys5pub_t12compute_hashEv
000000000016e4be W _ZNK2us3gov6crypto2ec4keys5pub_t4hashEv
0000000000129e58 T _ZNK2us3gov6crypto2ec4keys5pub_t6to_b58B5cxx11Ev
0000000000129eba T _ZNK2us3gov6crypto2ec4keys5pub_t6to_hexB5cxx11Ev
000000000012a742 T _ZNK2us3gov6crypto2ec4keys5pub_teqERKS4_
0000000000129e0c T _ZNK2us3gov6crypto2ec4keys6priv_t6to_b58B5cxx11Ev
000000000012a89e T _ZNK2us3gov6crypto2ec4signERKNS2_4keys6priv_tERKNS1_6sha25610value_typeE
000000000012a7da T _ZNK2us3gov6crypto2ec4signERKNS2_4keys6priv_tERKNSt7__cxx1112basic_stringIcSt11char_traitsIcESaIcEEE
000000000012acc6 T _ZNK2us3gov6crypto2ec6verifyERKNS2_4keys5pub_tERKNS1_6sha25610value_typeERKNSt7__cxx1112basic_stringIcSt11char_traitsIcESaIcEEE
000000000012ae78 T _ZNK2us3gov6crypto2ec6verifyERKNS2_4keys5pub_tERKNSt7__cxx1112basic_stringIcSt11char_traitsIcESaIcEEESE_
0000000000131354 T _ZNK2us3gov6crypto6sha25610value_type6to_b58B5cxx11Ev
00000000001313ac T _ZNK2us3gov6crypto6sha25610value_type6to_hexB5cxx11Ev
00000000001315f4 T _ZNK2us3gov6crypto6sha25610value_type7is_zeroEv
000000000013157e T _ZNK2us3gov6crypto6sha25610value_typeltERKS3_
000000000012e8c4 T _ZNK2us3gov6crypto9ripemd16010value_type6to_b58B5cxx11Ev
000000000012e91c T _ZNK2us3gov6crypto9ripemd16010value_type6to_hexB5cxx11Ev
000000000012ef50 T _ZNK2us3gov6crypto9ripemd16010value_type7is_zeroEv
000000000012ec86 T _ZNK2us3gov6crypto9ripemd16010value_typeeqERKS3_
000000000012ee12 T _ZNK2us3gov6crypto9ripemd16010value_typeltERKS3_
000000000012ed4c T _ZNK2us3gov6crypto9ripemd16010value_typeneERKS3_
00000000001418d6 T _ZNK2us3gov6socket6client4dumpERSo
00000000001417ae T _ZNK2us3gov6socket6client4sendEc
0000000000141812 T _ZNK2us3gov6socket6client4sendEPNS1_8datagramE
000000000014189c T _ZNK2us3gov6socket6client4sendERKNS1_8datagramE
0000000000141044 T _ZNK2us3gov6socket6client7addressB5cxx11Ev
000000000013ef42 T _ZNK2us3gov6socket6server4dumpERSo
000000000015c98e W _ZNK2us3gov6socket6server6activeEv
000000000013eff8 T _ZNK2us3gov6socket6server9clients_t4dumpERSo
000000000013f866 T _ZNK2us3gov6socket6server9clients_t4wait4dumpERSo
000000000013f7d0 T _ZNK2us3gov6socket6server9clients_t4wait4findEPNS1_6clientE
000000000013ead0 T _ZNK2us3gov6socket6server9clients_t6activeEv
000000000013f502 T _ZNK2us3gov6socket6server9clients_t6rmlist4dumpERSo
000000000013f46e T _ZNK2us3gov6socket6server9clients_t6rmlist4findEi
000000000013dea6 T _ZNK2us3gov6socket6server9clients_t7is_hereEPNS1_6clientE
000000000013fddc T _ZNK2us3gov6socket8datagram11decode_sizeEv
0000000000140406 T _ZNK2us3gov6socket8datagram12compute_hashEv
000000000014073e T _ZNK2us3gov6socket8datagram12parse_stringB5cxx11Ev
00000000001407e8 T _ZNK2us3gov6socket8datagram12parse_uint16Ev
00000000001404d6 T _ZNK2us3gov6socket8datagram13parse_stringsB5cxx11Ev
000000000013ff12 T _ZNK2us3gov6socket8datagram14decode_serviceEv
000000000014032c T _ZNK2us3gov6socket8datagram4sendEi
000000000013ff96 T _ZNK2us3gov6socket8datagram9completedEv
0000000000137766 W _ZNK8CryptoPP10RandomPool21CanIncorporateEntropyEv
0000000000135a82 W _ZNK8CryptoPP11BlockCipher12GetAlgorithmEv
000000000013c14e W _ZNK8CryptoPP12ClonableImplINS_16BlockCipherFinalILNS_9CipherDirE0ENS_8Rijndael3EncEEES4_E5CloneEv
000000000013bc6c W _ZNK8CryptoPP13AlgorithmImplINS_25SimpleKeyingInterfaceImplINS_8TwoBasesINS_11BlockCipherENS_13Rijndael_InfoEEES5_EES6_E13AlgorithmNameB5cxx11Ev
000000000013ca32 W _ZNK8CryptoPP13AutoSignalingINS_14InputRejectingINS_22BufferedTransformationEEEE24GetAutoSignalPropagationEv
0000000000137d72 W _ZNK8CryptoPP14CipherModeBase12MaxKeyLengthEv
0000000000137d42 W _ZNK8CryptoPP14CipherModeBase12MinKeyLengthEv
0000000000137da2 W _ZNK8CryptoPP14CipherModeBase16DefaultKeyLengthEv
0000000000137e0e W _ZNK8CryptoPP14CipherModeBase16IsValidKeyLengthEm
0000000000137dd2 W _ZNK8CryptoPP14CipherModeBase17GetValidKeyLengthEm
0000000000137e4a W _ZNK8CryptoPP14CipherModeBase6IVSizeEv
0000000000137e64 W _ZNK8CryptoPP14CipherModeBase9BlockSizeEv
00000000001380d2 W _ZNK8CryptoPP14CTR_ModePolicy12GetAlignmentEv
00000000001380c2 W _ZNK8CryptoPP14CTR_ModePolicy13IVRequirementEv
00000000001381aa W _ZNK8CryptoPP14CTR_ModePolicy19CanOperateKeystreamEv
00000000001380ac W _ZNK8CryptoPP14CTR_ModePolicy20CipherIsRandomAccessEv
000000000013810a W _ZNK8CryptoPP14CTR_ModePolicy20GetBytesPerIterationEv
000000000013812a W _ZNK8CryptoPP14CTR_ModePolicy21GetIterationsToBufferEv
0000000000138c36 W _ZNK8CryptoPP14NameValuePairs19GetValueWithDefaultIiEET_PKcS2_
0000000000134f9c W _ZNK8CryptoPP14NameValuePairs22GetIntValueWithDefaultEPKci
0000000000138bfa W _ZNK8CryptoPP14NameValuePairs8GetValueIiEEbPKcRT_
000000000013c62c W _ZNK8CryptoPP14SourceTemplateINS_11StringStoreEE15SourceExhaustedEv
000000000013c4f0 W _ZNK8CryptoPP14SourceTemplateINS_11StringStoreEE24GetAutoSignalPropagationEv
000000000013bcde W _ZNK8CryptoPP15BlockCipherImplINS_13Rijndael_InfoENS_11BlockCipherEE9BlockSizeEv
0000000000135a94 W _ZNK8CryptoPP15SymmetricCipher12GetAlgorithmEv
000000000013c1b6 W _ZNK8CryptoPP16BlockCipherFinalILNS_9CipherDirE0ENS_8Rijndael3EncEE23IsForwardTransformationEv
00000000001358b4 W _ZNK8CryptoPP18HashTransformation16OptimalBlockSizeEv
                 U _ZNK8CryptoPP18HashTransformation20OptimalDataAlignmentEv
00000000001358a4 W _ZNK8CryptoPP18HashTransformation9BlockSizeEv
0000000000135014 W _ZNK8CryptoPP18NullNameValuePairs12GetVoidValueEPKcRKSt9type_infoPv
00000000001354de W _ZNK8CryptoPP19BlockTransformation13IsPermutationEv
                 U _ZNK8CryptoPP19BlockTransformation20OptimalDataAlignmentEv
                 U _ZNK8CryptoPP19BlockTransformation21AdvancedProcessBlocksEPKhS2_Phmj
00000000001354ee W _ZNK8CryptoPP19BlockTransformation29OptimalNumberOfParallelBlocksEv
000000000013c272 W _ZNK8CryptoPP20ConcretePolicyHolderINS_5EmptyENS_22AdditiveCipherTemplateINS_20AbstractPolicyHolderINS_28AdditiveCipherAbstractPolicyENS_14CTR_ModePolicyEEEEES4_E9GetPolicyEv
000000000013559e W _ZNK8CryptoPP20StreamTransformation16MinLastBlockSizeEv
0000000000135568 W _ZNK8CryptoPP20StreamTransformation16OptimalBlockSizeEv
00000000001355ae W _ZNK8CryptoPP20StreamTransformation18IsLastBlockSpecialEv
0000000000135558 W _ZNK8CryptoPP20StreamTransformation18MandatoryBlockSizeEv
000000000013558e W _ZNK8CryptoPP20StreamTransformation23GetOptimalBlockSizeUsedEv
0000000000135d54 W _ZNK8CryptoPP21RandomNumberGenerator21CanIncorporateEntropyEv
0000000000135378 W _ZNK8CryptoPP21SimpleKeyingInterface11MaxIVLengthEv
0000000000135352 W _ZNK8CryptoPP21SimpleKeyingInterface11MinIVLengthEv
000000000013523c W _ZNK8CryptoPP21SimpleKeyingInterface16IsValidKeyLengthEm
0000000000135274 W _ZNK8CryptoPP21SimpleKeyingInterface6IVSizeEv
                 U _ZNK8CryptoPP22AdditiveCipherTemplateINS_20AbstractPolicyHolderINS_28AdditiveCipherAbstractPolicyENS_14CTR_ModePolicyEEEE14IsRandomAccessEv
                 U _ZNK8CryptoPP22AdditiveCipherTemplateINS_20AbstractPolicyHolderINS_28AdditiveCipherAbstractPolicyENS_14CTR_ModePolicyEEEE15IsSelfInvertingEv
                 U _ZNK8CryptoPP22AdditiveCipherTemplateINS_20AbstractPolicyHolderINS_28AdditiveCipherAbstractPolicyENS_14CTR_ModePolicyEEEE16OptimalBlockSizeEv
                 U _ZNK8CryptoPP22AdditiveCipherTemplateINS_20AbstractPolicyHolderINS_28AdditiveCipherAbstractPolicyENS_14CTR_ModePolicyEEEE20OptimalDataAlignmentEv
                 U _ZNK8CryptoPP22AdditiveCipherTemplateINS_20AbstractPolicyHolderINS_28AdditiveCipherAbstractPolicyENS_14CTR_ModePolicyEEEE23IsForwardTransformationEv
                 U _ZNK8CryptoPP22BufferedTransformation11AnyMessagesEv
                 U _ZNK8CryptoPP22BufferedTransformation14AnyRetrievableEv
0000000000135ece W _ZNK8CryptoPP22BufferedTransformation14CanModifyInputEv
                 U _ZNK8CryptoPP22BufferedTransformation14MaxRetrievableEv
                 U _ZNK8CryptoPP22BufferedTransformation16NumberOfMessagesEv
                 U _ZNK8CryptoPP22BufferedTransformation21GetMaxWaitObjectCountEv
00000000001360a0 W _ZNK8CryptoPP22BufferedTransformation21NumberOfMessageSeriesEv
                 U _ZNK8CryptoPP22BufferedTransformation21TotalBytesRetrievableEv
0000000000136212 W _ZNK8CryptoPP22BufferedTransformation22AttachedTransformationEv
0000000000136058 W _ZNK8CryptoPP22BufferedTransformation24GetAutoSignalPropagationEv
0000000000136078 W _ZNK8CryptoPP22BufferedTransformation28NumberOfMessagesInThisSeriesEv
                 U _ZNK8CryptoPP22BufferedTransformation4PeekEPhm
                 U _ZNK8CryptoPP22BufferedTransformation4PeekERh
0000000000137090 W _ZNK8CryptoPP22HashVerificationFilter13GetLastResultEv
0000000000135aa6 W _ZNK8CryptoPP25MessageAuthenticationCode12GetAlgorithmEv
000000000013bc0e W _ZNK8CryptoPP25SimpleKeyingInterfaceImplINS_8TwoBasesINS_11BlockCipherENS_13Rijndael_InfoEEES4_E12MaxKeyLengthEv
000000000013bbfe W _ZNK8CryptoPP25SimpleKeyingInterfaceImplINS_8TwoBasesINS_11BlockCipherENS_13Rijndael_InfoEEES4_E12MinKeyLengthEv
000000000013bc4c W _ZNK8CryptoPP25SimpleKeyingInterfaceImplINS_8TwoBasesINS_11BlockCipherENS_13Rijndael_InfoEEES4_E13IVRequirementEv
000000000013bc1e W _ZNK8CryptoPP25SimpleKeyingInterfaceImplINS_8TwoBasesINS_11BlockCipherENS_13Rijndael_InfoEEES4_E16DefaultKeyLengthEv
000000000013bc2e W _ZNK8CryptoPP25SimpleKeyingInterfaceImplINS_8TwoBasesINS_11BlockCipherENS_13Rijndael_InfoEEES4_E17GetValidKeyLengthEm
000000000013bc5c W _ZNK8CryptoPP25SimpleKeyingInterfaceImplINS_8TwoBasesINS_11BlockCipherENS_13Rijndael_InfoEEES4_E6IVSizeEv
0000000000137d1c W _ZNK8CryptoPP28AdditiveCipherAbstractPolicy19GetOptimalBlockSizeEv
0000000000135c12 W _ZNK8CryptoPP28AuthenticatedSymmetricCipher12GetAlgorithmEv
0000000000135bf2 W _ZNK8CryptoPP28AuthenticatedSymmetricCipher15MaxFooterLengthEv
0000000000135c02 W _ZNK8CryptoPP28AuthenticatedSymmetricCipher28NeedsPrespecifiedDataLengthsEv
0000000000137146 W _ZNK8CryptoPP29AuthenticatedDecryptionFilter13GetLastResultEv
0000000000137b8e W _ZNK8CryptoPP32AuthenticatedSymmetricCipherBase14IsRandomAccessEv
0000000000137ba4 W _ZNK8CryptoPP32AuthenticatedSymmetricCipherBase15IsSelfInvertingEv
0000000000136c18 W _ZNK8CryptoPP4Sink12CopyRangeTo2ERNS_22BufferedTransformationERmmRKNSt7__cxx1112basic_stringIcSt11char_traitsIcESaIcEEEb
                 U _ZNK8CryptoPP6Filter12CopyRangeTo2ERNS_22BufferedTransformationERmmRKNSt7__cxx1112basic_stringIcSt11char_traitsIcESaIcEEEb
                 U _ZNK8CryptoPP6Filter20NewDefaultAttachmentEv
                 U _ZNK8CryptoPP6Filter22AttachedTransformationEv
0000000000136e24 W _ZNK8CryptoPP6Filter25ShouldPropagateMessageEndEv
0000000000136e34 W _ZNK8CryptoPP6Filter31ShouldPropagateMessageSeriesEndEv
000000000013507a W _ZNK8CryptoPP8Clonable5CloneEv
00000000001383d8 W _ZNK8CryptoPP8GCM_Base10DigestSizeEv
00000000001383c8 W _ZNK8CryptoPP8GCM_Base11MaxIVLengthEv
00000000001383b8 W _ZNK8CryptoPP8GCM_Base11MinIVLengthEv
00000000001382dc W _ZNK8CryptoPP8GCM_Base12MaxKeyLengthEv
00000000001382b2 W _ZNK8CryptoPP8GCM_Base12MinKeyLengthEv
00000000001381c0 W _ZNK8CryptoPP8GCM_Base13AlgorithmNameB5cxx11Ev
0000000000138398 W _ZNK8CryptoPP8GCM_Base13IVRequirementEv
0000000000138448 W _ZNK8CryptoPP8GCM_Base14GetBlockCipherEv
00000000001383ee W _ZNK8CryptoPP8GCM_Base15MaxHeaderLengthEv
0000000000138306 W _ZNK8CryptoPP8GCM_Base16DefaultKeyLengthEv
0000000000138364 W _ZNK8CryptoPP8GCM_Base16IsValidKeyLengthEm
0000000000138402 W _ZNK8CryptoPP8GCM_Base16MaxMessageLengthEv
0000000000138330 W _ZNK8CryptoPP8GCM_Base17GetValidKeyLengthEm
                 U _ZNK8CryptoPP8GCM_Base20OptimalDataAlignmentEv
0000000000138426 W _ZNK8CryptoPP8GCM_Base23AuthenticationBlockSizeEv
0000000000138416 W _ZNK8CryptoPP8GCM_Base27AuthenticationIsOnPlaintextEv
00000000001383a8 W _ZNK8CryptoPP8GCM_Base6IVSizeEv
                 U _ZNK8CryptoPP8Rijndael3Enc18ProcessAndXorBlockEPKhS3_Ph
                 U _ZNK8CryptoPP8Rijndael3Enc21AdvancedProcessBlocksEPKhS3_Phmj
0000000000139406 W _ZNK8CryptoPP8SecBlockIhNS_20AllocatorWithCleanupIhLb1EEEE4sizeEv
000000000013518a W _ZNK8CryptoPP9Algorithm13AlgorithmNameB5cxx11Ev
0000000000134e66 W _ZNK8CryptoPP9Exception4whatEv
000000000013bb9e W _ZNK8CryptoPP9GCM_FinalINS_8RijndaelELNS_16GCM_TablesOptionE0ELb0EE15GetTablesOptionEv
000000000013bbae W _ZNK8CryptoPP9GCM_FinalINS_8RijndaelELNS_16GCM_TablesOptionE0ELb0EE23IsForwardTransformationEv
000000000013bbd8 W _ZNK8CryptoPP9GCM_FinalINS_8RijndaelELNS_16GCM_TablesOptionE0ELb1EE15GetTablesOptionEv
000000000013bbe8 W _ZNK8CryptoPP9GCM_FinalINS_8RijndaelELNS_16GCM_TablesOptionE0ELb1EE23IsForwardTransformationEv
000000000013410e W _ZNK9__gnu_cxx13new_allocatorIcE8max_sizeEv
0000000000133cc6 W _ZNK9__gnu_cxx13new_allocatorIhE8max_sizeEv
000000000014c2be W _ZNK9__gnu_cxx13new_allocatorIiE8max_sizeEv
000000000018f3da W _ZNK9__gnu_cxx13new_allocatorIN2us3gov4cash2tx7input_tEE8max_sizeEv
000000000018f46c W _ZNK9__gnu_cxx13new_allocatorIN2us3gov4cash2tx8output_tEE8max_sizeEv
000000000018232e W _ZNK9__gnu_cxx13new_allocatorIN2us3gov6crypto9ripemd16010value_typeEE8max_sizeEv
00000000001504a8 W _ZNK9__gnu_cxx13new_allocatorINSt7__cxx1112basic_stringIcSt11char_traitsIcESaIcEEEE8max_sizeEv
00000000001793ac W _ZNK9__gnu_cxx13new_allocatorINSt8__detail10_Hash_nodeIiLb0EEEE8max_sizeEv
0000000000161756 W _ZNK9__gnu_cxx13new_allocatorINSt8__detail10_Hash_nodeIN2us3gov6crypto9ripemd16010value_typeELb1EEEE8max_sizeEv
00000000001617c4 W _ZNK9__gnu_cxx13new_allocatorINSt8__detail10_Hash_nodeINSt7__cxx1112basic_stringIcSt11char_traitsIcESaIcEEELb1EEEE8max_sizeEv
000000000014ef44 W _ZNK9__gnu_cxx13new_allocatorINSt8__detail10_Hash_nodeIPN2us3gov14signal_handler8callbackELb0EEEE8max_sizeEv
000000000014d87a W _ZNK9__gnu_cxx13new_allocatorINSt8__detail10_Hash_nodeIPN2us3gov6socket6clientELb0EEEE8max_sizeEv
0000000000182cde W _ZNK9__gnu_cxx13new_allocatorINSt8__detail10_Hash_nodeISt4pairIKiPN2us3gov10blockchain3appEELb0EEEE8max_sizeEv
000000000014d9ac W _ZNK9__gnu_cxx13new_allocatorINSt8__detail10_Hash_nodeISt4pairIKiPN2us3gov6socket6clientEELb0EEEE8max_sizeEv
00000000001968ee W _ZNK9__gnu_cxx13new_allocatorINSt8__detail10_Hash_nodeISt4pairIKN2us3gov4cash3app11local_deltaEmELb1EEEE8max_sizeEv
000000000018554a W _ZNK9__gnu_cxx13new_allocatorINSt8__detail10_Hash_nodeISt4pairIKN2us3gov6crypto9ripemd16010value_typeEmELb1EEEE8max_sizeEv
00000000001963b0 W _ZNK9__gnu_cxx13new_allocatorINSt8__detail10_Hash_nodeISt4pairIKN2us3gov6crypto9ripemd16010value_typeENS5_4cash3app11local_delta9account_tEELb1EEEE8max_sizeEv
0000000000179266 W _ZNK9__gnu_cxx13new_allocatorINSt8__detail10_Hash_nodeISt4pairIKN2us3gov6crypto9ripemd16010value_typeENSt7__cxx1112basic_stringIcSt11char_traitsIcESaIcEEEELb1EEEE8max_sizeEv
0000000000182f40 W _ZNK9__gnu_cxx13new_allocatorINSt8__detail10_Hash_nodeISt4pairIKN2us3gov6crypto9ripemd16010value_typeES3_IS8_mEELb1EEEE8max_sizeEv
000000000018306c W _ZNK9__gnu_cxx13new_allocatorINSt8__detail10_Hash_nodeISt4pairIKPN2us3gov10blockchain6peer_tENS6_5shellEELb0EEEE8max_sizeEv
000000000014f134 W _ZNK9__gnu_cxx13new_allocatorINSt8__detail10_Hash_nodeISt4pairIKPN2us3gov6socket6clientENSt6chrono10time_pointINSA_3_V212steady_clockENSA_8durationIlSt5ratioILl1ELl1000000000EEEEEEELb0EEEE8max_sizeEv
0000000000182588 W _ZNK9__gnu_cxx13new_allocatorIPN2us3gov10blockchain6peer_tEE8max_sizeEv
0000000000160530 W _ZNK9__gnu_cxx13new_allocatorIPN2us3gov4peer6peer_tEE8max_sizeEv
000000000014c402 W _ZNK9__gnu_cxx13new_allocatorIPN2us3gov6socket6clientEE8max_sizeEv
000000000014e956 W _ZNK9__gnu_cxx13new_allocatorIPNSt8__detail15_Hash_node_baseEE8max_sizeEv
0000000000158f0e W _ZNK9__gnu_cxx13new_allocatorIPPSt8functionIFviEEE8max_sizeEv
000000000015937c W _ZNK9__gnu_cxx13new_allocatorIPSt8functionIFviEEE8max_sizeEv
0000000000158204 W _ZNK9__gnu_cxx13new_allocatorISt10shared_ptrISt6atomicIbEEE8max_sizeEv
000000000015811a W _ZNK9__gnu_cxx13new_allocatorISt10unique_ptrISt6threadSt14default_deleteIS2_EEE8max_sizeEv
0000000000171cec W _ZNK9__gnu_cxx13new_allocatorISt13_Rb_tree_nodeISt4pairIKiPN2us3gov10blockchain3app11local_deltaEEEE8max_sizeEv
0000000000171d42 W _ZNK9__gnu_cxx13new_allocatorISt13_Rb_tree_nodeISt4pairIKiPN2us3gov10blockchain3app5deltaEEEE8max_sizeEv
0000000000171d98 W _ZNK9__gnu_cxx13new_allocatorISt13_Rb_tree_nodeISt4pairIKN2us3gov6crypto9ripemd16010value_typeEmEEE8max_sizeEv
0000000000196256 W _ZNK9__gnu_cxx13new_allocatorISt13_Rb_tree_nodeISt4pairIKN2us3gov6crypto9ripemd16010value_typeENS4_4cash3app11local_delta9account_tEEEE8max_sizeEv
000000000017901e W _ZNK9__gnu_cxx13new_allocatorISt13_Rb_tree_nodeISt4pairIKN2us3gov6crypto9ripemd16010value_typeENSt7__cxx1112basic_stringIcSt11char_traitsIcESaIcEEEEEE8max_sizeEv
0000000000159632 W _ZNK9__gnu_cxx13new_allocatorISt23_Sp_counted_ptr_inplaceISt13packaged_taskIFviEESaIS4_ELNS_12_Lock_policyE2EEE8max_sizeEv
0000000000159446 W _ZNK9__gnu_cxx13new_allocatorISt23_Sp_counted_ptr_inplaceISt6atomicIbESaIS3_ELNS_12_Lock_policyE2EEE8max_sizeEv
00000000001775be W _ZNK9__gnu_cxx13new_allocatorISt4pairIN2us3gov6crypto9ripemd16010value_typeENSt7__cxx1112basic_stringIcSt11char_traitsIcESaIcEEEEE8max_sizeEv
000000000017fdda W _ZNK9__gnu_cxx13new_allocatorISt6threadE8max_sizeEv
0000000000179540 W _ZNK9__gnu_cxx16__aligned_bufferIiE6_M_ptrEv
000000000017955a W _ZNK9__gnu_cxx16__aligned_bufferIiE7_M_addrEv
000000000014f43c W _ZNK9__gnu_cxx16__aligned_bufferIPN2us3gov14signal_handler8callbackEE6_M_ptrEv
000000000014f6a0 W _ZNK9__gnu_cxx16__aligned_bufferIPN2us3gov14signal_handler8callbackEE7_M_addrEv
000000000014bb78 W _ZNK9__gnu_cxx16__aligned_bufferIPN2us3gov6socket6clientEE6_M_ptrEv
000000000014d86c W _ZNK9__gnu_cxx16__aligned_bufferIPN2us3gov6socket6clientEE7_M_addrEv
000000000018351c W _ZNK9__gnu_cxx16__aligned_bufferISt4pairIKiPN2us3gov10blockchain3appEEE6_M_ptrEv
00000000001835ca W _ZNK9__gnu_cxx16__aligned_bufferISt4pairIKiPN2us3gov10blockchain3appEEE7_M_addrEv
000000000014bda8 W _ZNK9__gnu_cxx16__aligned_bufferISt4pairIKiPN2us3gov6socket6clientEEE6_M_ptrEv
000000000014d99e W _ZNK9__gnu_cxx16__aligned_bufferISt4pairIKiPN2us3gov6socket6clientEEE7_M_addrEv
00000000001835a2 W _ZNK9__gnu_cxx16__aligned_bufferISt4pairIKPN2us3gov10blockchain6peer_tENS4_5shellEEE6_M_ptrEv
000000000018363e W _ZNK9__gnu_cxx16__aligned_bufferISt4pairIKPN2us3gov10blockchain6peer_tENS4_5shellEEE7_M_addrEv
000000000014f5ca W _ZNK9__gnu_cxx16__aligned_bufferISt4pairIKPN2us3gov6socket6clientENSt6chrono10time_pointINS8_3_V212steady_clockENS8_8durationIlSt5ratioILl1ELl1000000000EEEEEEEE6_M_ptrEv
000000000014f778 W _ZNK9__gnu_cxx16__aligned_bufferISt4pairIKPN2us3gov6socket6clientENSt6chrono10time_pointINS8_3_V212steady_clockENS8_8durationIlSt5ratioILl1ELl1000000000EEEEEEEE7_M_addrEv
0000000000170088 W _ZNK9__gnu_cxx16__aligned_membufISt4pairIKiPN2us3gov10blockchain3app11local_deltaEEE6_M_ptrEv
0000000000170ec2 W _ZNK9__gnu_cxx16__aligned_membufISt4pairIKiPN2us3gov10blockchain3app11local_deltaEEE7_M_addrEv
00000000001703e4 W _ZNK9__gnu_cxx16__aligned_membufISt4pairIKiPN2us3gov10blockchain3app5deltaEEE6_M_ptrEv
00000000001710f6 W _ZNK9__gnu_cxx16__aligned_membufISt4pairIKiPN2us3gov10blockchain3app5deltaEEE7_M_addrEv
000000000016ff64 W _ZNK9__gnu_cxx16__aligned_membufISt4pairIKN2us3gov6crypto9ripemd16010value_typeEmEE6_M_ptrEv
0000000000170dba W _ZNK9__gnu_cxx16__aligned_membufISt4pairIKN2us3gov6crypto9ripemd16010value_typeEmEE7_M_addrEv
0000000000192e0e W _ZNK9__gnu_cxx16__aligned_membufISt4pairIKN2us3gov6crypto9ripemd16010value_typeENS3_4cash3app11local_delta9account_tEEE6_M_ptrEv
0000000000193c26 W _ZNK9__gnu_cxx16__aligned_membufISt4pairIKN2us3gov6crypto9ripemd16010value_typeENS3_4cash3app11local_delta9account_tEEE7_M_addrEv
0000000000176106 W _ZNK9__gnu_cxx16__aligned_membufISt4pairIKN2us3gov6crypto9ripemd16010value_typeENSt7__cxx1112basic_stringIcSt11char_traitsIcESaIcEEEEE6_M_ptrEv
0000000000177650 W _ZNK9__gnu_cxx16__aligned_membufISt4pairIKN2us3gov6crypto9ripemd16010value_typeENSt7__cxx1112basic_stringIcSt11char_traitsIcESaIcEEEEE7_M_addrEv
00000000001622c8 W _ZNK9__gnu_cxx17__normal_iteratorIPcNSt7__cxx1112basic_stringIcSt11char_traitsIcESaIcEEEEmiEl
0000000000132580 W _ZNK9__gnu_cxx17__normal_iteratorIPhSt6vectorIhSaIhEEE4baseEv
0000000000131c08 W _ZNK9__gnu_cxx17__normal_iteratorIPhSt6vectorIhSaIhEEEdeEv
0000000000133c38 W _ZNK9__gnu_cxx17__normal_iteratorIPhSt6vectorIhSaIhEEEmiEl
0000000000146b2a W _ZNK9__gnu_cxx17__normal_iteratorIPiSt6vectorIiSaIiEEE4baseEv
0000000000145154 W _ZNK9__gnu_cxx17__normal_iteratorIPiSt6vectorIiSaIiEEEdeEv
000000000014a2c4 W _ZNK9__gnu_cxx17__normal_iteratorIPiSt6vectorIiSaIiEEEmiEl
0000000000134afc W _ZNK9__gnu_cxx17__normal_iteratorIPKhSt6vectorIhSaIhEEE4baseEv
0000000000134730 W _ZNK9__gnu_cxx17__normal_iteratorIPKhSt6vectorIhSaIhEEEdeEv
000000000014f92a W _ZNK9__gnu_cxx17__normal_iteratorIPKhSt6vectorIhSaIhEEEplEl
000000000018e1aa W _ZNK9__gnu_cxx17__normal_iteratorIPKN2us3gov4cash2tx7input_tESt6vectorIS5_SaIS5_EEE4baseEv
000000000018da2e W _ZNK9__gnu_cxx17__normal_iteratorIPKN2us3gov4cash2tx7input_tESt6vectorIS5_SaIS5_EEEdeEv
000000000018e322 W _ZNK9__gnu_cxx17__normal_iteratorIPKN2us3gov4cash2tx8output_tESt6vectorIS5_SaIS5_EEE4baseEv
000000000018dc92 W _ZNK9__gnu_cxx17__normal_iteratorIPKN2us3gov4cash2tx8output_tESt6vectorIS5_SaIS5_EEEdeEv
000000000017e16c W _ZNK9__gnu_cxx17__normal_iteratorIPKN2us3gov6crypto9ripemd16010value_typeESt6vectorIS5_SaIS5_EEE4baseEv
000000000017a87c W _ZNK9__gnu_cxx17__normal_iteratorIPKN2us3gov6crypto9ripemd16010value_typeESt6vectorIS5_SaIS5_EEEdeEv
000000000017e8d8 W _ZNK9__gnu_cxx17__normal_iteratorIPKNSt7__cxx1112basic_stringIcSt11char_traitsIcESaIcEEESt6vectorIS6_SaIS6_EEE4baseEv
000000000017b076 W _ZNK9__gnu_cxx17__normal_iteratorIPKNSt7__cxx1112basic_stringIcSt11char_traitsIcESaIcEEESt6vectorIS6_SaIS6_EEEdeEv
000000000017ea02 W _ZNK9__gnu_cxx17__normal_iteratorIPKPN2us3gov10blockchain6peer_tESt6vectorIS5_SaIS5_EEE4baseEv
000000000015dabe W _ZNK9__gnu_cxx17__normal_iteratorIPKPN2us3gov4peer6peer_tESt6vectorIS5_SaIS5_EEE4baseEv
000000000015cfba W _ZNK9__gnu_cxx17__normal_iteratorIPKPN2us3gov4peer6peer_tESt6vectorIS5_SaIS5_EEEdeEv
0000000000174c46 W _ZNK9__gnu_cxx17__normal_iteratorIPKSt4pairIN2us3gov6crypto9ripemd16010value_typeENSt7__cxx1112basic_stringIcSt11char_traitsIcESaIcEEEESt6vectorISD_SaISD_EEE4baseEv
0000000000173998 W _ZNK9__gnu_cxx17__normal_iteratorIPKSt4pairIN2us3gov6crypto9ripemd16010value_typeENSt7__cxx1112basic_stringIcSt11char_traitsIcESaIcEEEESt6vectorISD_SaISD_EEEdeEv
000000000018f152 W _ZNK9__gnu_cxx17__normal_iteratorIPN2us3gov4cash2tx7input_tESt6vectorIS5_SaIS5_EEE4baseEv
000000000018f226 W _ZNK9__gnu_cxx17__normal_iteratorIPN2us3gov4cash2tx7input_tESt6vectorIS5_SaIS5_EEEdeEv
000000000018f1da W _ZNK9__gnu_cxx17__normal_iteratorIPN2us3gov4cash2tx7input_tESt6vectorIS5_SaIS5_EEEmiEl
000000000018f6d6 W _ZNK9__gnu_cxx17__normal_iteratorIPN2us3gov4cash2tx8output_tESt6vectorIS5_SaIS5_EEE4baseEv
000000000018f7aa W _ZNK9__gnu_cxx17__normal_iteratorIPN2us3gov4cash2tx8output_tESt6vectorIS5_SaIS5_EEEdeEv
000000000018f75e W _ZNK9__gnu_cxx17__normal_iteratorIPN2us3gov4cash2tx8output_tESt6vectorIS5_SaIS5_EEEmiEl
000000000017e0ec W _ZNK9__gnu_cxx17__normal_iteratorIPN2us3gov6crypto9ripemd16010value_typeESt6vectorIS5_SaIS5_EEE4baseEv
000000000017a79c W _ZNK9__gnu_cxx17__normal_iteratorIPN2us3gov6crypto9ripemd16010value_typeESt6vectorIS5_SaIS5_EEEdeEv
0000000000192be2 W _ZNK9__gnu_cxx17__normal_iteratorIPN2us3gov6crypto9ripemd16010value_typeESt6vectorIS5_SaIS5_EEEmiEl
00000000001502ae W _ZNK9__gnu_cxx17__normal_iteratorIPNSt7__cxx1112basic_stringIcSt11char_traitsIcESaIcEEESt6vectorIS6_SaIS6_EEE4baseEv
0000000000150378 W _ZNK9__gnu_cxx17__normal_iteratorIPNSt7__cxx1112basic_stringIcSt11char_traitsIcESaIcEEESt6vectorIS6_SaIS6_EEEdeEv
0000000000150336 W _ZNK9__gnu_cxx17__normal_iteratorIPNSt7__cxx1112basic_stringIcSt11char_traitsIcESaIcEEESt6vectorIS6_SaIS6_EEEmiEl
0000000000172210 W _ZNK9__gnu_cxx17__normal_iteratorIPPN2us3gov10blockchain6peer_tESt6vectorIS5_SaIS5_EEE4baseEv
00000000001720de W _ZNK9__gnu_cxx17__normal_iteratorIPPN2us3gov10blockchain6peer_tESt6vectorIS5_SaIS5_EEEdeEv
00000000001873c6 W _ZNK9__gnu_cxx17__normal_iteratorIPPN2us3gov4auth6peer_tESt6vectorIS5_SaIS5_EEE4baseEv
0000000000187396 W _ZNK9__gnu_cxx17__normal_iteratorIPPN2us3gov4auth6peer_tESt6vectorIS5_SaIS5_EEEdeEv
000000000015dc5a W _ZNK9__gnu_cxx17__normal_iteratorIPPN2us3gov4peer6peer_tESt6vectorIS5_SaIS5_EEE4baseEv
000000000015d144 W _ZNK9__gnu_cxx17__normal_iteratorIPPN2us3gov4peer6peer_tESt6vectorIS5_SaIS5_EEEdeEv
000000000015f5a2 W _ZNK9__gnu_cxx17__normal_iteratorIPPN2us3gov4peer6peer_tESt6vectorIS5_SaIS5_EEEmiEl
000000000015e8c0 W _ZNK9__gnu_cxx17__normal_iteratorIPPN2us3gov4peer6peer_tESt6vectorIS5_SaIS5_EEEplEl
0000000000148c72 W _ZNK9__gnu_cxx17__normal_iteratorIPPN2us3gov6socket6clientESt6vectorIS5_SaIS5_EEE4baseEv
00000000001463f8 W _ZNK9__gnu_cxx17__normal_iteratorIPPN2us3gov6socket6clientESt6vectorIS5_SaIS5_EEEdeEv
000000000014a69c W _ZNK9__gnu_cxx17__normal_iteratorIPPN2us3gov6socket6clientESt6vectorIS5_SaIS5_EEEmiEl
00000000001742c0 W _ZNK9__gnu_cxx17__normal_iteratorIPSt4pairIN2us3gov6crypto9ripemd16010value_typeENSt7__cxx1112basic_stringIcSt11char_traitsIcESaIcEEEESt6vectorISD_SaISD_EEE4baseEv
00000000001731e8 W _ZNK9__gnu_cxx17__normal_iteratorIPSt4pairIN2us3gov6crypto9ripemd16010value_typeENSt7__cxx1112basic_stringIcSt11char_traitsIcESaIcEEEESt6vectorISD_SaISD_EEEdeEv
0000000000176bb8 W _ZNK9__gnu_cxx17__normal_iteratorIPSt4pairIN2us3gov6crypto9ripemd16010value_typeENSt7__cxx1112basic_stringIcSt11char_traitsIcESaIcEEEESt6vectorISD_SaISD_EEEmiEl
000000000017ce4c W _ZNK9__gnu_cxx17__normal_iteratorIPSt6threadSt6vectorIS1_SaIS1_EEE4baseEv
000000000017af32 W _ZNK9__gnu_cxx17__normal_iteratorIPSt6threadSt6vectorIS1_SaIS1_EEEdeEv
000000000017e778 W _ZNK9__gnu_cxx17__normal_iteratorIPSt6threadSt6vectorIS1_SaIS1_EEEmiEl
0000000000151478 W _ZNKSt10error_code5valueEv
000000000015149a W _ZNKSt10error_code7messageB5cxx11Ev
0000000000151488 W _ZNKSt10error_code8categoryEv
0000000000176e7e W _ZNKSt10_HashtableIiiSaIiENSt8__detail9_IdentityESt8equal_toIiESt4hashIiENS1_18_Mod_range_hashingENS1_20_Default_ranged_hashENS1_20_Prime_rehash_policyENS1_17_Hashtable_traitsILb0ELb1ELb1EEEE12_M_find_nodeEmRKim
0000000000178a20 W _ZNKSt10_HashtableIiiSaIiENSt8__detail9_IdentityESt8equal_toIiESt4hashIiENS1_18_Mod_range_hashingENS1_20_Default_ranged_hashENS1_20_Prime_rehash_policyENS1_17_Hashtable_traitsILb0ELb1ELb1EEEE15_M_bucket_indexEPNS1_10_Hash_nodeIiLb0EEE
0000000000176e4c W _ZNKSt10_HashtableIiiSaIiENSt8__detail9_IdentityESt8equal_toIiESt4hashIiENS1_18_Mod_range_hashingENS1_20_Default_ranged_hashENS1_20_Prime_rehash_policyENS1_17_Hashtable_traitsILb0ELb1ELb1EEEE15_M_bucket_indexERKim
0000000000177e18 W _ZNKSt10_HashtableIiiSaIiENSt8__detail9_IdentityESt8equal_toIiESt4hashIiENS1_18_Mod_range_hashingENS1_20_Default_ranged_hashENS1_20_Prime_rehash_policyENS1_17_Hashtable_traitsILb0ELb1ELb1EEEE19_M_find_before_nodeEmRKim
0000000000176d18 W _ZNKSt10_HashtableIiiSaIiENSt8__detail9_IdentityESt8equal_toIiESt4hashIiENS1_18_Mod_range_hashingENS1_20_Default_ranged_hashENS1_20_Prime_rehash_policyENS1_17_Hashtable_traitsILb0ELb1ELb1EEEE21_M_uses_single_bucketEPPNS1_15_Hash_node_baseE
0000000000175c0c W _ZNKSt10_HashtableIiiSaIiENSt8__detail9_IdentityESt8equal_toIiESt4hashIiENS1_18_Mod_range_hashingENS1_20_Default_ranged_hashENS1_20_Prime_rehash_policyENS1_17_Hashtable_traitsILb0ELb1ELb1EEEE8_M_beginEv
000000000017dcea W _ZNKSt10_HashtableIiSt4pairIKiPN2us3gov10blockchain3appEESaIS7_ENSt8__detail10_Select1stESt8equal_toIiESt4hashIiENS9_18_Mod_range_hashingENS9_20_Default_ranged_hashENS9_20_Prime_rehash_policyENS9_17_Hashtable_traitsILb0ELb0ELb1EEEE12_M_find_nodeEmRS1_m
00000000001810ba W _ZNKSt10_HashtableIiSt4pairIKiPN2us3gov10blockchain3appEESaIS7_ENSt8__detail10_Select1stESt8equal_toIiESt4hashIiENS9_18_Mod_range_hashingENS9_20_Default_ranged_hashENS9_20_Prime_rehash_policyENS9_17_Hashtable_traitsILb0ELb0ELb1EEEE15_M_bucket_indexEPNS9_10_Hash_nodeIS7_Lb0EEE
000000000017dcb8 W _ZNKSt10_HashtableIiSt4pairIKiPN2us3gov10blockchain3appEESaIS7_ENSt8__detail10_Select1stESt8equal_toIiESt4hashIiENS9_18_Mod_range_hashingENS9_20_Default_ranged_hashENS9_20_Prime_rehash_policyENS9_17_Hashtable_traitsILb0ELb0ELb1EEEE15_M_bucket_indexERS1_m
000000000017f7de W _ZNKSt10_HashtableIiSt4pairIKiPN2us3gov10blockchain3appEESaIS7_ENSt8__detail10_Select1stESt8equal_toIiESt4hashIiENS9_18_Mod_range_hashingENS9_20_Default_ranged_hashENS9_20_Prime_rehash_policyENS9_17_Hashtable_traitsILb0ELb0ELb1EEEE19_M_find_before_nodeEmRS1_m
000000000017f392 W _ZNKSt10_HashtableIiSt4pairIKiPN2us3gov10blockchain3appEESaIS7_ENSt8__detail10_Select1stESt8equal_toIiESt4hashIiENS9_18_Mod_range_hashingENS9_20_Default_ranged_hashENS9_20_Prime_rehash_policyENS9_17_Hashtable_traitsILb0ELb0ELb1EEEE21_M_uses_single_bucketEPPNS9_15_Hash_node_baseE
000000000017c244 W _ZNKSt10_HashtableIiSt4pairIKiPN2us3gov10blockchain3appEESaIS7_ENSt8__detail10_Select1stESt8equal_toIiESt4hashIiENS9_18_Mod_range_hashingENS9_20_Default_ranged_hashENS9_20_Prime_rehash_policyENS9_17_Hashtable_traitsILb0ELb0ELb1EEEE3endEv
000000000017d8a6 W _ZNKSt10_HashtableIiSt4pairIKiPN2us3gov10blockchain3appEESaIS7_ENSt8__detail10_Select1stESt8equal_toIiESt4hashIiENS9_18_Mod_range_hashingENS9_20_Default_ranged_hashENS9_20_Prime_rehash_policyENS9_17_Hashtable_traitsILb0ELb0ELb1EEEE4findERS1_
000000000017c570 W _ZNKSt10_HashtableIiSt4pairIKiPN2us3gov10blockchain3appEESaIS7_ENSt8__detail10_Select1stESt8equal_toIiESt4hashIiENS9_18_Mod_range_hashingENS9_20_Default_ranged_hashENS9_20_Prime_rehash_policyENS9_17_Hashtable_traitsILb0ELb0ELb1EEEE4sizeEv
000000000017c214 W _ZNKSt10_HashtableIiSt4pairIKiPN2us3gov10blockchain3appEESaIS7_ENSt8__detail10_Select1stESt8equal_toIiESt4hashIiENS9_18_Mod_range_hashingENS9_20_Default_ranged_hashENS9_20_Prime_rehash_policyENS9_17_Hashtable_traitsILb0ELb0ELb1EEEE5beginEv
000000000017da34 W _ZNKSt10_HashtableIiSt4pairIKiPN2us3gov10blockchain3appEESaIS7_ENSt8__detail10_Select1stESt8equal_toIiESt4hashIiENS9_18_Mod_range_hashingENS9_20_Default_ranged_hashENS9_20_Prime_rehash_policyENS9_17_Hashtable_traitsILb0ELb0ELb1EEEE8_M_beginEv
0000000000149478 W _ZNKSt10_HashtableIiSt4pairIKiPN2us3gov6socket6clientEESaIS7_ENSt8__detail10_Select1stESt8equal_toIiESt4hashIiENS9_18_Mod_range_hashingENS9_20_Default_ranged_hashENS9_20_Prime_rehash_policyENS9_17_Hashtable_traitsILb0ELb0ELb1EEEE12_M_find_nodeEmRS1_m
0000000000149cca W _ZNKSt10_HashtableIiSt4pairIKiPN2us3gov6socket6clientEESaIS7_ENSt8__detail10_Select1stESt8equal_toIiESt4hashIiENS9_18_Mod_range_hashingENS9_20_Default_ranged_hashENS9_20_Prime_rehash_policyENS9_17_Hashtable_traitsILb0ELb0ELb1EEEE15_M_bucket_indexEPNS9_10_Hash_nodeIS7_Lb0EEE
0000000000149446 W _ZNKSt10_HashtableIiSt4pairIKiPN2us3gov6socket6clientEESaIS7_ENSt8__detail10_Select1stESt8equal_toIiESt4hashIiENS9_18_Mod_range_hashingENS9_20_Default_ranged_hashENS9_20_Prime_rehash_policyENS9_17_Hashtable_traitsILb0ELb0ELb1EEEE15_M_bucket_indexERS1_m
000000000014b5e0 W _ZNKSt10_HashtableIiSt4pairIKiPN2us3gov6socket6clientEESaIS7_ENSt8__detail10_Select1stESt8equal_toIiESt4hashIiENS9_18_Mod_range_hashingENS9_20_Default_ranged_hashENS9_20_Prime_rehash_policyENS9_17_Hashtable_traitsILb0ELb0ELb1EEEE19_M_find_before_nodeEmRS1_m
0000000000149dc8 W _ZNKSt10_HashtableIiSt4pairIKiPN2us3gov6socket6clientEESaIS7_ENSt8__detail10_Select1stESt8equal_toIiESt4hashIiENS9_18_Mod_range_hashingENS9_20_Default_ranged_hashENS9_20_Prime_rehash_policyENS9_17_Hashtable_traitsILb0ELb0ELb1EEEE21_M_uses_single_bucketEPPNS9_15_Hash_node_baseE
0000000000146cb4 W _ZNKSt10_HashtableIiSt4pairIKiPN2us3gov6socket6clientEESaIS7_ENSt8__detail10_Select1stESt8equal_toIiESt4hashIiENS9_18_Mod_range_hashingENS9_20_Default_ranged_hashENS9_20_Prime_rehash_policyENS9_17_Hashtable_traitsILb0ELb0ELb1EEEE3endEv
0000000000146c24 W _ZNKSt10_HashtableIiSt4pairIKiPN2us3gov6socket6clientEESaIS7_ENSt8__detail10_Select1stESt8equal_toIiESt4hashIiENS9_18_Mod_range_hashingENS9_20_Default_ranged_hashENS9_20_Prime_rehash_policyENS9_17_Hashtable_traitsILb0ELb0ELb1EEEE4findERS1_
0000000000148068 W _ZNKSt10_HashtableIiSt4pairIKiPN2us3gov6socket6clientEESaIS7_ENSt8__detail10_Select1stESt8equal_toIiESt4hashIiENS9_18_Mod_range_hashingENS9_20_Default_ranged_hashENS9_20_Prime_rehash_policyENS9_17_Hashtable_traitsILb0ELb0ELb1EEEE4sizeEv
00000000001489c4 W _ZNKSt10_HashtableIiSt4pairIKiPN2us3gov6socket6clientEESaIS7_ENSt8__detail10_Select1stESt8equal_toIiESt4hashIiENS9_18_Mod_range_hashingENS9_20_Default_ranged_hashENS9_20_Prime_rehash_policyENS9_17_Hashtable_traitsILb0ELb0ELb1EEEE5beginEv
0000000000147702 W _ZNKSt10_HashtableIiSt4pairIKiPN2us3gov6socket6clientEESaIS7_ENSt8__detail10_Select1stESt8equal_toIiESt4hashIiENS9_18_Mod_range_hashingENS9_20_Default_ranged_hashENS9_20_Prime_rehash_policyENS9_17_Hashtable_traitsILb0ELb0ELb1EEEE8_M_beginEv
00000000001947e0 W _ZNKSt10_HashtableIN2us3gov4cash3app11local_deltaESt4pairIKS4_mESaIS7_ENSt8__detail10_Select1stESt8equal_toIS4_ESt4hashIS4_ENS9_18_Mod_range_hashingENS9_20_Default_ranged_hashENS9_20_Prime_rehash_policyENS9_17_Hashtable_traitsILb1ELb0ELb1EEEE12_M_find_nodeEmRS6_m
0000000000195f00 W _ZNKSt10_HashtableIN2us3gov4cash3app11local_deltaESt4pairIKS4_mESaIS7_ENSt8__detail10_Select1stESt8equal_toIS4_ESt4hashIS4_ENS9_18_Mod_range_hashingENS9_20_Default_ranged_hashENS9_20_Prime_rehash_policyENS9_17_Hashtable_traitsILb1ELb0ELb1EEEE15_M_bucket_indexEPNS9_10_Hash_nodeIS7_Lb1EEE
00000000001947ae W _ZNKSt10_HashtableIN2us3gov4cash3app11local_deltaESt4pairIKS4_mESaIS7_ENSt8__detail10_Select1stESt8equal_toIS4_ESt4hashIS4_ENS9_18_Mod_range_hashingENS9_20_Default_ranged_hashENS9_20_Prime_rehash_policyENS9_17_Hashtable_traitsILb1ELb0ELb1EEEE15_M_bucket_indexERS6_m
0000000000195250 W _ZNKSt10_HashtableIN2us3gov4cash3app11local_deltaESt4pairIKS4_mESaIS7_ENSt8__detail10_Select1stESt8equal_toIS4_ESt4hashIS4_ENS9_18_Mod_range_hashingENS9_20_Default_ranged_hashENS9_20_Prime_rehash_policyENS9_17_Hashtable_traitsILb1ELb0ELb1EEEE19_M_find_before_nodeEmRS6_m
0000000000194aa4 W _ZNKSt10_HashtableIN2us3gov4cash3app11local_deltaESt4pairIKS4_mESaIS7_ENSt8__detail10_Select1stESt8equal_toIS4_ESt4hashIS4_ENS9_18_Mod_range_hashingENS9_20_Default_ranged_hashENS9_20_Prime_rehash_policyENS9_17_Hashtable_traitsILb1ELb0ELb1EEEE21_M_uses_single_bucketEPPNS9_15_Hash_node_baseE
0000000000193ac4 W _ZNKSt10_HashtableIN2us3gov4cash3app11local_deltaESt4pairIKS4_mESaIS7_ENSt8__detail10_Select1stESt8equal_toIS4_ESt4hashIS4_ENS9_18_Mod_range_hashingENS9_20_Default_ranged_hashENS9_20_Prime_rehash_policyENS9_17_Hashtable_traitsILb1ELb0ELb1EEEE8_M_beginEv
000000000015ed8a W _ZNKSt10_HashtableIN2us3gov6crypto9ripemd16010value_typeES4_SaIS4_ENSt8__detail9_IdentityESt8equal_toIS4_ESt4hashIS4_ENS6_18_Mod_range_hashingENS6_20_Default_ranged_hashENS6_20_Prime_rehash_policyENS6_17_Hashtable_traitsILb1ELb1ELb1EEEE12_M_find_nodeEmRKS4_m
0000000000160894 W _ZNKSt10_HashtableIN2us3gov6crypto9ripemd16010value_typeES4_SaIS4_ENSt8__detail9_IdentityESt8equal_toIS4_ESt4hashIS4_ENS6_18_Mod_range_hashingENS6_20_Default_ranged_hashENS6_20_Prime_rehash_policyENS6_17_Hashtable_traitsILb1ELb1ELb1EEEE15_M_bucket_indexEPNS6_10_Hash_nodeIS4_Lb1EEE
000000000015ed58 W _ZNKSt10_HashtableIN2us3gov6crypto9ripemd16010value_typeES4_SaIS4_ENSt8__detail9_IdentityESt8equal_toIS4_ESt4hashIS4_ENS6_18_Mod_range_hashingENS6_20_Default_ranged_hashENS6_20_Prime_rehash_policyENS6_17_Hashtable_traitsILb1ELb1ELb1EEEE15_M_bucket_indexERKS4_m
000000000015fab8 W _ZNKSt10_HashtableIN2us3gov6crypto9ripemd16010value_typeES4_SaIS4_ENSt8__detail9_IdentityESt8equal_toIS4_ESt4hashIS4_ENS6_18_Mod_range_hashingENS6_20_Default_ranged_hashENS6_20_Prime_rehash_policyENS6_17_Hashtable_traitsILb1ELb1ELb1EEEE19_M_find_before_nodeEmRKS4_m
000000000015f8bc W _ZNKSt10_HashtableIN2us3gov6crypto9ripemd16010value_typeES4_SaIS4_ENSt8__detail9_IdentityESt8equal_toIS4_ESt4hashIS4_ENS6_18_Mod_range_hashingENS6_20_Default_ranged_hashENS6_20_Prime_rehash_policyENS6_17_Hashtable_traitsILb1ELb1ELb1EEEE21_M_uses_single_bucketEPPNS6_15_Hash_node_baseE
000000000015e982 W _ZNKSt10_HashtableIN2us3gov6crypto9ripemd16010value_typeES4_SaIS4_ENSt8__detail9_IdentityESt8equal_toIS4_ESt4hashIS4_ENS6_18_Mod_range_hashingENS6_20_Default_ranged_hashENS6_20_Prime_rehash_policyENS6_17_Hashtable_traitsILb1ELb1ELb1EEEE8_M_beginEv
00000000001846f8 W _ZNKSt10_HashtableIN2us3gov6crypto9ripemd16010value_typeESt4pairIKS4_mESaIS7_ENSt8__detail10_Select1stESt8equal_toIS4_ESt4hashIS4_ENS9_18_Mod_range_hashingENS9_20_Default_ranged_hashENS9_20_Prime_rehash_policyENS9_17_Hashtable_traitsILb1ELb0ELb1EEEE12_M_find_nodeEmRS6_m
0000000000184f80 W _ZNKSt10_HashtableIN2us3gov6crypto9ripemd16010value_typeESt4pairIKS4_mESaIS7_ENSt8__detail10_Select1stESt8equal_toIS4_ESt4hashIS4_ENS9_18_Mod_range_hashingENS9_20_Default_ranged_hashENS9_20_Prime_rehash_policyENS9_17_Hashtable_traitsILb1ELb0ELb1EEEE15_M_bucket_indexEPNS9_10_Hash_nodeIS7_Lb1EEE
00000000001846c6 W _ZNKSt10_HashtableIN2us3gov6crypto9ripemd16010value_typeESt4pairIKS4_mESaIS7_ENSt8__detail10_Select1stESt8equal_toIS4_ESt4hashIS4_ENS9_18_Mod_range_hashingENS9_20_Default_ranged_hashENS9_20_Prime_rehash_policyENS9_17_Hashtable_traitsILb1ELb0ELb1EEEE15_M_bucket_indexERS6_m
0000000000184a34 W _ZNKSt10_HashtableIN2us3gov6crypto9ripemd16010value_typeESt4pairIKS4_mESaIS7_ENSt8__detail10_Select1stESt8equal_toIS4_ESt4hashIS4_ENS9_18_Mod_range_hashingENS9_20_Default_ranged_hashENS9_20_Prime_rehash_policyENS9_17_Hashtable_traitsILb1ELb0ELb1EEEE19_M_find_before_nodeEmRS6_m
0000000000184608 W _ZNKSt10_HashtableIN2us3gov6crypto9ripemd16010value_typeESt4pairIKS4_mESaIS7_ENSt8__detail10_Select1stESt8equal_toIS4_ESt4hashIS4_ENS9_18_Mod_range_hashingENS9_20_Default_ranged_hashENS9_20_Prime_rehash_policyENS9_17_Hashtable_traitsILb1ELb0ELb1EEEE21_M_uses_single_bucketEPPNS9_15_Hash_node_baseE
000000000018436a W _ZNKSt10_HashtableIN2us3gov6crypto9ripemd16010value_typeESt4pairIKS4_mESaIS7_ENSt8__detail10_Select1stESt8equal_toIS4_ESt4hashIS4_ENS9_18_Mod_range_hashingENS9_20_Default_ranged_hashENS9_20_Prime_rehash_policyENS9_17_Hashtable_traitsILb1ELb0ELb1EEEE8_M_beginEv
00000000001932e6 W _ZNKSt10_HashtableIN2us3gov6crypto9ripemd16010value_typeESt4pairIKS4_NS1_4cash3app11local_delta9account_tEESaISB_ENSt8__detail10_Select1stESt8equal_toIS4_ESt4hashIS4_ENSD_18_Mod_range_hashingENSD_20_Default_ranged_hashENSD_20_Prime_rehash_policyENSD_17_Hashtable_traitsILb1ELb0ELb1EEEE12_M_find_nodeEmRS6_m
0000000000194cf0 W _ZNKSt10_HashtableIN2us3gov6crypto9ripemd16010value_typeESt4pairIKS4_NS1_4cash3app11local_delta9account_tEESaISB_ENSt8__detail10_Select1stESt8equal_toIS4_ESt4hashIS4_ENSD_18_Mod_range_hashingENSD_20_Default_ranged_hashENSD_20_Prime_rehash_policyENSD_17_Hashtable_traitsILb1ELb0ELb1EEEE15_M_bucket_indexEPNSD_10_Hash_nodeISB_Lb1EEE
00000000001932b4 W _ZNKSt10_HashtableIN2us3gov6crypto9ripemd16010value_typeESt4pairIKS4_NS1_4cash3app11local_delta9account_tEESaISB_ENSt8__detail10_Select1stESt8equal_toIS4_ESt4hashIS4_ENSD_18_Mod_range_hashingENSD_20_Default_ranged_hashENSD_20_Prime_rehash_policyENSD_17_Hashtable_traitsILb1ELb0ELb1EEEE15_M_bucket_indexERS6_m
0000000000193f40 W _ZNKSt10_HashtableIN2us3gov6crypto9ripemd16010value_typeESt4pairIKS4_NS1_4cash3app11local_delta9account_tEESaISB_ENSt8__detail10_Select1stESt8equal_toIS4_ESt4hashIS4_ENSD_18_Mod_range_hashingENSD_20_Default_ranged_hashENSD_20_Prime_rehash_policyENSD_17_Hashtable_traitsILb1ELb0ELb1EEEE19_M_find_before_nodeEmRS6_m
00000000001940ea W _ZNKSt10_HashtableIN2us3gov6crypto9ripemd16010value_typeESt4pairIKS4_NS1_4cash3app11local_delta9account_tEESaISB_ENSt8__detail10_Select1stESt8equal_toIS4_ESt4hashIS4_ENSD_18_Mod_range_hashingENSD_20_Default_ranged_hashENSD_20_Prime_rehash_policyENSD_17_Hashtable_traitsILb1ELb0ELb1EEEE21_M_uses_single_bucketEPPNSD_15_Hash_node_baseE
0000000000191f4a W _ZNKSt10_HashtableIN2us3gov6crypto9ripemd16010value_typeESt4pairIKS4_NS1_4cash3app11local_delta9account_tEESaISB_ENSt8__detail10_Select1stESt8equal_toIS4_ESt4hashIS4_ENSD_18_Mod_range_hashingENSD_20_Default_ranged_hashENSD_20_Prime_rehash_policyENSD_17_Hashtable_traitsILb1ELb0ELb1EEEE3endEv
0000000000191eba W _ZNKSt10_HashtableIN2us3gov6crypto9ripemd16010value_typeESt4pairIKS4_NS1_4cash3app11local_delta9account_tEESaISB_ENSt8__detail10_Select1stESt8equal_toIS4_ESt4hashIS4_ENSD_18_Mod_range_hashingENSD_20_Default_ranged_hashENSD_20_Prime_rehash_policyENSD_17_Hashtable_traitsILb1ELb0ELb1EEEE4findERS6_
00000000001926ac W _ZNKSt10_HashtableIN2us3gov6crypto9ripemd16010value_typeESt4pairIKS4_NS1_4cash3app11local_delta9account_tEESaISB_ENSt8__detail10_Select1stESt8equal_toIS4_ESt4hashIS4_ENSD_18_Mod_range_hashingENSD_20_Default_ranged_hashENSD_20_Prime_rehash_policyENSD_17_Hashtable_traitsILb1ELb0ELb1EEEE5beginEv
0000000000193372 W _ZNKSt10_HashtableIN2us3gov6crypto9ripemd16010value_typeESt4pairIKS4_NS1_4cash3app11local_delta9account_tEESaISB_ENSt8__detail10_Select1stESt8equal_toIS4_ESt4hashIS4_ENSD_18_Mod_range_hashingENSD_20_Default_ranged_hashENSD_20_Prime_rehash_policyENSD_17_Hashtable_traitsILb1ELb0ELb1EEEE8_M_beginEv
0000000000175860 W _ZNKSt10_HashtableIN2us3gov6crypto9ripemd16010value_typeESt4pairIKS4_NSt7__cxx1112basic_stringIcSt11char_traitsIcESaIcEEEESaISD_ENSt8__detail10_Select1stESt8equal_toIS4_ESt4hashIS4_ENSF_18_Mod_range_hashingENSF_20_Default_ranged_hashENSF_20_Prime_rehash_policyENSF_17_Hashtable_traitsILb1ELb0ELb1EEEE12_M_find_nodeEmRS6_m
000000000017740a W _ZNKSt10_HashtableIN2us3gov6crypto9ripemd16010value_typeESt4pairIKS4_NSt7__cxx1112basic_stringIcSt11char_traitsIcESaIcEEEESaISD_ENSt8__detail10_Select1stESt8equal_toIS4_ESt4hashIS4_ENSF_18_Mod_range_hashingENSF_20_Default_ranged_hashENSF_20_Prime_rehash_policyENSF_17_Hashtable_traitsILb1ELb0ELb1EEEE15_M_bucket_indexEPNSF_10_Hash_nodeISD_Lb1EEE
000000000017582e W _ZNKSt10_HashtableIN2us3gov6crypto9ripemd16010value_typeESt4pairIKS4_NSt7__cxx1112basic_stringIcSt11char_traitsIcESaIcEEEESaISD_ENSt8__detail10_Select1stESt8equal_toIS4_ESt4hashIS4_ENSF_18_Mod_range_hashingENSF_20_Default_ranged_hashENSF_20_Prime_rehash_policyENSF_17_Hashtable_traitsILb1ELb0ELb1EEEE15_M_bucket_indexERS6_m
00000000001768bc W _ZNKSt10_HashtableIN2us3gov6crypto9ripemd16010value_typeESt4pairIKS4_NSt7__cxx1112basic_stringIcSt11char_traitsIcESaIcEEEESaISD_ENSt8__detail10_Select1stESt8equal_toIS4_ESt4hashIS4_ENSF_18_Mod_range_hashingENSF_20_Default_ranged_hashENSF_20_Prime_rehash_policyENSF_17_Hashtable_traitsILb1ELb0ELb1EEEE19_M_find_before_nodeEmRS6_m
000000000017679a W _ZNKSt10_HashtableIN2us3gov6crypto9ripemd16010value_typeESt4pairIKS4_NSt7__cxx1112basic_stringIcSt11char_traitsIcESaIcEEEESaISD_ENSt8__detail10_Select1stESt8equal_toIS4_ESt4hashIS4_ENSF_18_Mod_range_hashingENSF_20_Default_ranged_hashENSF_20_Prime_rehash_policyENSF_17_Hashtable_traitsILb1ELb0ELb1EEEE21_M_uses_single_bucketEPPNSF_15_Hash_node_baseE
00000000001745b0 W _ZNKSt10_HashtableIN2us3gov6crypto9ripemd16010value_typeESt4pairIKS4_NSt7__cxx1112basic_stringIcSt11char_traitsIcESaIcEEEESaISD_ENSt8__detail10_Select1stESt8equal_toIS4_ESt4hashIS4_ENSF_18_Mod_range_hashingENSF_20_Default_ranged_hashENSF_20_Prime_rehash_policyENSF_17_Hashtable_traitsILb1ELb0ELb1EEEE3endEv
0000000000174520 W _ZNKSt10_HashtableIN2us3gov6crypto9ripemd16010value_typeESt4pairIKS4_NSt7__cxx1112basic_stringIcSt11char_traitsIcESaIcEEEESaISD_ENSt8__detail10_Select1stESt8equal_toIS4_ESt4hashIS4_ENSF_18_Mod_range_hashingENSF_20_Default_ranged_hashENSF_20_Prime_rehash_policyENSF_17_Hashtable_traitsILb1ELb0ELb1EEEE4findERS6_
00000000001748c4 W _ZNKSt10_HashtableIN2us3gov6crypto9ripemd16010value_typeESt4pairIKS4_NSt7__cxx1112basic_stringIcSt11char_traitsIcESaIcEEEESaISD_ENSt8__detail10_Select1stESt8equal_toIS4_ESt4hashIS4_ENSF_18_Mod_range_hashingENSF_20_Default_ranged_hashENSF_20_Prime_rehash_policyENSF_17_Hashtable_traitsILb1ELb0ELb1EEEE4sizeEv
0000000000175042 W _ZNKSt10_HashtableIN2us3gov6crypto9ripemd16010value_typeESt4pairIKS4_NSt7__cxx1112basic_stringIcSt11char_traitsIcESaIcEEEESaISD_ENSt8__detail10_Select1stESt8equal_toIS4_ESt4hashIS4_ENSF_18_Mod_range_hashingENSF_20_Default_ranged_hashENSF_20_Prime_rehash_policyENSF_17_Hashtable_traitsILb1ELb0ELb1EEEE5beginEv
000000000017509a W _ZNKSt10_HashtableIN2us3gov6crypto9ripemd16010value_typeESt4pairIKS4_NSt7__cxx1112basic_stringIcSt11char_traitsIcESaIcEEEESaISD_ENSt8__detail10_Select1stESt8equal_toIS4_ESt4hashIS4_ENSF_18_Mod_range_hashingENSF_20_Default_ranged_hashENSF_20_Prime_rehash_policyENSF_17_Hashtable_traitsILb1ELb0ELb1EEEE5emptyEv
000000000017571e W _ZNKSt10_HashtableIN2us3gov6crypto9ripemd16010value_typeESt4pairIKS4_NSt7__cxx1112basic_stringIcSt11char_traitsIcESaIcEEEESaISD_ENSt8__detail10_Select1stESt8equal_toIS4_ESt4hashIS4_ENSF_18_Mod_range_hashingENSF_20_Default_ranged_hashENSF_20_Prime_rehash_policyENSF_17_Hashtable_traitsILb1ELb0ELb1EEEE8_M_beginEv
000000000017edb8 W _ZNKSt10_HashtableIN2us3gov6crypto9ripemd16010value_typeESt4pairIKS4_S5_IS4_mEESaIS8_ENSt8__detail10_Select1stESt8equal_toIS4_ESt4hashIS4_ENSA_18_Mod_range_hashingENSA_20_Default_ranged_hashENSA_20_Prime_rehash_policyENSA_17_Hashtable_traitsILb1ELb0ELb1EEEE12_M_find_nodeEmRS6_m
000000000018187e W _ZNKSt10_HashtableIN2us3gov6crypto9ripemd16010value_typeESt4pairIKS4_S5_IS4_mEESaIS8_ENSt8__detail10_Select1stESt8equal_toIS4_ESt4hashIS4_ENSA_18_Mod_range_hashingENSA_20_Default_ranged_hashENSA_20_Prime_rehash_policyENSA_17_Hashtable_traitsILb1ELb0ELb1EEEE15_M_bucket_indexEPNSA_10_Hash_nodeIS8_Lb1EEE
000000000017ed86 W _ZNKSt10_HashtableIN2us3gov6crypto9ripemd16010value_typeESt4pairIKS4_S5_IS4_mEESaIS8_ENSt8__detail10_Select1stESt8equal_toIS4_ESt4hashIS4_ENSA_18_Mod_range_hashingENSA_20_Default_ranged_hashENSA_20_Prime_rehash_policyENSA_17_Hashtable_traitsILb1ELb0ELb1EEEE15_M_bucket_indexERS6_m
00000000001803b8 W _ZNKSt10_HashtableIN2us3gov6crypto9ripemd16010value_typeESt4pairIKS4_S5_IS4_mEESaIS8_ENSt8__detail10_Select1stESt8equal_toIS4_ESt4hashIS4_ENSA_18_Mod_range_hashingENSA_20_Default_ranged_hashENSA_20_Prime_rehash_policyENSA_17_Hashtable_traitsILb1ELb0ELb1EEEE19_M_find_before_nodeEmRS6_m
000000000017f67e W _ZNKSt10_HashtableIN2us3gov6crypto9ripemd16010value_typeESt4pairIKS4_S5_IS4_mEESaIS8_ENSt8__detail10_Select1stESt8equal_toIS4_ESt4hashIS4_ENSA_18_Mod_range_hashingENSA_20_Default_ranged_hashENSA_20_Prime_rehash_policyENSA_17_Hashtable_traitsILb1ELb0ELb1EEEE21_M_uses_single_bucketEPPNSA_15_Hash_node_baseE
000000000017c268 W _ZNKSt10_HashtableIN2us3gov6crypto9ripemd16010value_typeESt4pairIKS4_S5_IS4_mEESaIS8_ENSt8__detail10_Select1stESt8equal_toIS4_ESt4hashIS4_ENSA_18_Mod_range_hashingENSA_20_Default_ranged_hashENSA_20_Prime_rehash_policyENSA_17_Hashtable_traitsILb1ELb0ELb1EEEE4sizeEv
000000000017d6cc W _ZNKSt10_HashtableIN2us3gov6crypto9ripemd16010value_typeESt4pairIKS4_S5_IS4_mEESaIS8_ENSt8__detail10_Select1stESt8equal_toIS4_ESt4hashIS4_ENSA_18_Mod_range_hashingENSA_20_Default_ranged_hashENSA_20_Prime_rehash_policyENSA_17_Hashtable_traitsILb1ELb0ELb1EEEE5emptyEv
000000000017dbb0 W _ZNKSt10_HashtableIN2us3gov6crypto9ripemd16010value_typeESt4pairIKS4_S5_IS4_mEESaIS8_ENSt8__detail10_Select1stESt8equal_toIS4_ESt4hashIS4_ENSA_18_Mod_range_hashingENSA_20_Default_ranged_hashENSA_20_Prime_rehash_policyENSA_17_Hashtable_traitsILb1ELb0ELb1EEEE8_M_beginEv
000000000015f1c0 W _ZNKSt10_HashtableINSt7__cxx1112basic_stringIcSt11char_traitsIcESaIcEEES5_SaIS5_ENSt8__detail9_IdentityESt8equal_toIS5_ESt4hashIS5_ENS7_18_Mod_range_hashingENS7_20_Default_ranged_hashENS7_20_Prime_rehash_policyENS7_17_Hashtable_traitsILb1ELb1ELb1EEEE12_M_find_nodeEmRKS5_m
0000000000160e96 W _ZNKSt10_HashtableINSt7__cxx1112basic_stringIcSt11char_traitsIcESaIcEEES5_SaIS5_ENSt8__detail9_IdentityESt8equal_toIS5_ESt4hashIS5_ENS7_18_Mod_range_hashingENS7_20_Default_ranged_hashENS7_20_Prime_rehash_policyENS7_17_Hashtable_traitsILb1ELb1ELb1EEEE15_M_bucket_indexEPNS7_10_Hash_nodeIS5_Lb1EEE
000000000015f18e W _ZNKSt10_HashtableINSt7__cxx1112basic_stringIcSt11char_traitsIcESaIcEEES5_SaIS5_ENSt8__detail9_IdentityESt8equal_toIS5_ESt4hashIS5_ENS7_18_Mod_range_hashingENS7_20_Default_ranged_hashENS7_20_Prime_rehash_policyENS7_17_Hashtable_traitsILb1ELb1ELb1EEEE15_M_bucket_indexERKS5_m
0000000000160404 W _ZNKSt10_HashtableINSt7__cxx1112basic_stringIcSt11char_traitsIcESaIcEEES5_SaIS5_ENSt8__detail9_IdentityESt8equal_toIS5_ESt4hashIS5_ENS7_18_Mod_range_hashingENS7_20_Default_ranged_hashENS7_20_Prime_rehash_policyENS7_17_Hashtable_traitsILb1ELb1ELb1EEEE19_M_find_before_nodeEmRKS5_m
000000000015ffb2 W _ZNKSt10_HashtableINSt7__cxx1112basic_stringIcSt11char_traitsIcESaIcEEES5_SaIS5_ENSt8__detail9_IdentityESt8equal_toIS5_ESt4hashIS5_ENS7_18_Mod_range_hashingENS7_20_Default_ranged_hashENS7_20_Prime_rehash_policyENS7_17_Hashtable_traitsILb1ELb1ELb1EEEE21_M_uses_single_bucketEPPNS7_15_Hash_node_baseE
00000000001752b0 W _ZNKSt10_HashtableINSt7__cxx1112basic_stringIcSt11char_traitsIcESaIcEEES5_SaIS5_ENSt8__detail9_IdentityESt8equal_toIS5_ESt4hashIS5_ENS7_18_Mod_range_hashingENS7_20_Default_ranged_hashENS7_20_Prime_rehash_policyENS7_17_Hashtable_traitsILb1ELb1ELb1EEEE3endEv
0000000000175220 W _ZNKSt10_HashtableINSt7__cxx1112basic_stringIcSt11char_traitsIcESaIcEEES5_SaIS5_ENSt8__detail9_IdentityESt8equal_toIS5_ESt4hashIS5_ENS7_18_Mod_range_hashingENS7_20_Default_ranged_hashENS7_20_Prime_rehash_policyENS7_17_Hashtable_traitsILb1ELb1ELb1EEEE4findERKS5_
000000000017ce5a W _ZNKSt10_HashtableINSt7__cxx1112basic_stringIcSt11char_traitsIcESaIcEEES5_SaIS5_ENSt8__detail9_IdentityESt8equal_toIS5_ESt4hashIS5_ENS7_18_Mod_range_hashingENS7_20_Default_ranged_hashENS7_20_Prime_rehash_policyENS7_17_Hashtable_traitsILb1ELb1ELb1EEEE5beginEv
000000000015ef5c W _ZNKSt10_HashtableINSt7__cxx1112basic_stringIcSt11char_traitsIcESaIcEEES5_SaIS5_ENSt8__detail9_IdentityESt8equal_toIS5_ESt4hashIS5_ENS7_18_Mod_range_hashingENS7_20_Default_ranged_hashENS7_20_Prime_rehash_policyENS7_17_Hashtable_traitsILb1ELb1ELb1EEEE8_M_beginEv
000000000017f032 W _ZNKSt10_HashtableIPN2us3gov10blockchain6peer_tESt4pairIKS4_NS2_5shellEESaIS8_ENSt8__detail10_Select1stESt8equal_toIS4_ESt4hashIS4_ENSA_18_Mod_range_hashingENSA_20_Default_ranged_hashENSA_20_Prime_rehash_policyENSA_17_Hashtable_traitsILb0ELb0ELb1EEEE12_M_find_nodeEmRS6_m
0000000000181bba W _ZNKSt10_HashtableIPN2us3gov10blockchain6peer_tESt4pairIKS4_NS2_5shellEESaIS8_ENSt8__detail10_Select1stESt8equal_toIS4_ESt4hashIS4_ENSA_18_Mod_range_hashingENSA_20_Default_ranged_hashENSA_20_Prime_rehash_policyENSA_17_Hashtable_traitsILb0ELb0ELb1EEEE15_M_bucket_indexEPNSA_10_Hash_nodeIS8_Lb0EEE
000000000017f000 W _ZNKSt10_HashtableIPN2us3gov10blockchain6peer_tESt4pairIKS4_NS2_5shellEESaIS8_ENSt8__detail10_Select1stESt8equal_toIS4_ESt4hashIS4_ENSA_18_Mod_range_hashingENSA_20_Default_ranged_hashENSA_20_Prime_rehash_policyENSA_17_Hashtable_traitsILb0ELb0ELb1EEEE15_M_bucket_indexERS6_m
000000000018086c W _ZNKSt10_HashtableIPN2us3gov10blockchain6peer_tESt4pairIKS4_NS2_5shellEESaIS8_ENSt8__detail10_Select1stESt8equal_toIS4_ESt4hashIS4_ENSA_18_Mod_range_hashingENSA_20_Default_ranged_hashENSA_20_Prime_rehash_policyENSA_17_Hashtable_traitsILb0ELb0ELb1EEEE19_M_find_before_nodeEmRS6_m
000000000017f51e W _ZNKSt10_HashtableIPN2us3gov10blockchain6peer_tESt4pairIKS4_NS2_5shellEESaIS8_ENSt8__detail10_Select1stESt8equal_toIS4_ESt4hashIS4_ENSA_18_Mod_range_hashingENSA_20_Default_ranged_hashENSA_20_Prime_rehash_policyENSA_17_Hashtable_traitsILb0ELb0ELb1EEEE21_M_uses_single_bucketEPPNSA_15_Hash_node_baseE
000000000017db0e W _ZNKSt10_HashtableIPN2us3gov10blockchain6peer_tESt4pairIKS4_NS2_5shellEESaIS8_ENSt8__detail10_Select1stESt8equal_toIS4_ESt4hashIS4_ENSA_18_Mod_range_hashingENSA_20_Default_ranged_hashENSA_20_Prime_rehash_policyENSA_17_Hashtable_traitsILb0ELb0ELb1EEEE8_M_beginEv
00000000001490a4 W _ZNKSt10_HashtableIPN2us3gov14signal_handler8callbackES4_SaIS4_ENSt8__detail9_IdentityESt8equal_toIS4_ESt4hashIS4_ENS6_18_Mod_range_hashingENS6_20_Default_ranged_hashENS6_20_Prime_rehash_policyENS6_17_Hashtable_traitsILb0ELb1ELb1EEEE12_M_find_nodeEmRKS4_m
000000000014b122 W _ZNKSt10_HashtableIPN2us3gov14signal_handler8callbackES4_SaIS4_ENSt8__detail9_IdentityESt8equal_toIS4_ESt4hashIS4_ENS6_18_Mod_range_hashingENS6_20_Default_ranged_hashENS6_20_Prime_rehash_policyENS6_17_Hashtable_traitsILb0ELb1ELb1EEEE15_M_bucket_indexEPNS6_10_Hash_nodeIS4_Lb0EEE
0000000000149072 W _ZNKSt10_HashtableIPN2us3gov14signal_handler8callbackES4_SaIS4_ENSt8__detail9_IdentityESt8equal_toIS4_ESt4hashIS4_ENS6_18_Mod_range_hashingENS6_20_Default_ranged_hashENS6_20_Prime_rehash_policyENS6_17_Hashtable_traitsILb0ELb1ELb1EEEE15_M_bucket_indexERKS4_m
000000000014b036 W _ZNKSt10_HashtableIPN2us3gov14signal_handler8callbackES4_SaIS4_ENSt8__detail9_IdentityESt8equal_toIS4_ESt4hashIS4_ENS6_18_Mod_range_hashingENS6_20_Default_ranged_hashENS6_20_Prime_rehash_policyENS6_17_Hashtable_traitsILb0ELb1ELb1EEEE19_M_find_before_nodeEmRKS4_m
000000000014f612 W _ZNKSt10_HashtableIPN2us3gov14signal_handler8callbackES4_SaIS4_ENSt8__detail9_IdentityESt8equal_toIS4_ESt4hashIS4_ENS6_18_Mod_range_hashingENS6_20_Default_ranged_hashENS6_20_Prime_rehash_policyENS6_17_Hashtable_traitsILb0ELb1ELb1EEEE21_M_uses_single_bucketEPPNS6_15_Hash_node_baseE
000000000014efb2 W _ZNKSt10_HashtableIPN2us3gov14signal_handler8callbackES4_SaIS4_ENSt8__detail9_IdentityESt8equal_toIS4_ESt4hashIS4_ENS6_18_Mod_range_hashingENS6_20_Default_ranged_hashENS6_20_Prime_rehash_policyENS6_17_Hashtable_traitsILb0ELb1ELb1EEEE8_M_beginEv
000000000014aaf8 W _ZNKSt10_HashtableIPN2us3gov6socket6clientES4_SaIS4_ENSt8__detail9_IdentityESt8equal_toIS4_ESt4hashIS4_ENS6_18_Mod_range_hashingENS6_20_Default_ranged_hashENS6_20_Prime_rehash_policyENS6_17_Hashtable_traitsILb0ELb1ELb1EEEE12_M_find_nodeEmRKS4_m
00000000001498f0 W _ZNKSt10_HashtableIPN2us3gov6socket6clientES4_SaIS4_ENSt8__detail9_IdentityESt8equal_toIS4_ESt4hashIS4_ENS6_18_Mod_range_hashingENS6_20_Default_ranged_hashENS6_20_Prime_rehash_policyENS6_17_Hashtable_traitsILb0ELb1ELb1EEEE15_M_bucket_indexEPNS6_10_Hash_nodeIS4_Lb0EEE
000000000014aac6 W _ZNKSt10_HashtableIPN2us3gov6socket6clientES4_SaIS4_ENSt8__detail9_IdentityESt8equal_toIS4_ESt4hashIS4_ENS6_18_Mod_range_hashingENS6_20_Default_ranged_hashENS6_20_Prime_rehash_policyENS6_17_Hashtable_traitsILb0ELb1ELb1EEEE15_M_bucket_indexERKS4_m
000000000014cb8a W _ZNKSt10_HashtableIPN2us3gov6socket6clientES4_SaIS4_ENSt8__detail9_IdentityESt8equal_toIS4_ESt4hashIS4_ENS6_18_Mod_range_hashingENS6_20_Default_ranged_hashENS6_20_Prime_rehash_policyENS6_17_Hashtable_traitsILb0ELb1ELb1EEEE19_M_find_before_nodeEmRKS4_m
00000000001499ee W _ZNKSt10_HashtableIPN2us3gov6socket6clientES4_SaIS4_ENSt8__detail9_IdentityESt8equal_toIS4_ESt4hashIS4_ENS6_18_Mod_range_hashingENS6_20_Default_ranged_hashENS6_20_Prime_rehash_policyENS6_17_Hashtable_traitsILb0ELb1ELb1EEEE21_M_uses_single_bucketEPPNS6_15_Hash_node_baseE
00000000001486c6 W _ZNKSt10_HashtableIPN2us3gov6socket6clientES4_SaIS4_ENSt8__detail9_IdentityESt8equal_toIS4_ESt4hashIS4_ENS6_18_Mod_range_hashingENS6_20_Default_ranged_hashENS6_20_Prime_rehash_policyENS6_17_Hashtable_traitsILb0ELb1ELb1EEEE3endEv
0000000000148e4e W _ZNKSt10_HashtableIPN2us3gov6socket6clientES4_SaIS4_ENSt8__detail9_IdentityESt8equal_toIS4_ESt4hashIS4_ENS6_18_Mod_range_hashingENS6_20_Default_ranged_hashENS6_20_Prime_rehash_policyENS6_17_Hashtable_traitsILb0ELb1ELb1EEEE4findERKS4_
0000000000148522 W _ZNKSt10_HashtableIPN2us3gov6socket6clientES4_SaIS4_ENSt8__detail9_IdentityESt8equal_toIS4_ESt4hashIS4_ENS6_18_Mod_range_hashingENS6_20_Default_ranged_hashENS6_20_Prime_rehash_policyENS6_17_Hashtable_traitsILb0ELb1ELb1EEEE4sizeEv
0000000000148696 W _ZNKSt10_HashtableIPN2us3gov6socket6clientES4_SaIS4_ENSt8__detail9_IdentityESt8equal_toIS4_ESt4hashIS4_ENS6_18_Mod_range_hashingENS6_20_Default_ranged_hashENS6_20_Prime_rehash_policyENS6_17_Hashtable_traitsILb0ELb1ELb1EEEE5beginEv
0000000000146dce W _ZNKSt10_HashtableIPN2us3gov6socket6clientES4_SaIS4_ENSt8__detail9_IdentityESt8equal_toIS4_ESt4hashIS4_ENS6_18_Mod_range_hashingENS6_20_Default_ranged_hashENS6_20_Prime_rehash_policyENS6_17_Hashtable_traitsILb0ELb1ELb1EEEE8_M_beginEv
000000000014a858 W _ZNKSt10_HashtableIPN2us3gov6socket6clientESt4pairIKS4_NSt6chrono10time_pointINS7_3_V212steady_clockENS7_8durationIlSt5ratioILl1ELl1000000000EEEEEEESaISG_ENSt8__detail10_Select1stESt8equal_toIS4_ESt4hashIS4_ENSI_18_Mod_range_hashingENSI_20_Default_ranged_hashENSI_20_Prime_rehash_policyENSI_17_Hashtable_traitsILb0ELb0ELb1EEEE12_M_find_nodeEmRS6_m
000000000014c688 W _ZNKSt10_HashtableIPN2us3gov6socket6clientESt4pairIKS4_NSt6chrono10time_pointINS7_3_V212steady_clockENS7_8durationIlSt5ratioILl1ELl1000000000EEEEEEESaISG_ENSt8__detail10_Select1stESt8equal_toIS4_ESt4hashIS4_ENSI_18_Mod_range_hashingENSI_20_Default_ranged_hashENSI_20_Prime_rehash_policyENSI_17_Hashtable_traitsILb0ELb0ELb1EEEE15_M_bucket_indexEPNSI_10_Hash_nodeISG_Lb0EEE
000000000014a826 W _ZNKSt10_HashtableIPN2us3gov6socket6clientESt4pairIKS4_NSt6chrono10time_pointINS7_3_V212steady_clockENS7_8durationIlSt5ratioILl1ELl1000000000EEEEEEESaISG_ENSt8__detail10_Select1stESt8equal_toIS4_ESt4hashIS4_ENSI_18_Mod_range_hashingENSI_20_Default_ranged_hashENSI_20_Prime_rehash_policyENSI_17_Hashtable_traitsILb0ELb0ELb1EEEE15_M_bucket_indexERS6_m
000000000014c5b6 W _ZNKSt10_HashtableIPN2us3gov6socket6clientESt4pairIKS4_NSt6chrono10time_pointINS7_3_V212steady_clockENS7_8durationIlSt5ratioILl1ELl1000000000EEEEEEESaISG_ENSt8__detail10_Select1stESt8equal_toIS4_ESt4hashIS4_ENSI_18_Mod_range_hashingENSI_20_Default_ranged_hashENSI_20_Prime_rehash_policyENSI_17_Hashtable_traitsILb0ELb0ELb1EEEE19_M_find_before_nodeEmRS6_m
000000000014b386 W _ZNKSt10_HashtableIPN2us3gov6socket6clientESt4pairIKS4_NSt6chrono10time_pointINS7_3_V212steady_clockENS7_8durationIlSt5ratioILl1ELl1000000000EEEEEEESaISG_ENSt8__detail10_Select1stESt8equal_toIS4_ESt4hashIS4_ENSI_18_Mod_range_hashingENSI_20_Default_ranged_hashENSI_20_Prime_rehash_policyENSI_17_Hashtable_traitsILb0ELb0ELb1EEEE21_M_uses_single_bucketEPPNSI_15_Hash_node_baseE
00000000001491c8 W _ZNKSt10_HashtableIPN2us3gov6socket6clientESt4pairIKS4_NSt6chrono10time_pointINS7_3_V212steady_clockENS7_8durationIlSt5ratioILl1ELl1000000000EEEEEEESaISG_ENSt8__detail10_Select1stESt8equal_toIS4_ESt4hashIS4_ENSI_18_Mod_range_hashingENSI_20_Default_ranged_hashENSI_20_Prime_rehash_policyENSI_17_Hashtable_traitsILb0ELb0ELb1EEEE8_M_beginEv
00000000001710d6 W _ZNKSt10_Select1stISt4pairIKiPN2us3gov10blockchain3app11local_deltaEEEclERKS8_
000000000017126e W _ZNKSt10_Select1stISt4pairIKiPN2us3gov10blockchain3app5deltaEEEclERKS8_
0000000000171422 W _ZNKSt10_Select1stISt4pairIKN2us3gov6crypto9ripemd16010value_typeEmEEclERKS7_
0000000000193c06 W _ZNKSt10_Select1stISt4pairIKN2us3gov6crypto9ripemd16010value_typeENS2_4cash3app11local_delta9account_tEEEclERKSB_
00000000001766ca W _ZNKSt10_Select1stISt4pairIKN2us3gov6crypto9ripemd16010value_typeENSt7__cxx1112basic_stringIcSt11char_traitsIcESaIcEEEEEclERKSD_
0000000000146b38 W _ZNKSt10unique_ptrIN2us3gov3net2osESt14default_deleteIS3_EE3getEv
0000000000145166 W _ZNKSt10unique_ptrIN2us3gov3net2osESt14default_deleteIS3_EEptEv
0000000000149318 W _ZNKSt10unique_ptrIN2us3gov3net5posixESt14default_deleteIS3_EE3getEv
0000000000153d62 W _ZNKSt10unique_ptrINSt13__future_base12_Result_baseENS1_8_DeleterEE3getEv
0000000000152dc8 W _ZNKSt10unique_ptrINSt13__future_base12_Result_baseENS1_8_DeleterEEcvbEv
0000000000152de8 W _ZNKSt10unique_ptrINSt13__future_base12_Result_baseENS1_8_DeleterEEptEv
0000000000153f64 W _ZNKSt10unique_ptrINSt13__future_base13_State_baseV211_Make_readyESt14default_deleteIS2_EE3getEv
0000000000152d14 W _ZNKSt10unique_ptrINSt13__future_base13_State_baseV211_Make_readyESt14default_deleteIS2_EEptEv
0000000000155758 W _ZNKSt10unique_ptrINSt13__future_base7_ResultIvEENS0_12_Result_base8_DeleterEE3getEv
000000000015679c W _ZNKSt10unique_ptrINSt13__future_base7_ResultIvEENS0_12_Result_base8_DeleterEEptEv
000000000015461c W _ZNKSt10unique_ptrISt6threadSt14default_deleteIS0_EE3getEv
000000000015352a W _ZNKSt10unique_ptrISt6threadSt14default_deleteIS0_EEptEv
000000000015781a W _ZNKSt11_Deque_baseIPSt8functionIFviEESaIS3_EE19_M_get_Tp_allocatorEv
0000000000156b0c W _ZNKSt11_Deque_baseIPSt8functionIFviEESaIS3_EE20_M_get_map_allocatorEv
0000000000157df0 W _ZNKSt11unique_lockISt5mutexE5mutexEv
00000000001557f0 W _ZNKSt12__shared_ptrINSt13__future_base13_State_baseV2ELN9__gnu_cxx12_Lock_policyE2EE3getEv
0000000000153116 W _ZNKSt12__shared_ptrINSt13__future_base13_State_baseV2ELN9__gnu_cxx12_Lock_policyE2EEcvbEv
0000000000157e46 W _ZNKSt12__shared_ptrINSt13__future_base16_Task_state_baseIFviEEELN9__gnu_cxx12_Lock_policyE2EE3getEv
0000000000159946 W _ZNKSt12__shared_ptrINSt13__future_base16_Task_state_baseIFviEEELN9__gnu_cxx12_Lock_policyE2EE6uniqueEv
00000000001572dc W _ZNKSt12__shared_ptrINSt13__future_base16_Task_state_baseIFviEEELN9__gnu_cxx12_Lock_policyE2EEcvbEv
00000000001572ca W _ZNKSt12__shared_ptrISt13packaged_taskIFviEELN9__gnu_cxx12_Lock_policyE2EE3getEv
0000000000155f5c W _ZNKSt12__shared_ptrISt6atomicIbELN9__gnu_cxx12_Lock_policyE2EE3getEv
000000000013341e W _ZNKSt12_Vector_baseIhSaIhEE19_M_get_Tp_allocatorEv
000000000014a046 W _ZNKSt12_Vector_baseIiSaIiEE19_M_get_Tp_allocatorEv
000000000018eae8 W _ZNKSt12_Vector_baseIN2us3gov4cash2tx7input_tESaIS4_EE19_M_get_Tp_allocatorEv
000000000018ebbc W _ZNKSt12_Vector_baseIN2us3gov4cash2tx8output_tESaIS4_EE19_M_get_Tp_allocatorEv
00000000001813a2 W _ZNKSt12_Vector_baseIN2us3gov6crypto9ripemd16010value_typeESaIS4_EE19_M_get_Tp_allocatorEv
000000000015005c W _ZNKSt12_Vector_baseINSt7__cxx1112basic_stringIcSt11char_traitsIcESaIcEEESaIS5_EE19_M_get_Tp_allocatorEv
000000000018171a W _ZNKSt12_Vector_baseIPN2us3gov10blockchain6peer_tESaIS4_EE19_M_get_Tp_allocatorEv
000000000015e6c0 W _ZNKSt12_Vector_baseIPN2us3gov4peer6peer_tESaIS4_EE19_M_get_Tp_allocatorEv
000000000014a41c W _ZNKSt12_Vector_baseIPN2us3gov6socket6clientESaIS4_EE19_M_get_Tp_allocatorEv
00000000001579ea W _ZNKSt12_Vector_baseISt10shared_ptrISt6atomicIbEESaIS3_EE19_M_get_Tp_allocatorEv
00000000001578f0 W _ZNKSt12_Vector_baseISt10unique_ptrISt6threadSt14default_deleteIS1_EESaIS4_EE19_M_get_Tp_allocatorEv
0000000000176032 W _ZNKSt12_Vector_baseISt4pairIN2us3gov6crypto9ripemd16010value_typeENSt7__cxx1112basic_stringIcSt11char_traitsIcESaIcEEEESaISC_EE19_M_get_Tp_allocatorEv
000000000017e3d2 W _ZNKSt12_Vector_baseISt6threadSaIS0_EE19_M_get_Tp_allocatorEv
00000000001517f4 W _ZNKSt13__future_base12_Result_base8_DeleterclEPS0_
0000000000151ce0 W _ZNKSt13__future_base13_State_baseV221_M_is_deferred_futureEv
000000000013420e W _ZNKSt13move_iteratorIPhE4baseEv
000000000014f50e W _ZNKSt13move_iteratorIPiE4baseEv
000000000018fbb8 W _ZNKSt13move_iteratorIPN2us3gov4cash2tx7input_tEE4baseEv
000000000018fa88 W _ZNKSt13move_iteratorIPN2us3gov4cash2tx7input_tEEdeEv
000000000018fc02 W _ZNKSt13move_iteratorIPN2us3gov4cash2tx8output_tEE4baseEv
000000000018fb34 W _ZNKSt13move_iteratorIPN2us3gov4cash2tx8output_tEEdeEv
0000000000183266 W _ZNKSt13move_iteratorIPN2us3gov6crypto9ripemd16010value_typeEE4baseEv
0000000000182dd6 W _ZNKSt13move_iteratorIPN2us3gov6crypto9ripemd16010value_typeEEdeEv
00000000001507b2 W _ZNKSt13move_iteratorIPNSt7__cxx1112basic_stringIcSt11char_traitsIcESaIcEEEE4baseEv
000000000015075c W _ZNKSt13move_iteratorIPNSt7__cxx1112basic_stringIcSt11char_traitsIcESaIcEEEEdeEv
0000000000183544 W _ZNKSt13move_iteratorIPPN2us3gov10blockchain6peer_tEE4baseEv
0000000000161b06 W _ZNKSt13move_iteratorIPPN2us3gov4peer6peer_tEE4baseEv
000000000014f56c W _ZNKSt13move_iteratorIPPN2us3gov6socket6clientEE4baseEv
0000000000159060 W _ZNKSt13move_iteratorIPSt10shared_ptrISt6atomicIbEEE4baseEv
000000000015896e W _ZNKSt13move_iteratorIPSt10shared_ptrISt6atomicIbEEEdeEv
0000000000158f8c W _ZNKSt13move_iteratorIPSt10unique_ptrISt6threadSt14default_deleteIS1_EEE4baseEv
00000000001588b4 W _ZNKSt13move_iteratorIPSt10unique_ptrISt6threadSt14default_deleteIS1_EEEdeEv
00000000001792c6 W _ZNKSt13move_iteratorIPSt4pairIN2us3gov6crypto9ripemd16010value_typeENSt7__cxx1112basic_stringIcSt11char_traitsIcESaIcEEEEE4baseEv
0000000000178f04 W _ZNKSt13move_iteratorIPSt4pairIN2us3gov6crypto9ripemd16010value_typeENSt7__cxx1112basic_stringIcSt11char_traitsIcESaIcEEEEEdeEv
0000000000182e38 W _ZNKSt13move_iteratorIPSt6threadE4baseEv
0000000000182446 W _ZNKSt13move_iteratorIPSt6threadEdeEv
000000000016f54e W _ZNKSt13_Rb_tree_nodeISt4pairIKiPN2us3gov10blockchain3app11local_deltaEEE9_M_valptrEv
000000000016f742 W _ZNKSt13_Rb_tree_nodeISt4pairIKiPN2us3gov10blockchain3app5deltaEEE9_M_valptrEv
000000000016f338 W _ZNKSt13_Rb_tree_nodeISt4pairIKN2us3gov6crypto9ripemd16010value_typeEmEE9_M_valptrEv
0000000000191ad4 W _ZNKSt13_Rb_tree_nodeISt4pairIKN2us3gov6crypto9ripemd16010value_typeENS2_4cash3app11local_delta9account_tEEE9_M_valptrEv
0000000000174e6a W _ZNKSt13_Rb_tree_nodeISt4pairIKN2us3gov6crypto9ripemd16010value_typeENSt7__cxx1112basic_stringIcSt11char_traitsIcESaIcEEEEE9_M_valptrEv
000000000017a8a8 W _ZNKSt13unordered_mapIiPN2us3gov10blockchain3appESt4hashIiESt8equal_toIiESaISt4pairIKiS4_EEE3endEv
000000000017b694 W _ZNKSt13unordered_mapIiPN2us3gov10blockchain3appESt4hashIiESt8equal_toIiESaISt4pairIKiS4_EEE4findERSA_
000000000017aa7c W _ZNKSt13unordered_mapIiPN2us3gov10blockchain3appESt4hashIiESt8equal_toIiESaISt4pairIKiS4_EEE4sizeEv
000000000017a88e W _ZNKSt13unordered_mapIiPN2us3gov10blockchain3appESt4hashIiESt8equal_toIiESaISt4pairIKiS4_EEE5beginEv
0000000000145226 W _ZNKSt13unordered_mapIiPN2us3gov6socket6clientESt4hashIiESt8equal_toIiESaISt4pairIKiS4_EEE3endEv
0000000000145200 W _ZNKSt13unordered_mapIiPN2us3gov6socket6clientESt4hashIiESt8equal_toIiESaISt4pairIKiS4_EEE4findERSA_
0000000000145c5c W _ZNKSt13unordered_mapIiPN2us3gov6socket6clientESt4hashIiESt8equal_toIiESaISt4pairIKiS4_EEE4sizeEv
0000000000146132 W _ZNKSt13unordered_mapIiPN2us3gov6socket6clientESt4hashIiESt8equal_toIiESaISt4pairIKiS4_EEE5beginEv
0000000000190a68 W _ZNKSt13unordered_mapIN2us3gov6crypto9ripemd16010value_typeENS1_4cash3app11local_delta9account_tESt4hashIS4_ESt8equal_toIS4_ESaISt4pairIKS4_S8_EEE3endEv
0000000000190a42 W _ZNKSt13unordered_mapIN2us3gov6crypto9ripemd16010value_typeENS1_4cash3app11local_delta9account_tESt4hashIS4_ESt8equal_toIS4_ESaISt4pairIKS4_S8_EEE4findERSE_
0000000000191094 W _ZNKSt13unordered_mapIN2us3gov6crypto9ripemd16010value_typeENS1_4cash3app11local_delta9account_tESt4hashIS4_ESt8equal_toIS4_ESaISt4pairIKS4_S8_EEE5beginEv
0000000000173522 W _ZNKSt13unordered_mapIN2us3gov6crypto9ripemd16010value_typeENSt7__cxx1112basic_stringIcSt11char_traitsIcESaIcEEESt4hashIS4_ESt8equal_toIS4_ESaISt4pairIKS4_SA_EEE3endEv
00000000001734fc W _ZNKSt13unordered_mapIN2us3gov6crypto9ripemd16010value_typeENSt7__cxx1112basic_stringIcSt11char_traitsIcESaIcEEESt4hashIS4_ESt8equal_toIS4_ESaISt4pairIKS4_SA_EEE4findERSG_
0000000000173722 W _ZNKSt13unordered_mapIN2us3gov6crypto9ripemd16010value_typeENSt7__cxx1112basic_stringIcSt11char_traitsIcESaIcEEESt4hashIS4_ESt8equal_toIS4_ESaISt4pairIKS4_SA_EEE4sizeEv
0000000000173df0 W _ZNKSt13unordered_mapIN2us3gov6crypto9ripemd16010value_typeENSt7__cxx1112basic_stringIcSt11char_traitsIcESaIcEEESt4hashIS4_ESt8equal_toIS4_ESaISt4pairIKS4_SA_EEE5beginEv
0000000000173e46 W _ZNKSt13unordered_mapIN2us3gov6crypto9ripemd16010value_typeENSt7__cxx1112basic_stringIcSt11char_traitsIcESaIcEEESt4hashIS4_ESt8equal_toIS4_ESaISt4pairIKS4_SA_EEE5emptyEv
000000000017a8fe W _ZNKSt13unordered_mapIN2us3gov6crypto9ripemd16010value_typeESt4pairIS4_mESt4hashIS4_ESt8equal_toIS4_ESaIS5_IKS4_S6_EEE4sizeEv
000000000017b556 W _ZNKSt13unordered_mapIN2us3gov6crypto9ripemd16010value_typeESt4pairIS4_mESt4hashIS4_ESt8equal_toIS4_ESaIS5_IKS4_S6_EEE5emptyEv
0000000000173f40 W _ZNKSt13unordered_setINSt7__cxx1112basic_stringIcSt11char_traitsIcESaIcEEESt4hashIS5_ESt8equal_toIS5_ESaIS5_EE3endEv
0000000000173f1a W _ZNKSt13unordered_setINSt7__cxx1112basic_stringIcSt11char_traitsIcESaIcEEESt4hashIS5_ESt8equal_toIS5_ESaIS5_EE4findERKS5_
000000000017af44 W _ZNKSt13unordered_setINSt7__cxx1112basic_stringIcSt11char_traitsIcESaIcEEESt4hashIS5_ESt8equal_toIS5_ESaIS5_EE5beginEv
0000000000146036 W _ZNKSt13unordered_setIPN2us3gov6socket6clientESt4hashIS4_ESt8equal_toIS4_ESaIS4_EE3endEv
00000000001464f8 W _ZNKSt13unordered_setIPN2us3gov6socket6clientESt4hashIS4_ESt8equal_toIS4_ESaIS4_EE4findERKS4_
0000000000145ebe W _ZNKSt13unordered_setIPN2us3gov6socket6clientESt4hashIS4_ESt8equal_toIS4_ESaIS4_EE4sizeEv
000000000014601c W _ZNKSt13unordered_setIPN2us3gov6socket6clientESt4hashIS4_ESt8equal_toIS4_ESaIS4_EE5beginEv
0000000000146a44 W _ZNKSt14default_deleteIN2us3gov3net2osEEclEPS3_
0000000000146968 W _ZNKSt14default_deleteIN2us3gov3net5posixEEclEPS3_
0000000000153f2c W _ZNKSt14default_deleteINSt13__future_base13_State_baseV211_Make_readyEEclEPS2_
00000000001561a0 W _ZNKSt14default_deleteINSt6thread6_StateEEclEPS1_
0000000000155060 W _ZNKSt14default_deleteISt6threadEclEPS0_
0000000000154d66 W _ZNKSt14default_deleteISt8functionIFviEEEclEPS2_
0000000000151566 W _ZNKSt14_Function_base8_M_emptyEv
00000000001573ba W _ZNKSt14__shared_countILN9__gnu_cxx12_Lock_policyE2EE14_M_get_deleterERKSt9type_info
00000000001557c0 W _ZNKSt14__shared_countILN9__gnu_cxx12_Lock_policyE2EE16_M_get_use_countEv
00000000001542ca W _ZNKSt14__shared_countILN9__gnu_cxx12_Lock_policyE2EE9_M_uniqueEv
0000000000156e60 W _ZNKSt15_Deque_iteratorIPSt8functionIFviEERS3_PS3_EdeEv
00000000001493f6 W _ZNKSt15__uniq_ptr_implIN2us3gov3net2osESt14default_deleteIS3_EE6_M_ptrEv
000000000014b4a0 W _ZNKSt15__uniq_ptr_implIN2us3gov3net5posixESt14default_deleteIS3_EE6_M_ptrEv
000000000015553c W _ZNKSt15__uniq_ptr_implINSt13__future_base12_Result_baseENS1_8_DeleterEE6_M_ptrEv
000000000015564e W _ZNKSt15__uniq_ptr_implINSt13__future_base13_State_baseV211_Make_readyESt14default_deleteIS2_EE6_M_ptrEv
00000000001566a8 W _ZNKSt15__uniq_ptr_implINSt13__future_base7_ResultIvEENS0_12_Result_base8_DeleterEE6_M_ptrEv
0000000000155b3c W _ZNKSt15__uniq_ptr_implISt6threadSt14default_deleteIS0_EE6_M_ptrEv
00000000001333b6 W _ZNKSt16reverse_iteratorIN9__gnu_cxx17__normal_iteratorIPhSt6vectorIhSaIhEEEEE4baseEv
000000000013181a W _ZNKSt16reverse_iteratorIN9__gnu_cxx17__normal_iteratorIPhSt6vectorIhSaIhEEEEEdeEv
0000000000134776 W _ZNKSt16reverse_iteratorIN9__gnu_cxx17__normal_iteratorIPKhSt6vectorIhSaIhEEEEEdeEv
000000000017e1e2 W _ZNKSt16reverse_iteratorIN9__gnu_cxx17__normal_iteratorIPKN2us3gov6crypto9ripemd16010value_typeESt6vectorIS6_SaIS6_EEEEE4baseEv
000000000017a066 W _ZNKSt16reverse_iteratorIN9__gnu_cxx17__normal_iteratorIPKN2us3gov6crypto9ripemd16010value_typeESt6vectorIS6_SaIS6_EEEEEdeEv
0000000000152896 W _ZNKSt16_Sp_counted_baseILN9__gnu_cxx12_Lock_policyE2EE16_M_get_use_countEv
000000000016f230 W _ZNKSt17_Rb_tree_iteratorISt4pairIKiPN2us3gov10blockchain3app11local_deltaEEEdeEv
0000000000170fc2 W _ZNKSt17_Rb_tree_iteratorISt4pairIKiPN2us3gov10blockchain3app11local_deltaEEEeqERKS9_
000000000016f1e2 W _ZNKSt17_Rb_tree_iteratorISt4pairIKiPN2us3gov10blockchain3app11local_deltaEEEneERKS9_
000000000016ed7c W _ZNKSt17_Rb_tree_iteratorISt4pairIKiPN2us3gov10blockchain3app5deltaEEEdeEv
000000000016f120 W _ZNKSt17_Rb_tree_iteratorISt4pairIKiPN2us3gov10blockchain3app5deltaEEEeqERKS9_
000000000016ed2e W _ZNKSt17_Rb_tree_iteratorISt4pairIKiPN2us3gov10blockchain3app5deltaEEEneERKS9_
000000000016f190 W _ZNKSt17_Rb_tree_iteratorISt4pairIKiPN2us3gov10blockchain3app5deltaEEEptEv
0000000000170adc W _ZNKSt17_Rb_tree_iteratorISt4pairIKN2us3gov6crypto9ripemd16010value_typeEmEEeqERKS8_
000000000016f08a W _ZNKSt17_Rb_tree_iteratorISt4pairIKN2us3gov6crypto9ripemd16010value_typeEmEEneERKS8_
000000000016f24e W _ZNKSt17_Rb_tree_iteratorISt4pairIKN2us3gov6crypto9ripemd16010value_typeEmEEptEv
000000000019085c W _ZNKSt17_Rb_tree_iteratorISt4pairIKN2us3gov6crypto9ripemd16010value_typeENS2_4cash3app11local_delta9account_tEEEeqERKSC_
0000000000190754 W _ZNKSt17_Rb_tree_iteratorISt4pairIKN2us3gov6crypto9ripemd16010value_typeENS2_4cash3app11local_delta9account_tEEEneERKSC_
0000000000190776 W _ZNKSt17_Rb_tree_iteratorISt4pairIKN2us3gov6crypto9ripemd16010value_typeENS2_4cash3app11local_delta9account_tEEEptEv
00000000001765f2 W _ZNKSt17_Rb_tree_iteratorISt4pairIKN2us3gov6crypto9ripemd16010value_typeENSt7__cxx1112basic_stringIcSt11char_traitsIcESaIcEEEEEeqERKSE_
00000000001824b8 W _ZNKSt19istreambuf_iteratorIcSt11char_traitsIcEE5equalERKS2_
00000000001824f0 W _ZNKSt19istreambuf_iteratorIcSt11char_traitsIcEE6_M_getEv
0000000000182e82 W _ZNKSt19istreambuf_iteratorIcSt11char_traitsIcEE9_M_at_eofEv
000000000018166c W _ZNKSt19istreambuf_iteratorIcSt11char_traitsIcEEdeEv
00000000001542ec W _ZNKSt19__shared_ptr_accessINSt13__future_base13_State_baseV2ELN9__gnu_cxx12_Lock_policyE2ELb0ELb0EE6_M_getEv
000000000015312e W _ZNKSt19__shared_ptr_accessINSt13__future_base13_State_baseV2ELN9__gnu_cxx12_Lock_policyE2ELb0ELb0EEptEv
00000000001572f4 W _ZNKSt19__shared_ptr_accessINSt13__future_base16_Task_state_baseIFviEEELN9__gnu_cxx12_Lock_policyE2ELb0ELb0EE6_M_getEv
0000000000156440 W _ZNKSt19__shared_ptr_accessINSt13__future_base16_Task_state_baseIFviEEELN9__gnu_cxx12_Lock_policyE2ELb0ELb0EEptEv
00000000001563fa W _ZNKSt19__shared_ptr_accessISt13packaged_taskIFviEELN9__gnu_cxx12_Lock_policyE2ELb0ELb0EE6_M_getEv
0000000000155342 W _ZNKSt19__shared_ptr_accessISt13packaged_taskIFviEELN9__gnu_cxx12_Lock_policyE2ELb0ELb0EEdeEv
0000000000155424 W _ZNKSt19__shared_ptr_accessISt13packaged_taskIFviEELN9__gnu_cxx12_Lock_policyE2ELb0ELb0EEptEv
0000000000154be4 W _ZNKSt19__shared_ptr_accessISt6atomicIbELN9__gnu_cxx12_Lock_policyE2ELb0ELb0EE6_M_getEv
0000000000153510 W _ZNKSt19__shared_ptr_accessISt6atomicIbELN9__gnu_cxx12_Lock_policyE2ELb0ELb0EEdeEv
000000000016ee36 W _ZNKSt23_Rb_tree_const_iteratorISt4pairIKiPN2us3gov10blockchain3app11local_deltaEEEdeEv
000000000016ede8 W _ZNKSt23_Rb_tree_const_iteratorISt4pairIKiPN2us3gov10blockchain3app11local_deltaEEEneERKS9_
000000000016ef76 W _ZNKSt23_Rb_tree_const_iteratorISt4pairIKiPN2us3gov10blockchain3app5deltaEEEdeEv
000000000016ef28 W _ZNKSt23_Rb_tree_const_iteratorISt4pairIKiPN2us3gov10blockchain3app5deltaEEEneERKS9_
000000000016ebb4 W _ZNKSt23_Rb_tree_const_iteratorISt4pairIKN2us3gov6crypto9ripemd16010value_typeEmEEdeEv
000000000016eb66 W _ZNKSt23_Rb_tree_const_iteratorISt4pairIKN2us3gov6crypto9ripemd16010value_typeEmEEneERKS8_
0000000000190a24 W _ZNKSt23_Rb_tree_const_iteratorISt4pairIKN2us3gov6crypto9ripemd16010value_typeEmEEptEv
0000000000190830 W _ZNKSt23_Rb_tree_const_iteratorISt4pairIKN2us3gov6crypto9ripemd16010value_typeENS2_4cash3app11local_delta9account_tEEEdeEv
00000000001907e2 W _ZNKSt23_Rb_tree_const_iteratorISt4pairIKN2us3gov6crypto9ripemd16010value_typeENS2_4cash3app11local_delta9account_tEEEneERKSC_
0000000000173c58 W _ZNKSt23_Rb_tree_const_iteratorISt4pairIKN2us3gov6crypto9ripemd16010value_typeENSt7__cxx1112basic_stringIcSt11char_traitsIcESaIcEEEEEdeEv
0000000000173c0a W _ZNKSt23_Rb_tree_const_iteratorISt4pairIKN2us3gov6crypto9ripemd16010value_typeENSt7__cxx1112basic_stringIcSt11char_traitsIcESaIcEEEEEneERKSE_
0000000000176314 W _ZNKSt24uniform_int_distributionIiE10param_type1aEv
0000000000176302 W _ZNKSt24uniform_int_distributionIiE10param_type1bEv
0000000000175cc0 W _ZNKSt24uniform_int_distributionImE10param_type1aEv
0000000000175cae W _ZNKSt24uniform_int_distributionImE10param_type1bEv
000000000016edce W _ZNKSt3mapIiPN2us3gov10blockchain3app11local_deltaESt4lessIiESaISt4pairIKiS5_EEE3endEv
000000000016ed9a W _ZNKSt3mapIiPN2us3gov10blockchain3app11local_deltaESt4lessIiESaISt4pairIKiS5_EEE4sizeEv
000000000016edb4 W _ZNKSt3mapIiPN2us3gov10blockchain3app11local_deltaESt4lessIiESaISt4pairIKiS5_EEE5beginEv
000000000017b370 W _ZNKSt3mapIiPN2us3gov10blockchain3app11local_deltaESt4lessIiESaISt4pairIKiS5_EEE5emptyEv
000000000016ef0e W _ZNKSt3mapIiPN2us3gov10blockchain3app5deltaESt4lessIiESaISt4pairIKiS5_EEE3endEv
000000000016eeda W _ZNKSt3mapIiPN2us3gov10blockchain3app5deltaESt4lessIiESaISt4pairIKiS5_EEE4sizeEv
000000000016eef4 W _ZNKSt3mapIiPN2us3gov10blockchain3app5deltaESt4lessIiESaISt4pairIKiS5_EEE5beginEv
000000000016eb4c W _ZNKSt3mapIN2us3gov6crypto9ripemd16010value_typeEmSt4lessIS4_ESaISt4pairIKS4_mEEE3endEv
000000000016ef94 W _ZNKSt3mapIN2us3gov6crypto9ripemd16010value_typeEmSt4lessIS4_ESaISt4pairIKS4_mEEE4sizeEv
000000000016eb32 W _ZNKSt3mapIN2us3gov6crypto9ripemd16010value_typeEmSt4lessIS4_ESaISt4pairIKS4_mEEE5beginEv
000000000019099c W _ZNKSt3mapIN2us3gov6crypto9ripemd16010value_typeEmSt4lessIS4_ESaISt4pairIKS4_mEEE5emptyEv
00000000001907c8 W _ZNKSt3mapIN2us3gov6crypto9ripemd16010value_typeENS1_4cash3app11local_delta9account_tESt4lessIS4_ESaISt4pairIKS4_S8_EEE3endEv
0000000000190794 W _ZNKSt3mapIN2us3gov6crypto9ripemd16010value_typeENS1_4cash3app11local_delta9account_tESt4lessIS4_ESaISt4pairIKS4_S8_EEE4sizeEv
00000000001907ae W _ZNKSt3mapIN2us3gov6crypto9ripemd16010value_typeENS1_4cash3app11local_delta9account_tESt4lessIS4_ESaISt4pairIKS4_S8_EEE5beginEv
0000000000173bf0 W _ZNKSt3mapIN2us3gov6crypto9ripemd16010value_typeENSt7__cxx1112basic_stringIcSt11char_traitsIcESaIcEEESt4lessIS4_ESaISt4pairIKS4_SA_EEE3endEv
0000000000173bbc W _ZNKSt3mapIN2us3gov6crypto9ripemd16010value_typeENSt7__cxx1112basic_stringIcSt11char_traitsIcESaIcEEESt4lessIS4_ESaISt4pairIKS4_SA_EEE4sizeEv
0000000000173bd6 W _ZNKSt3mapIN2us3gov6crypto9ripemd16010value_typeENSt7__cxx1112basic_stringIcSt11char_traitsIcESaIcEEESt4lessIS4_ESaISt4pairIKS4_SA_EEE5beginEv
000000000014446c W _ZNKSt4hashIiEclEi
0000000000188cc2 T _ZNKSt4hashIN2us3gov4cash3app11local_deltaEEclERKS4_
000000000015c968 W _ZNKSt4hashIN2us3gov6crypto9ripemd16010value_typeEEclERKS4_
000000000015c924 W _ZNKSt4hashINSt7__cxx1112basic_stringIcSt11char_traitsIcESaIcEEEEclERKS5_
000000000018081e W _ZNKSt4hashIPN2us3gov10blockchain6peer_tEEclES4_
000000000014afe8 W _ZNKSt4hashIPN2us3gov14signal_handler8callbackEEclES4_
000000000014c568 W _ZNKSt4hashIPN2us3gov6socket6clientEEclES4_
0000000000170c8a W _ZNKSt4lessIiEclERKiS2_
0000000000170b2a W _ZNKSt4lessIN2us3gov6crypto9ripemd16010value_typeEEclERKS4_S7_
000000000013b786 W _ZNKSt4lessIPKcEclERKS1_S4_
00000000001921a0 W _ZNKSt5arrayIdLm1EE3endEv
0000000000193484 W _ZNKSt5arrayIdLm1EE4dataEv
0000000000192186 W _ZNKSt5arrayIdLm1EE5beginEv
0000000000190928 W _ZNKSt5arrayIdLm1EEixEm
0000000000174ea2 W _ZNKSt5arrayIdLm2EE3endEv
000000000017612e W _ZNKSt5arrayIdLm2EE4dataEv
0000000000174e88 W _ZNKSt5arrayIdLm2EE5beginEv
0000000000173dca W _ZNKSt5arrayIdLm2EEixEm
0000000000183ca6 W _ZNKSt5arrayIhLm20EE4sizeEv
0000000000183cb6 W _ZNKSt5arrayIhLm20EE5emptyEv
000000000013ceee W _ZNKSt5arrayIhLm20EEixEm
000000000013456e W _ZNKSt5arrayIhLm32EE3endEv
0000000000134878 W _ZNKSt5arrayIhLm32EE4dataEv
0000000000134554 W _ZNKSt5arrayIhLm32EE5beginEv
0000000000134512 W _ZNKSt5arrayIhLm32EEixEm
0000000000185a22 W _ZNKSt5arrayIN2us3gov6crypto9ripemd16010value_typeELm1EE3endEv
0000000000185a98 W _ZNKSt5arrayIN2us3gov6crypto9ripemd16010value_typeELm1EE4dataEv
0000000000185a08 W _ZNKSt5arrayIN2us3gov6crypto9ripemd16010value_typeELm1EE5beginEv
0000000000198524 W _ZNKSt5arrayIN2us3gov6crypto9ripemd16010value_typeELm1EEixEm
0000000000190da4 W _ZNKSt5arrayIPKcLm1EEixEm
000000000015c41c W _ZNKSt5arrayIPKcLm2EEixEm
00000000001872a4 W _ZNKSt5arrayIPKcLm3EEixEm
000000000015c454 W _ZNKSt5arrayIPKcLm5EEixEm
0000000000155f6e W _ZNKSt5dequeIPSt8functionIFviEESaIS3_EE5emptyEv
0000000000154caa W _ZNKSt5queueIPSt8functionIFviEESt5dequeIS3_SaIS3_EEE5emptyEv
0000000000151650 W _ZNKSt6atomicIbEcvbEv
0000000000148ae8 W _ZNKSt6chrono10time_pointINS_3_V212steady_clockENS_8durationIlSt5ratioILl1ELl1000000000EEEEE16time_since_epochEv
0000000000150886 W _ZNKSt6chrono10time_pointINS_3_V212system_clockENS_8durationIlSt5ratioILl1ELl1000000000EEEEE16time_since_epochEv
0000000000153c16 W _ZNKSt6chrono10time_pointINS_3_V212system_clockENS_8durationIlSt5ratioILl1ELl1EEEEE16time_since_epochEv
0000000000144526 W _ZNKSt6chrono8durationIlSt5ratioILl1ELl1000000000EEE5countEv
000000000015c442 W _ZNKSt6chrono8durationIlSt5ratioILl1ELl1000000EEE5countEv
0000000000150d18 W _ZNKSt6chrono8durationIlSt5ratioILl1ELl1000EEE5countEv
0000000000144c50 W _ZNKSt6chrono8durationIlSt5ratioILl1ELl1EEE5countEv
000000000017ece4 W _ZNKSt6chrono8durationIlSt5ratioILl60ELl1EEE5countEv
00000000001515b8 W _ZNKSt6thread8joinableEv
00000000001336e8 W _ZNKSt6vectorIhSaIhEE12_M_check_lenEmPKc
00000000001346a2 W _ZNKSt6vectorIhSaIhEE3endEv
00000000001321b0 W _ZNKSt6vectorIhSaIhEE4sizeEv
0000000000134672 W _ZNKSt6vectorIhSaIhEE5beginEv
00000000001347c4 W _ZNKSt6vectorIhSaIhEE5emptyEv
0000000000134742 W _ZNKSt6vectorIhSaIhEE6rbeginEv
00000000001325b0 W _ZNKSt6vectorIhSaIhEE8capacityEv
000000000013258e W _ZNKSt6vectorIhSaIhEE8max_sizeEv
0000000000132194 W _ZNKSt6vectorIhSaIhEEixEm
000000000014a13e W _ZNKSt6vectorIiSaIiEE12_M_check_lenEmPKc
00000000001480c2 W _ZNKSt6vectorIiSaIiEE4sizeEv
000000000014809c W _ZNKSt6vectorIiSaIiEE8capacityEv
000000000014807a W _ZNKSt6vectorIiSaIiEE8max_sizeEv
000000000018f00e W _ZNKSt6vectorIN2us3gov4cash2tx7input_tESaIS4_EE12_M_check_lenEmPKc
000000000018d9a0 W _ZNKSt6vectorIN2us3gov4cash2tx7input_tESaIS4_EE3endEv
000000000018d900 W _ZNKSt6vectorIN2us3gov4cash2tx7input_tESaIS4_EE4sizeEv
000000000018d970 W _ZNKSt6vectorIN2us3gov4cash2tx7input_tESaIS4_EE5beginEv
000000000018e1da W _ZNKSt6vectorIN2us3gov4cash2tx7input_tESaIS4_EE8capacityEv
000000000018e1b8 W _ZNKSt6vectorIN2us3gov4cash2tx7input_tESaIS4_EE8max_sizeEv
000000000018da40 W _ZNKSt6vectorIN2us3gov4cash2tx7input_tESaIS4_EEixEm
000000000018f592 W _ZNKSt6vectorIN2us3gov4cash2tx8output_tESaIS4_EE12_M_check_lenEmPKc
000000000018dc04 W _ZNKSt6vectorIN2us3gov4cash2tx8output_tESaIS4_EE3endEv
000000000018d938 W _ZNKSt6vectorIN2us3gov4cash2tx8output_tESaIS4_EE4sizeEv
000000000018dbd4 W _ZNKSt6vectorIN2us3gov4cash2tx8output_tESaIS4_EE5beginEv
000000000018e352 W _ZNKSt6vectorIN2us3gov4cash2tx8output_tESaIS4_EE8capacityEv
000000000018e330 W _ZNKSt6vectorIN2us3gov4cash2tx8output_tESaIS4_EE8max_sizeEv
000000000018dca4 W _ZNKSt6vectorIN2us3gov4cash2tx8output_tESaIS4_EEixEm
000000000017df9a W _ZNKSt6vectorIN2us3gov6crypto9ripemd16010value_typeESaIS4_EE12_M_check_lenEmPKc
000000000017c0d8 W _ZNKSt6vectorIN2us3gov6crypto9ripemd16010value_typeESaIS4_EE3endEv
000000000017a7e2 W _ZNKSt6vectorIN2us3gov6crypto9ripemd16010value_typeESaIS4_EE4rendEv
000000000017a680 W _ZNKSt6vectorIN2us3gov6crypto9ripemd16010value_typeESaIS4_EE4sizeEv
000000000017c0a8 W _ZNKSt6vectorIN2us3gov6crypto9ripemd16010value_typeESaIS4_EE5beginEv
000000000017a734 W _ZNKSt6vectorIN2us3gov6crypto9ripemd16010value_typeESaIS4_EE5emptyEv
000000000017a7ae W _ZNKSt6vectorIN2us3gov6crypto9ripemd16010value_typeESaIS4_EE6rbeginEv
0000000000191848 W _ZNKSt6vectorIN2us3gov6crypto9ripemd16010value_typeESaIS4_EE8capacityEv
000000000017fc5a W _ZNKSt6vectorIN2us3gov6crypto9ripemd16010value_typeESaIS4_EE8max_sizeEv
000000000015017c W _ZNKSt6vectorINSt7__cxx1112basic_stringIcSt11char_traitsIcESaIcEEESaIS5_EE12_M_check_lenEmPKc
000000000017b7b2 W _ZNKSt6vectorINSt7__cxx1112basic_stringIcSt11char_traitsIcESaIcEEESaIS5_EE3endEv
000000000014fb56 W _ZNKSt6vectorINSt7__cxx1112basic_stringIcSt11char_traitsIcESaIcEEESaIS5_EE4sizeEv
000000000017affe W _ZNKSt6vectorINSt7__cxx1112basic_stringIcSt11char_traitsIcESaIcEEESaIS5_EE5beginEv
000000000017afbc W _ZNKSt6vectorINSt7__cxx1112basic_stringIcSt11char_traitsIcESaIcEEESaIS5_EE5emptyEv
000000000014fb30 W _ZNKSt6vectorINSt7__cxx1112basic_stringIcSt11char_traitsIcESaIcEEESaIS5_EE8capacityEv
000000000014fb0e W _ZNKSt6vectorINSt7__cxx1112basic_stringIcSt11char_traitsIcESaIcEEESaIS5_EE8max_sizeEv
000000000017eac8 W _ZNKSt6vectorIPN2us3gov10blockchain6peer_tESaIS4_EE12_M_check_lenEmPKc
000000000017d06a W _ZNKSt6vectorIPN2us3gov10blockchain6peer_tESaIS4_EE3endEv
000000000017b1da W _ZNKSt6vectorIPN2us3gov10blockchain6peer_tESaIS4_EE4sizeEv
000000000017d03a W _ZNKSt6vectorIPN2us3gov10blockchain6peer_tESaIS4_EE5beginEv
000000000017b200 W _ZNKSt6vectorIPN2us3gov10blockchain6peer_tESaIS4_EE5emptyEv
00000000001801ea W _ZNKSt6vectorIPN2us3gov10blockchain6peer_tESaIS4_EE8max_sizeEv
000000000015eaf2 W _ZNKSt6vectorIPN2us3gov4peer6peer_tESaIS4_EE12_M_check_lenEmPKc
000000000015cf2c W _ZNKSt6vectorIPN2us3gov4peer6peer_tESaIS4_EE3endEv
000000000015d408 W _ZNKSt6vectorIPN2us3gov4peer6peer_tESaIS4_EE4sizeEv
000000000015cefc W _ZNKSt6vectorIPN2us3gov4peer6peer_tESaIS4_EE5beginEv
000000000015e2cc W _ZNKSt6vectorIPN2us3gov4peer6peer_tESaIS4_EE8capacityEv
000000000015e2aa W _ZNKSt6vectorIPN2us3gov4peer6peer_tESaIS4_EE8max_sizeEv
000000000014a53c W _ZNKSt6vectorIPN2us3gov6socket6clientESaIS4_EE12_M_check_lenEmPKc
000000000014857c W _ZNKSt6vectorIPN2us3gov6socket6clientESaIS4_EE4sizeEv
0000000000148556 W _ZNKSt6vectorIPN2us3gov6socket6clientESaIS4_EE8capacityEv
0000000000148534 W _ZNKSt6vectorIPN2us3gov6socket6clientESaIS4_EE8max_sizeEv
0000000000155cfc W _ZNKSt6vectorISt10shared_ptrISt6atomicIbEESaIS3_EE12_M_check_lenEmPKc
0000000000154888 W _ZNKSt6vectorISt10shared_ptrISt6atomicIbEESaIS3_EE4sizeEv
0000000000156c98 W _ZNKSt6vectorISt10shared_ptrISt6atomicIbEESaIS3_EE8max_sizeEv
0000000000155b82 W _ZNKSt6vectorISt10unique_ptrISt6threadSt14default_deleteIS1_EESaIS4_EE12_M_check_lenEmPKc
00000000001532e4 W _ZNKSt6vectorISt10unique_ptrISt6threadSt14default_deleteIS1_EESaIS4_EE4sizeEv
0000000000156bcc W _ZNKSt6vectorISt10unique_ptrISt6threadSt14default_deleteIS1_EESaIS4_EE8max_sizeEv
0000000000176a20 W _ZNKSt6vectorISt4pairIN2us3gov6crypto9ripemd16010value_typeENSt7__cxx1112basic_stringIcSt11char_traitsIcESaIcEEEESaISC_EE12_M_check_lenEmPKc
000000000017390a W _ZNKSt6vectorISt4pairIN2us3gov6crypto9ripemd16010value_typeENSt7__cxx1112basic_stringIcSt11char_traitsIcESaIcEEEESaISC_EE3endEv
00000000001738a2 W _ZNKSt6vectorISt4pairIN2us3gov6crypto9ripemd16010value_typeENSt7__cxx1112basic_stringIcSt11char_traitsIcESaIcEEEESaISC_EE4sizeEv
00000000001738da W _ZNKSt6vectorISt4pairIN2us3gov6crypto9ripemd16010value_typeENSt7__cxx1112basic_stringIcSt11char_traitsIcESaIcEEEESaISC_EE5beginEv
0000000000174c76 W _ZNKSt6vectorISt4pairIN2us3gov6crypto9ripemd16010value_typeENSt7__cxx1112basic_stringIcSt11char_traitsIcESaIcEEEESaISC_EE8capacityEv
0000000000174c54 W _ZNKSt6vectorISt4pairIN2us3gov6crypto9ripemd16010value_typeENSt7__cxx1112basic_stringIcSt11char_traitsIcESaIcEEEESaISC_EE8max_sizeEv
000000000017e5f2 W _ZNKSt6vectorISt6threadSaIS0_EE12_M_check_lenEmPKc
000000000017c5ca W _ZNKSt6vectorISt6threadSaIS0_EE4sizeEv
000000000017c5a4 W _ZNKSt6vectorISt6threadSaIS0_EE8capacityEv
000000000017c582 W _ZNKSt6vectorISt6threadSaIS0_EE8max_sizeEv
000000000013b54c W _ZNKSt7__cxx1112basic_stringIcSt11char_traitsIcESaIcEE11_M_disjunctEPKc
0000000000132c62 W _ZNKSt7__cxx1112basic_stringIcSt11char_traitsIcESaIcEE11_M_is_localEv
0000000000133880 W _ZNKSt7__cxx1112basic_stringIcSt11char_traitsIcESaIcEE13_M_local_dataEv
0000000000132f6c W _ZNKSt7__cxx1112basic_stringIcSt11char_traitsIcESaIcEE15_M_check_lengthEmmPKc
0000000000132f5e W _ZNKSt7__cxx1112basic_stringIcSt11char_traitsIcESaIcEE16_M_get_allocatorEv
00000000001344b0 W _ZNKSt7__cxx1112basic_stringIcSt11char_traitsIcESaIcEE4dataEv
0000000000131f28 W _ZNKSt7__cxx1112basic_stringIcSt11char_traitsIcESaIcEE4sizeEv
00000000001318b0 W _ZNKSt7__cxx1112basic_stringIcSt11char_traitsIcESaIcEE5c_strEv
00000000001347a4 W _ZNKSt7__cxx1112basic_stringIcSt11char_traitsIcESaIcEE5emptyEv
000000000013190e W _ZNKSt7__cxx1112basic_stringIcSt11char_traitsIcESaIcEE6lengthEv
0000000000134814 W _ZNKSt7__cxx1112basic_stringIcSt11char_traitsIcESaIcEE6substrEmm
000000000017221e W _ZNKSt7__cxx1112basic_stringIcSt11char_traitsIcESaIcEE7compareEPKc
00000000001321d2 W _ZNKSt7__cxx1112basic_stringIcSt11char_traitsIcESaIcEE7_M_dataEv
00000000001322aa W _ZNKSt7__cxx1112basic_stringIcSt11char_traitsIcESaIcEE8capacityEv
000000000013382c W _ZNKSt7__cxx1112basic_stringIcSt11char_traitsIcESaIcEE8max_sizeEv
0000000000134b80 W _ZNKSt7__cxx1112basic_stringIcSt11char_traitsIcESaIcEE8_M_checkEmPKc
0000000000134d1c W _ZNKSt7__cxx1112basic_stringIcSt11char_traitsIcESaIcEE8_M_limitEmm
000000000013cf14 W _ZNKSt7__cxx1112basic_stringIcSt11char_traitsIcESaIcEEixEm
                 U _ZNKSt7__cxx1119basic_ostringstreamIcSt11char_traitsIcESaIcEE3strEv
0000000000176f40 W _ZNKSt8__detail10_AllocNodeISaINS_10_Hash_nodeIiLb0EEEEEclIiEEPS2_OT_
0000000000176c56 W _ZNKSt8__detail10_Hash_nodeIiLb0EE7_M_nextEv
000000000015f7fa W _ZNKSt8__detail10_Hash_nodeIN2us3gov6crypto9ripemd16010value_typeELb1EE7_M_nextEv
000000000015fef0 W _ZNKSt8__detail10_Hash_nodeINSt7__cxx1112basic_stringIcSt11char_traitsIcESaIcEEELb1EE7_M_nextEv
000000000014d138 W _ZNKSt8__detail10_Hash_nodeIPN2us3gov14signal_handler8callbackELb0EE7_M_nextEv
000000000014974a W _ZNKSt8__detail10_Hash_nodeIPN2us3gov6socket6clientELb0EE7_M_nextEv
000000000017dafc W _ZNKSt8__detail10_Hash_nodeISt4pairIKiPN2us3gov10blockchain3appEELb0EE7_M_nextEv
0000000000149ae0 W _ZNKSt8__detail10_Hash_nodeISt4pairIKiPN2us3gov6socket6clientEELb0EE7_M_nextEv
00000000001949e2 W _ZNKSt8__detail10_Hash_nodeISt4pairIKN2us3gov4cash3app11local_deltaEmELb1EE7_M_nextEv
0000000000184546 W _ZNKSt8__detail10_Hash_nodeISt4pairIKN2us3gov6crypto9ripemd16010value_typeEmELb1EE7_M_nextEv
000000000019385c W _ZNKSt8__detail10_Hash_nodeISt4pairIKN2us3gov6crypto9ripemd16010value_typeENS3_4cash3app11local_delta9account_tEELb1EE7_M_nextEv
00000000001762f0 W _ZNKSt8__detail10_Hash_nodeISt4pairIKN2us3gov6crypto9ripemd16010value_typeENSt7__cxx1112basic_stringIcSt11char_traitsIcESaIcEEEELb1EE7_M_nextEv
000000000017efba W _ZNKSt8__detail10_Hash_nodeISt4pairIKN2us3gov6crypto9ripemd16010value_typeES1_IS6_mEELb1EE7_M_nextEv
000000000017f45c W _ZNKSt8__detail10_Hash_nodeISt4pairIKPN2us3gov10blockchain6peer_tENS4_5shellEELb0EE7_M_nextEv
000000000014a7c2 W _ZNKSt8__detail10_Hash_nodeISt4pairIKPN2us3gov6socket6clientENSt6chrono10time_pointINS8_3_V212steady_clockENS8_8durationIlSt5ratioILl1ELl1000000000EEEEEEELb0EE7_M_nextEv
0000000000182cb8 W _ZNKSt8__detail10_Select1stclIRKSt4pairIKiPN2us3gov10blockchain3appEEEEDTcl3getILi0EEcl7forwardIT_Efp_EEEOSC_
000000000014d9da W _ZNKSt8__detail10_Select1stclIRKSt4pairIKiPN2us3gov6socket6clientEEEEDTcl3getILi0EEcl7forwardIT_Efp_EEEOSC_
0000000000183046 W _ZNKSt8__detail10_Select1stclIRKSt4pairIKPN2us3gov10blockchain6peer_tENS5_5shellEEEEDTcl3getILi0EEcl7forwardIT_Efp_EEEOSD_
000000000014ecfc W _ZNKSt8__detail10_Select1stclIRKSt4pairIKPN2us3gov6socket6clientENSt6chrono10time_pointINS9_3_V212steady_clockENS9_8durationIlSt5ratioILl1ELl1000000000EEEEEEEEEDTcl3getILi0EEcl7forwardIT_Efp_EEEOSL_
000000000017fa32 W _ZNKSt8__detail10_Select1stclIRSt4pairIKiPN2us3gov10blockchain3appEEEEDTcl3getILi0EEcl7forwardIT_Efp_EEEOSB_
000000000014b98e W _ZNKSt8__detail10_Select1stclIRSt4pairIKiPN2us3gov6socket6clientEEEEDTcl3getILi0EEcl7forwardIT_Efp_EEEOSB_
00000000001954cc W _ZNKSt8__detail10_Select1stclIRSt4pairIKN2us3gov4cash3app11local_deltaEmEEEDTcl3getILi0EEcl7forwardIT_Efp_EEEOSB_
0000000000184cc8 W _ZNKSt8__detail10_Select1stclIRSt4pairIKN2us3gov6crypto9ripemd16010value_typeEmEEEDTcl3getILi0EEcl7forwardIT_Efp_EEEOSB_
0000000000194458 W _ZNKSt8__detail10_Select1stclIRSt4pairIKN2us3gov6crypto9ripemd16010value_typeENS4_4cash3app11local_delta9account_tEEEEDTcl3getILi0EEcl7forwardIT_Efp_EEEOSF_
000000000017723a W _ZNKSt8__detail10_Select1stclIRSt4pairIKN2us3gov6crypto9ripemd16010value_typeENSt7__cxx1112basic_stringIcSt11char_traitsIcESaIcEEEEEEDTcl3getILi0EEcl7forwardIT_Efp_EEEOSH_
0000000000180634 W _ZNKSt8__detail10_Select1stclIRSt4pairIKN2us3gov6crypto9ripemd16010value_typeES2_IS7_mEEEEDTcl3getILi0EEcl7forwardIT_Efp_EEEOSC_
0000000000180af4 W _ZNKSt8__detail10_Select1stclIRSt4pairIKPN2us3gov10blockchain6peer_tENS5_5shellEEEEDTcl3getILi0EEcl7forwardIT_Efp_EEEOSC_
000000000014c0d2 W _ZNKSt8__detail10_Select1stclIRSt4pairIKPN2us3gov6socket6clientENSt6chrono10time_pointINS9_3_V212steady_clockENS9_8durationIlSt5ratioILl1ELl1000000000EEEEEEEEEDTcl3getILi0EEcl7forwardIT_Efp_EEEOSK_
000000000019a3d6 W _ZNKSt8__detail14_Node_iteratorIPN2us3gov14signal_handler8callbackELb1ELb0EEdeEv
0000000000145754 W _ZNKSt8__detail14_Node_iteratorIPN2us3gov6socket6clientELb1ELb0EEdeEv
000000000017a3e2 W _ZNKSt8__detail14_Node_iteratorISt4pairIKiPN2us3gov10blockchain3appEELb0ELb0EEdeEv
000000000017b3fe W _ZNKSt8__detail14_Node_iteratorISt4pairIKiPN2us3gov10blockchain3appEELb0ELb0EEptEv
0000000000145bb4 W _ZNKSt8__detail14_Node_iteratorISt4pairIKiPN2us3gov6socket6clientEELb0ELb0EEdeEv
00000000001451e2 W _ZNKSt8__detail14_Node_iteratorISt4pairIKiPN2us3gov6socket6clientEELb0ELb0EEptEv
0000000000192aa4 W _ZNKSt8__detail14_Node_iteratorISt4pairIKN2us3gov4cash3app11local_deltaEmELb0ELb1EEdeEv
0000000000192a00 W _ZNKSt8__detail14_Node_iteratorISt4pairIKN2us3gov4cash3app11local_deltaEmELb0ELb1EEptEv
00000000001859ce W _ZNKSt8__detail14_Node_iteratorISt4pairIKN2us3gov6crypto9ripemd16010value_typeEmELb0ELb1EEdeEv
00000000001842e4 W _ZNKSt8__detail14_Node_iteratorISt4pairIKN2us3gov6crypto9ripemd16010value_typeEmELb0ELb1EEptEv
0000000000191076 W _ZNKSt8__detail14_Node_iteratorISt4pairIKN2us3gov6crypto9ripemd16010value_typeENS3_4cash3app11local_delta9account_tEELb0ELb1EEptEv
000000000017382a W _ZNKSt8__detail14_Node_iteratorISt4pairIKN2us3gov6crypto9ripemd16010value_typeENSt7__cxx1112basic_stringIcSt11char_traitsIcESaIcEEEELb0ELb1EEdeEv
000000000017b5a8 W _ZNKSt8__detail14_Node_iteratorISt4pairIKN2us3gov6crypto9ripemd16010value_typeES1_IS6_mEELb0ELb1EEdeEv
000000000017b49a W _ZNKSt8__detail14_Node_iteratorISt4pairIKN2us3gov6crypto9ripemd16010value_typeES1_IS6_mEELb0ELb1EEptEv
000000000017b676 W _ZNKSt8__detail14_Node_iteratorISt4pairIKPN2us3gov10blockchain6peer_tENS4_5shellEELb0ELb0EEptEv
000000000014623e W _ZNKSt8__detail14_Node_iteratorISt4pairIKPN2us3gov6socket6clientENSt6chrono10time_pointINS8_3_V212steady_clockENS8_8durationIlSt5ratioILl1ELl1000000000EEEEEEELb0ELb0EEdeEv
00000000001790f6 W _ZNKSt8__detail15_Hash_code_baseIiiNS_9_IdentityESt4hashIiENS_18_Mod_range_hashingENS_20_Default_ranged_hashELb0EE10_M_extractEv
0000000000176e1a W _ZNKSt8__detail15_Hash_code_baseIiiNS_9_IdentityESt4hashIiENS_18_Mod_range_hashingENS_20_Default_ranged_hashELb0EE12_M_hash_codeERKi
0000000000178134 W _ZNKSt8__detail15_Hash_code_baseIiiNS_9_IdentityESt4hashIiENS_18_Mod_range_hashingENS_20_Default_ranged_hashELb0EE13_M_store_codeEPNS_10_Hash_nodeIiLb0EEEm
0000000000179110 W _ZNKSt8__detail15_Hash_code_baseIiiNS_9_IdentityESt4hashIiENS_18_Mod_range_hashingENS_20_Default_ranged_hashELb0EE15_M_bucket_indexEPKNS_10_Hash_nodeIiLb0EEEm
0000000000177ddc W _ZNKSt8__detail15_Hash_code_baseIiiNS_9_IdentityESt4hashIiENS_18_Mod_range_hashingENS_20_Default_ranged_hashELb0EE15_M_bucket_indexERKimm
0000000000177dc2 W _ZNKSt8__detail15_Hash_code_baseIiiNS_9_IdentityESt4hashIiENS_18_Mod_range_hashingENS_20_Default_ranged_hashELb0EE5_M_h1Ev
00000000001789aa W _ZNKSt8__detail15_Hash_code_baseIiiNS_9_IdentityESt4hashIiENS_18_Mod_range_hashingENS_20_Default_ranged_hashELb0EE5_M_h2Ev
0000000000182058 W _ZNKSt8__detail15_Hash_code_baseIiSt4pairIKiPN2us3gov10blockchain3appEENS_10_Select1stESt4hashIiENS_18_Mod_range_hashingENS_20_Default_ranged_hashELb0EE10_M_extractEv
000000000017dc86 W _ZNKSt8__detail15_Hash_code_baseIiSt4pairIKiPN2us3gov10blockchain3appEENS_10_Select1stESt4hashIiENS_18_Mod_range_hashingENS_20_Default_ranged_hashELb0EE12_M_hash_codeERS2_
0000000000181262 W _ZNKSt8__detail15_Hash_code_baseIiSt4pairIKiPN2us3gov10blockchain3appEENS_10_Select1stESt4hashIiENS_18_Mod_range_hashingENS_20_Default_ranged_hashELb0EE13_M_store_codeEPNS_10_Hash_nodeIS8_Lb0EEEm
0000000000182072 W _ZNKSt8__detail15_Hash_code_baseIiSt4pairIKiPN2us3gov10blockchain3appEENS_10_Select1stESt4hashIiENS_18_Mod_range_hashingENS_20_Default_ranged_hashELb0EE15_M_bucket_indexEPKNS_10_Hash_nodeIS8_Lb0EEEm
000000000017f7a2 W _ZNKSt8__detail15_Hash_code_baseIiSt4pairIKiPN2us3gov10blockchain3appEENS_10_Select1stESt4hashIiENS_18_Mod_range_hashingENS_20_Default_ranged_hashELb0EE15_M_bucket_indexERS2_mm
000000000017f788 W _ZNKSt8__detail15_Hash_code_baseIiSt4pairIKiPN2us3gov10blockchain3appEENS_10_Select1stESt4hashIiENS_18_Mod_range_hashingENS_20_Default_ranged_hashELb0EE5_M_h1Ev
0000000000181044 W _ZNKSt8__detail15_Hash_code_baseIiSt4pairIKiPN2us3gov10blockchain3appEENS_10_Select1stESt4hashIiENS_18_Mod_range_hashingENS_20_Default_ranged_hashELb0EE5_M_h2Ev
000000000014d9c0 W _ZNKSt8__detail15_Hash_code_baseIiSt4pairIKiPN2us3gov6socket6clientEENS_10_Select1stESt4hashIiENS_18_Mod_range_hashingENS_20_Default_ranged_hashELb0EE10_M_extractEv
0000000000149cb6 W _ZNKSt8__detail15_Hash_code_baseIiSt4pairIKiPN2us3gov6socket6clientEENS_10_Select1stESt4hashIiENS_18_Mod_range_hashingENS_20_Default_ranged_hashELb0EE12_M_copy_codeEPNS_10_Hash_nodeIS8_Lb0EEEPKSG_
0000000000149414 W _ZNKSt8__detail15_Hash_code_baseIiSt4pairIKiPN2us3gov6socket6clientEENS_10_Select1stESt4hashIiENS_18_Mod_range_hashingENS_20_Default_ranged_hashELb0EE12_M_hash_codeERS2_
000000000014d74e W _ZNKSt8__detail15_Hash_code_baseIiSt4pairIKiPN2us3gov6socket6clientEENS_10_Select1stESt4hashIiENS_18_Mod_range_hashingENS_20_Default_ranged_hashELb0EE13_M_store_codeEPNS_10_Hash_nodeIS8_Lb0EEEm
000000000014be96 W _ZNKSt8__detail15_Hash_code_baseIiSt4pairIKiPN2us3gov6socket6clientEENS_10_Select1stESt4hashIiENS_18_Mod_range_hashingENS_20_Default_ranged_hashELb0EE15_M_bucket_indexEPKNS_10_Hash_nodeIS8_Lb0EEEm
000000000014b5a4 W _ZNKSt8__detail15_Hash_code_baseIiSt4pairIKiPN2us3gov6socket6clientEENS_10_Select1stESt4hashIiENS_18_Mod_range_hashingENS_20_Default_ranged_hashELb0EE15_M_bucket_indexERS2_mm
000000000014b58a W _ZNKSt8__detail15_Hash_code_baseIiSt4pairIKiPN2us3gov6socket6clientEENS_10_Select1stESt4hashIiENS_18_Mod_range_hashingENS_20_Default_ranged_hashELb0EE5_M_h1Ev
000000000014d4e6 W _ZNKSt8__detail15_Hash_code_baseIiSt4pairIKiPN2us3gov6socket6clientEENS_10_Select1stESt4hashIiENS_18_Mod_range_hashingENS_20_Default_ranged_hashELb0EE5_M_h2Ev
0000000000196560 W _ZNKSt8__detail15_Hash_code_baseIN2us3gov4cash3app11local_deltaESt4pairIKS5_mENS_10_Select1stESt4hashIS5_ENS_18_Mod_range_hashingENS_20_Default_ranged_hashELb1EE10_M_extractEv
000000000019477e W _ZNKSt8__detail15_Hash_code_baseIN2us3gov4cash3app11local_deltaESt4pairIKS5_mENS_10_Select1stESt4hashIS5_ENS_18_Mod_range_hashingENS_20_Default_ranged_hashELb1EE12_M_hash_codeERS7_
00000000001960a8 W _ZNKSt8__detail15_Hash_code_baseIN2us3gov4cash3app11local_deltaESt4pairIKS5_mENS_10_Select1stESt4hashIS5_ENS_18_Mod_range_hashingENS_20_Default_ranged_hashELb1EE13_M_store_codeEPNS_10_Hash_nodeIS8_Lb1EEEm
000000000019657a W _ZNKSt8__detail15_Hash_code_baseIN2us3gov4cash3app11local_deltaESt4pairIKS5_mENS_10_Select1stESt4hashIS5_ENS_18_Mod_range_hashingENS_20_Default_ranged_hashELb1EE15_M_bucket_indexEPKNS_10_Hash_nodeIS8_Lb1EEEm
0000000000195214 W _ZNKSt8__detail15_Hash_code_baseIN2us3gov4cash3app11local_deltaESt4pairIKS5_mENS_10_Select1stESt4hashIS5_ENS_18_Mod_range_hashingENS_20_Default_ranged_hashELb1EE15_M_bucket_indexERS7_mm
00000000001951fa W _ZNKSt8__detail15_Hash_code_baseIN2us3gov4cash3app11local_deltaESt4pairIKS5_mENS_10_Select1stESt4hashIS5_ENS_18_Mod_range_hashingENS_20_Default_ranged_hashELb1EE5_M_h1Ev
0000000000195e8a W _ZNKSt8__detail15_Hash_code_baseIN2us3gov4cash3app11local_deltaESt4pairIKS5_mENS_10_Select1stESt4hashIS5_ENS_18_Mod_range_hashingENS_20_Default_ranged_hashELb1EE5_M_h2Ev
0000000000161098 W _ZNKSt8__detail15_Hash_code_baseIN2us3gov6crypto9ripemd16010value_typeES5_NS_9_IdentityESt4hashIS5_ENS_18_Mod_range_hashingENS_20_Default_ranged_hashELb1EE10_M_extractEv
000000000015ed28 W _ZNKSt8__detail15_Hash_code_baseIN2us3gov6crypto9ripemd16010value_typeES5_NS_9_IdentityESt4hashIS5_ENS_18_Mod_range_hashingENS_20_Default_ranged_hashELb1EE12_M_hash_codeERKS5_
00000000001609fa W _ZNKSt8__detail15_Hash_code_baseIN2us3gov6crypto9ripemd16010value_typeES5_NS_9_IdentityESt4hashIS5_ENS_18_Mod_range_hashingENS_20_Default_ranged_hashELb1EE13_M_store_codeEPNS_10_Hash_nodeIS5_Lb1EEEm
00000000001610b2 W _ZNKSt8__detail15_Hash_code_baseIN2us3gov6crypto9ripemd16010value_typeES5_NS_9_IdentityESt4hashIS5_ENS_18_Mod_range_hashingENS_20_Default_ranged_hashELb1EE15_M_bucket_indexEPKNS_10_Hash_nodeIS5_Lb1EEEm
000000000015fa7c W _ZNKSt8__detail15_Hash_code_baseIN2us3gov6crypto9ripemd16010value_typeES5_NS_9_IdentityESt4hashIS5_ENS_18_Mod_range_hashingENS_20_Default_ranged_hashELb1EE15_M_bucket_indexERKS5_mm
000000000015fa62 W _ZNKSt8__detail15_Hash_code_baseIN2us3gov6crypto9ripemd16010value_typeES5_NS_9_IdentityESt4hashIS5_ENS_18_Mod_range_hashingENS_20_Default_ranged_hashELb1EE5_M_h1Ev
000000000016081e W _ZNKSt8__detail15_Hash_code_baseIN2us3gov6crypto9ripemd16010value_typeES5_NS_9_IdentityESt4hashIS5_ENS_18_Mod_range_hashingENS_20_Default_ranged_hashELb1EE5_M_h2Ev
00000000001852c2 W _ZNKSt8__detail15_Hash_code_baseIN2us3gov6crypto9ripemd16010value_typeESt4pairIKS5_mENS_10_Select1stESt4hashIS5_ENS_18_Mod_range_hashingENS_20_Default_ranged_hashELb1EE10_M_extractEv
0000000000184696 W _ZNKSt8__detail15_Hash_code_baseIN2us3gov6crypto9ripemd16010value_typeESt4pairIKS5_mENS_10_Select1stESt4hashIS5_ENS_18_Mod_range_hashingENS_20_Default_ranged_hashELb1EE12_M_hash_codeERS7_
0000000000185128 W _ZNKSt8__detail15_Hash_code_baseIN2us3gov6crypto9ripemd16010value_typeESt4pairIKS5_mENS_10_Select1stESt4hashIS5_ENS_18_Mod_range_hashingENS_20_Default_ranged_hashELb1EE13_M_store_codeEPNS_10_Hash_nodeIS8_Lb1EEEm
00000000001852dc W _ZNKSt8__detail15_Hash_code_baseIN2us3gov6crypto9ripemd16010value_typeESt4pairIKS5_mENS_10_Select1stESt4hashIS5_ENS_18_Mod_range_hashingENS_20_Default_ranged_hashELb1EE15_M_bucket_indexEPKNS_10_Hash_nodeIS8_Lb1EEEm
00000000001849f8 W _ZNKSt8__detail15_Hash_code_baseIN2us3gov6crypto9ripemd16010value_typeESt4pairIKS5_mENS_10_Select1stESt4hashIS5_ENS_18_Mod_range_hashingENS_20_Default_ranged_hashELb1EE15_M_bucket_indexERS7_mm
00000000001849de W _ZNKSt8__detail15_Hash_code_baseIN2us3gov6crypto9ripemd16010value_typeESt4pairIKS5_mENS_10_Select1stESt4hashIS5_ENS_18_Mod_range_hashingENS_20_Default_ranged_hashELb1EE5_M_h1Ev
0000000000184f0a W _ZNKSt8__detail15_Hash_code_baseIN2us3gov6crypto9ripemd16010value_typeESt4pairIKS5_mENS_10_Select1stESt4hashIS5_ENS_18_Mod_range_hashingENS_20_Default_ranged_hashELb1EE5_M_h2Ev
0000000000195938 W _ZNKSt8__detail15_Hash_code_baseIN2us3gov6crypto9ripemd16010value_typeESt4pairIKS5_NS2_4cash3app11local_delta9account_tEENS_10_Select1stESt4hashIS5_ENS_18_Mod_range_hashingENS_20_Default_ranged_hashELb1EE10_M_extractEv
0000000000193284 W _ZNKSt8__detail15_Hash_code_baseIN2us3gov6crypto9ripemd16010value_typeESt4pairIKS5_NS2_4cash3app11local_delta9account_tEENS_10_Select1stESt4hashIS5_ENS_18_Mod_range_hashingENS_20_Default_ranged_hashELb1EE12_M_hash_codeERS7_
0000000000195060 W _ZNKSt8__detail15_Hash_code_baseIN2us3gov6crypto9ripemd16010value_typeESt4pairIKS5_NS2_4cash3app11local_delta9account_tEENS_10_Select1stESt4hashIS5_ENS_18_Mod_range_hashingENS_20_Default_ranged_hashELb1EE13_M_store_codeEPNS_10_Hash_nodeISC_Lb1EEEm
0000000000195952 W _ZNKSt8__detail15_Hash_code_baseIN2us3gov6crypto9ripemd16010value_typeESt4pairIKS5_NS2_4cash3app11local_delta9account_tEENS_10_Select1stESt4hashIS5_ENS_18_Mod_range_hashingENS_20_Default_ranged_hashELb1EE15_M_bucket_indexEPKNS_10_Hash_nodeISC_Lb1EEEm
0000000000193f04 W _ZNKSt8__detail15_Hash_code_baseIN2us3gov6crypto9ripemd16010value_typeESt4pairIKS5_NS2_4cash3app11local_delta9account_tEENS_10_Select1stESt4hashIS5_ENS_18_Mod_range_hashingENS_20_Default_ranged_hashELb1EE15_M_bucket_indexERS7_mm
0000000000193eea W _ZNKSt8__detail15_Hash_code_baseIN2us3gov6crypto9ripemd16010value_typeESt4pairIKS5_NS2_4cash3app11local_delta9account_tEENS_10_Select1stESt4hashIS5_ENS_18_Mod_range_hashingENS_20_Default_ranged_hashELb1EE5_M_h1Ev
0000000000194c7a W _ZNKSt8__detail15_Hash_code_baseIN2us3gov6crypto9ripemd16010value_typeESt4pairIKS5_NS2_4cash3app11local_delta9account_tEENS_10_Select1stESt4hashIS5_ENS_18_Mod_range_hashingENS_20_Default_ranged_hashELb1EE5_M_h2Ev
000000000017892c W _ZNKSt8__detail15_Hash_code_baseIN2us3gov6crypto9ripemd16010value_typeESt4pairIKS5_NSt7__cxx1112basic_stringIcSt11char_traitsIcESaIcEEEENS_10_Select1stESt4hashIS5_ENS_18_Mod_range_hashingENS_20_Default_ranged_hashELb1EE10_M_extractEv
00000000001757fe W _ZNKSt8__detail15_Hash_code_baseIN2us3gov6crypto9ripemd16010value_typeESt4pairIKS5_NSt7__cxx1112basic_stringIcSt11char_traitsIcESaIcEEEENS_10_Select1stESt4hashIS5_ENS_18_Mod_range_hashingENS_20_Default_ranged_hashELb1EE12_M_hash_codeERS7_
000000000017838a W _ZNKSt8__detail15_Hash_code_baseIN2us3gov6crypto9ripemd16010value_typeESt4pairIKS5_NSt7__cxx1112basic_stringIcSt11char_traitsIcESaIcEEEENS_10_Select1stESt4hashIS5_ENS_18_Mod_range_hashingENS_20_Default_ranged_hashELb1EE13_M_store_codeEPNS_10_Hash_nodeISE_Lb1EEEm
000000000017849a W _ZNKSt8__detail15_Hash_code_baseIN2us3gov6crypto9ripemd16010value_typeESt4pairIKS5_NSt7__cxx1112basic_stringIcSt11char_traitsIcESaIcEEEENS_10_Select1stESt4hashIS5_ENS_18_Mod_range_hashingENS_20_Default_ranged_hashELb1EE15_M_bucket_indexEPKNS_10_Hash_nodeISE_Lb1EEEm
0000000000176880 W _ZNKSt8__detail15_Hash_code_baseIN2us3gov6crypto9ripemd16010value_typeESt4pairIKS5_NSt7__cxx1112basic_stringIcSt11char_traitsIcESaIcEEEENS_10_Select1stESt4hashIS5_ENS_18_Mod_range_hashingENS_20_Default_ranged_hashELb1EE15_M_bucket_indexERS7_mm
0000000000176866 W _ZNKSt8__detail15_Hash_code_baseIN2us3gov6crypto9ripemd16010value_typeESt4pairIKS5_NSt7__cxx1112basic_stringIcSt11char_traitsIcESaIcEEEENS_10_Select1stESt4hashIS5_ENS_18_Mod_range_hashingENS_20_Default_ranged_hashELb1EE5_M_h1Ev
0000000000177c14 W _ZNKSt8__detail15_Hash_code_baseIN2us3gov6crypto9ripemd16010value_typeESt4pairIKS5_NSt7__cxx1112basic_stringIcSt11char_traitsIcESaIcEEEENS_10_Select1stESt4hashIS5_ENS_18_Mod_range_hashingENS_20_Default_ranged_hashELb1EE5_M_h2Ev
00000000001826b6 W _ZNKSt8__detail15_Hash_code_baseIN2us3gov6crypto9ripemd16010value_typeESt4pairIKS5_S6_IS5_mEENS_10_Select1stESt4hashIS5_ENS_18_Mod_range_hashingENS_20_Default_ranged_hashELb1EE10_M_extractEv
000000000017ed56 W _ZNKSt8__detail15_Hash_code_baseIN2us3gov6crypto9ripemd16010value_typeESt4pairIKS5_S6_IS5_mEENS_10_Select1stESt4hashIS5_ENS_18_Mod_range_hashingENS_20_Default_ranged_hashELb1EE12_M_hash_codeERS7_
0000000000181a26 W _ZNKSt8__detail15_Hash_code_baseIN2us3gov6crypto9ripemd16010value_typeESt4pairIKS5_S6_IS5_mEENS_10_Select1stESt4hashIS5_ENS_18_Mod_range_hashingENS_20_Default_ranged_hashELb1EE13_M_store_codeEPNS_10_Hash_nodeIS9_Lb1EEEm
00000000001826d0 W _ZNKSt8__detail15_Hash_code_baseIN2us3gov6crypto9ripemd16010value_typeESt4pairIKS5_S6_IS5_mEENS_10_Select1stESt4hashIS5_ENS_18_Mod_range_hashingENS_20_Default_ranged_hashELb1EE15_M_bucket_indexEPKNS_10_Hash_nodeIS9_Lb1EEEm
000000000018037c W _ZNKSt8__detail15_Hash_code_baseIN2us3gov6crypto9ripemd16010value_typeESt4pairIKS5_S6_IS5_mEENS_10_Select1stESt4hashIS5_ENS_18_Mod_range_hashingENS_20_Default_ranged_hashELb1EE15_M_bucket_indexERS7_mm
0000000000180362 W _ZNKSt8__detail15_Hash_code_baseIN2us3gov6crypto9ripemd16010value_typeESt4pairIKS5_S6_IS5_mEENS_10_Select1stESt4hashIS5_ENS_18_Mod_range_hashingENS_20_Default_ranged_hashELb1EE5_M_h1Ev
0000000000181808 W _ZNKSt8__detail15_Hash_code_baseIN2us3gov6crypto9ripemd16010value_typeESt4pairIKS5_S6_IS5_mEENS_10_Select1stESt4hashIS5_ENS_18_Mod_range_hashingENS_20_Default_ranged_hashELb1EE5_M_h2Ev
0000000000161622 W _ZNKSt8__detail15_Hash_code_baseINSt7__cxx1112basic_stringIcSt11char_traitsIcESaIcEEES6_NS_9_IdentityESt4hashIS6_ENS_18_Mod_range_hashingENS_20_Default_ranged_hashELb1EE10_M_extractEv
000000000015f15e W _ZNKSt8__detail15_Hash_code_baseINSt7__cxx1112basic_stringIcSt11char_traitsIcESaIcEEES6_NS_9_IdentityESt4hashIS6_ENS_18_Mod_range_hashingENS_20_Default_ranged_hashELb1EE12_M_hash_codeERKS6_
0000000000160d02 W _ZNKSt8__detail15_Hash_code_baseINSt7__cxx1112basic_stringIcSt11char_traitsIcESaIcEEES6_NS_9_IdentityESt4hashIS6_ENS_18_Mod_range_hashingENS_20_Default_ranged_hashELb1EE13_M_store_codeEPNS_10_Hash_nodeIS6_Lb1EEEm
000000000016163c W _ZNKSt8__detail15_Hash_code_baseINSt7__cxx1112basic_stringIcSt11char_traitsIcESaIcEEES6_NS_9_IdentityESt4hashIS6_ENS_18_Mod_range_hashingENS_20_Default_ranged_hashELb1EE15_M_bucket_indexEPKNS_10_Hash_nodeIS6_Lb1EEEm
00000000001603c8 W _ZNKSt8__detail15_Hash_code_baseINSt7__cxx1112basic_stringIcSt11char_traitsIcESaIcEEES6_NS_9_IdentityESt4hashIS6_ENS_18_Mod_range_hashingENS_20_Default_ranged_hashELb1EE15_M_bucket_indexERKS6_mm
00000000001603ae W _ZNKSt8__detail15_Hash_code_baseINSt7__cxx1112basic_stringIcSt11char_traitsIcESaIcEEES6_NS_9_IdentityESt4hashIS6_ENS_18_Mod_range_hashingENS_20_Default_ranged_hashELb1EE5_M_h1Ev
0000000000160e20 W _ZNKSt8__detail15_Hash_code_baseINSt7__cxx1112basic_stringIcSt11char_traitsIcESaIcEEES6_NS_9_IdentityESt4hashIS6_ENS_18_Mod_range_hashingENS_20_Default_ranged_hashELb1EE5_M_h2Ev
00000000001829d0 W _ZNKSt8__detail15_Hash_code_baseIPN2us3gov10blockchain6peer_tESt4pairIKS5_NS3_5shellEENS_10_Select1stESt4hashIS5_ENS_18_Mod_range_hashingENS_20_Default_ranged_hashELb0EE10_M_extractEv
000000000017efcc W _ZNKSt8__detail15_Hash_code_baseIPN2us3gov10blockchain6peer_tESt4pairIKS5_NS3_5shellEENS_10_Select1stESt4hashIS5_ENS_18_Mod_range_hashingENS_20_Default_ranged_hashELb0EE12_M_hash_codeERS7_
0000000000181d62 W _ZNKSt8__detail15_Hash_code_baseIPN2us3gov10blockchain6peer_tESt4pairIKS5_NS3_5shellEENS_10_Select1stESt4hashIS5_ENS_18_Mod_range_hashingENS_20_Default_ranged_hashELb0EE13_M_store_codeEPNS_10_Hash_nodeIS9_Lb0EEEm
00000000001829ea W _ZNKSt8__detail15_Hash_code_baseIPN2us3gov10blockchain6peer_tESt4pairIKS5_NS3_5shellEENS_10_Select1stESt4hashIS5_ENS_18_Mod_range_hashingENS_20_Default_ranged_hashELb0EE15_M_bucket_indexEPKNS_10_Hash_nodeIS9_Lb0EEEm
0000000000180830 W _ZNKSt8__detail15_Hash_code_baseIPN2us3gov10blockchain6peer_tESt4pairIKS5_NS3_5shellEENS_10_Select1stESt4hashIS5_ENS_18_Mod_range_hashingENS_20_Default_ranged_hashELb0EE15_M_bucket_indexERS7_mm
0000000000180804 W _ZNKSt8__detail15_Hash_code_baseIPN2us3gov10blockchain6peer_tESt4pairIKS5_NS3_5shellEENS_10_Select1stESt4hashIS5_ENS_18_Mod_range_hashingENS_20_Default_ranged_hashELb0EE5_M_h1Ev
0000000000181b44 W _ZNKSt8__detail15_Hash_code_baseIPN2us3gov10blockchain6peer_tESt4pairIKS5_NS3_5shellEENS_10_Select1stESt4hashIS5_ENS_18_Mod_range_hashingENS_20_Default_ranged_hashELb0EE5_M_h2Ev
000000000014e54a W _ZNKSt8__detail15_Hash_code_baseIPN2us3gov14signal_handler8callbackES5_NS_9_IdentityESt4hashIS5_ENS_18_Mod_range_hashingENS_20_Default_ranged_hashELb0EE10_M_extractEv
000000000014903e W _ZNKSt8__detail15_Hash_code_baseIPN2us3gov14signal_handler8callbackES5_NS_9_IdentityESt4hashIS5_ENS_18_Mod_range_hashingENS_20_Default_ranged_hashELb0EE12_M_hash_codeERKS5_
000000000014d00c W _ZNKSt8__detail15_Hash_code_baseIPN2us3gov14signal_handler8callbackES5_NS_9_IdentityESt4hashIS5_ENS_18_Mod_range_hashingENS_20_Default_ranged_hashELb0EE13_M_store_codeEPNS_10_Hash_nodeIS5_Lb0EEEm
000000000014d1a6 W _ZNKSt8__detail15_Hash_code_baseIPN2us3gov14signal_handler8callbackES5_NS_9_IdentityESt4hashIS5_ENS_18_Mod_range_hashingENS_20_Default_ranged_hashELb0EE15_M_bucket_indexEPKNS_10_Hash_nodeIS5_Lb0EEEm
000000000014affa W _ZNKSt8__detail15_Hash_code_baseIPN2us3gov14signal_handler8callbackES5_NS_9_IdentityESt4hashIS5_ENS_18_Mod_range_hashingENS_20_Default_ranged_hashELb0EE15_M_bucket_indexERKS5_mm
000000000014afce W _ZNKSt8__detail15_Hash_code_baseIPN2us3gov14signal_handler8callbackES5_NS_9_IdentityESt4hashIS5_ENS_18_Mod_range_hashingENS_20_Default_ranged_hashELb0EE5_M_h1Ev
000000000014d11e W _ZNKSt8__detail15_Hash_code_baseIPN2us3gov14signal_handler8callbackES5_NS_9_IdentityESt4hashIS5_ENS_18_Mod_range_hashingENS_20_Default_ranged_hashELb0EE5_M_h2Ev
000000000014d8b6 W _ZNKSt8__detail15_Hash_code_baseIPN2us3gov6socket6clientES5_NS_9_IdentityESt4hashIS5_ENS_18_Mod_range_hashingENS_20_Default_ranged_hashELb0EE10_M_extractEv
00000000001498dc W _ZNKSt8__detail15_Hash_code_baseIPN2us3gov6socket6clientES5_NS_9_IdentityESt4hashIS5_ENS_18_Mod_range_hashingENS_20_Default_ranged_hashELb0EE12_M_copy_codeEPNS_10_Hash_nodeIS5_Lb0EEEPKSD_
000000000014aa92 W _ZNKSt8__detail15_Hash_code_baseIPN2us3gov6socket6clientES5_NS_9_IdentityESt4hashIS5_ENS_18_Mod_range_hashingENS_20_Default_ranged_hashELb0EE12_M_hash_codeERKS5_
000000000014e04a W _ZNKSt8__detail15_Hash_code_baseIPN2us3gov6socket6clientES5_NS_9_IdentityESt4hashIS5_ENS_18_Mod_range_hashingENS_20_Default_ranged_hashELb0EE13_M_store_codeEPNS_10_Hash_nodeIS5_Lb0EEEm
000000000014bc1c W _ZNKSt8__detail15_Hash_code_baseIPN2us3gov6socket6clientES5_NS_9_IdentityESt4hashIS5_ENS_18_Mod_range_hashingENS_20_Default_ranged_hashELb0EE15_M_bucket_indexEPKNS_10_Hash_nodeIS5_Lb0EEEm
000000000014cb4e W _ZNKSt8__detail15_Hash_code_baseIPN2us3gov6socket6clientES5_NS_9_IdentityESt4hashIS5_ENS_18_Mod_range_hashingENS_20_Default_ranged_hashELb0EE15_M_bucket_indexERKS5_mm
000000000014cb34 W _ZNKSt8__detail15_Hash_code_baseIPN2us3gov6socket6clientES5_NS_9_IdentityESt4hashIS5_ENS_18_Mod_range_hashingENS_20_Default_ranged_hashELb0EE5_M_h1Ev
000000000014d89c W _ZNKSt8__detail15_Hash_code_baseIPN2us3gov6socket6clientES5_NS_9_IdentityESt4hashIS5_ENS_18_Mod_range_hashingENS_20_Default_ranged_hashELb0EE5_M_h2Ev
000000000014ecc8 W _ZNKSt8__detail15_Hash_code_baseIPN2us3gov6socket6clientESt4pairIKS5_NSt6chrono10time_pointINS8_3_V212steady_clockENS8_8durationIlSt5ratioILl1ELl1000000000EEEEEEENS_10_Select1stESt4hashIS5_ENS_18_Mod_range_hashingENS_20_Default_ranged_hashELb0EE10_M_extractEv
000000000014a7f2 W _ZNKSt8__detail15_Hash_code_baseIPN2us3gov6socket6clientESt4pairIKS5_NSt6chrono10time_pointINS8_3_V212steady_clockENS8_8durationIlSt5ratioILl1ELl1000000000EEEEEEENS_10_Select1stESt4hashIS5_ENS_18_Mod_range_hashingENS_20_Default_ranged_hashELb0EE12_M_hash_codeERS7_
000000000014db7a W _ZNKSt8__detail15_Hash_code_baseIPN2us3gov6socket6clientESt4pairIKS5_NSt6chrono10time_pointINS8_3_V212steady_clockENS8_8durationIlSt5ratioILl1ELl1000000000EEEEEEENS_10_Select1stESt4hashIS5_ENS_18_Mod_range_hashingENS_20_Default_ranged_hashELb0EE13_M_store_codeEPNS_10_Hash_nodeISH_Lb0EEEm
000000000014de1c W _ZNKSt8__detail15_Hash_code_baseIPN2us3gov6socket6clientESt4pairIKS5_NSt6chrono10time_pointINS8_3_V212steady_clockENS8_8durationIlSt5ratioILl1ELl1000000000EEEEEEENS_10_Select1stESt4hashIS5_ENS_18_Mod_range_hashingENS_20_Default_ranged_hashELb0EE15_M_bucket_indexEPKNS_10_Hash_nodeISH_Lb0EEEm
000000000014c57a W _ZNKSt8__detail15_Hash_code_baseIPN2us3gov6socket6clientESt4pairIKS5_NSt6chrono10time_pointINS8_3_V212steady_clockENS8_8durationIlSt5ratioILl1ELl1000000000EEEEEEENS_10_Select1stESt4hashIS5_ENS_18_Mod_range_hashingENS_20_Default_ranged_hashELb0EE15_M_bucket_indexERS7_mm
000000000014c54e W _ZNKSt8__detail15_Hash_code_baseIPN2us3gov6socket6clientESt4pairIKS5_NSt6chrono10time_pointINS8_3_V212steady_clockENS8_8durationIlSt5ratioILl1ELl1000000000EEEEEEENS_10_Select1stESt4hashIS5_ENS_18_Mod_range_hashingENS_20_Default_ranged_hashELb0EE5_M_h1Ev
000000000014dda6 W _ZNKSt8__detail15_Hash_code_baseIPN2us3gov6socket6clientESt4pairIKS5_NSt6chrono10time_pointINS8_3_V212steady_clockENS8_8durationIlSt5ratioILl1ELl1000000000EEEEEEENS_10_Select1stESt4hashIS5_ENS_18_Mod_range_hashingENS_20_Default_ranged_hashELb0EE5_M_h2Ev
00000000001790dc W _ZNKSt8__detail15_Hashtable_baseIiiNS_9_IdentityESt8equal_toIiESt4hashIiENS_18_Mod_range_hashingENS_20_Default_ranged_hashENS_17_Hashtable_traitsILb0ELb1ELb1EEEE5_M_eqEv
00000000001789c4 W _ZNKSt8__detail15_Hashtable_baseIiiNS_9_IdentityESt8equal_toIiESt4hashIiENS_18_Mod_range_hashingENS_20_Default_ranged_hashENS_17_Hashtable_traitsILb0ELb1ELb1EEEE9_M_equalsERKimPNS_10_Hash_nodeIiLb0EEE
000000000018203e W _ZNKSt8__detail15_Hashtable_baseIiSt4pairIKiPN2us3gov10blockchain3appEENS_10_Select1stESt8equal_toIiESt4hashIiENS_18_Mod_range_hashingENS_20_Default_ranged_hashENS_17_Hashtable_traitsILb0ELb0ELb1EEEE5_M_eqEv
000000000018105e W _ZNKSt8__detail15_Hashtable_baseIiSt4pairIKiPN2us3gov10blockchain3appEENS_10_Select1stESt8equal_toIiESt4hashIiENS_18_Mod_range_hashingENS_20_Default_ranged_hashENS_17_Hashtable_traitsILb0ELb0ELb1EEEE9_M_equalsERS2_mPNS_10_Hash_nodeIS8_Lb0EEE
000000000014e748 W _ZNKSt8__detail15_Hashtable_baseIiSt4pairIKiPN2us3gov6socket6clientEENS_10_Select1stESt8equal_toIiESt4hashIiENS_18_Mod_range_hashingENS_20_Default_ranged_hashENS_17_Hashtable_traitsILb0ELb0ELb1EEEE5_M_eqEv
000000000014d500 W _ZNKSt8__detail15_Hashtable_baseIiSt4pairIKiPN2us3gov6socket6clientEENS_10_Select1stESt8equal_toIiESt4hashIiENS_18_Mod_range_hashingENS_20_Default_ranged_hashENS_17_Hashtable_traitsILb0ELb0ELb1EEEE9_M_equalsERS2_mPNS_10_Hash_nodeIS8_Lb0EEE
0000000000196546 W _ZNKSt8__detail15_Hashtable_baseIN2us3gov4cash3app11local_deltaESt4pairIKS5_mENS_10_Select1stESt8equal_toIS5_ESt4hashIS5_ENS_18_Mod_range_hashingENS_20_Default_ranged_hashENS_17_Hashtable_traitsILb1ELb0ELb1EEEE5_M_eqEv
0000000000195ea4 W _ZNKSt8__detail15_Hashtable_baseIN2us3gov4cash3app11local_deltaESt4pairIKS5_mENS_10_Select1stESt8equal_toIS5_ESt4hashIS5_ENS_18_Mod_range_hashingENS_20_Default_ranged_hashENS_17_Hashtable_traitsILb1ELb0ELb1EEEE9_M_equalsERS7_mPNS_10_Hash_nodeIS8_Lb1EEE
000000000016107e W _ZNKSt8__detail15_Hashtable_baseIN2us3gov6crypto9ripemd16010value_typeES5_NS_9_IdentityESt8equal_toIS5_ESt4hashIS5_ENS_18_Mod_range_hashingENS_20_Default_ranged_hashENS_17_Hashtable_traitsILb1ELb1ELb1EEEE5_M_eqEv
0000000000160838 W _ZNKSt8__detail15_Hashtable_baseIN2us3gov6crypto9ripemd16010value_typeES5_NS_9_IdentityESt8equal_toIS5_ESt4hashIS5_ENS_18_Mod_range_hashingENS_20_Default_ranged_hashENS_17_Hashtable_traitsILb1ELb1ELb1EEEE9_M_equalsERKS5_mPNS_10_Hash_nodeIS5_Lb1EEE
00000000001852a8 W _ZNKSt8__detail15_Hashtable_baseIN2us3gov6crypto9ripemd16010value_typeESt4pairIKS5_mENS_10_Select1stESt8equal_toIS5_ESt4hashIS5_ENS_18_Mod_range_hashingENS_20_Default_ranged_hashENS_17_Hashtable_traitsILb1ELb0ELb1EEEE5_M_eqEv
0000000000184f24 W _ZNKSt8__detail15_Hashtable_baseIN2us3gov6crypto9ripemd16010value_typeESt4pairIKS5_mENS_10_Select1stESt8equal_toIS5_ESt4hashIS5_ENS_18_Mod_range_hashingENS_20_Default_ranged_hashENS_17_Hashtable_traitsILb1ELb0ELb1EEEE9_M_equalsERS7_mPNS_10_Hash_nodeIS8_Lb1EEE
000000000019591e W _ZNKSt8__detail15_Hashtable_baseIN2us3gov6crypto9ripemd16010value_typeESt4pairIKS5_NS2_4cash3app11local_delta9account_tEENS_10_Select1stESt8equal_toIS5_ESt4hashIS5_ENS_18_Mod_range_hashingENS_20_Default_ranged_hashENS_17_Hashtable_traitsILb1ELb0ELb1EEEE5_M_eqEv
0000000000194c94 W _ZNKSt8__detail15_Hashtable_baseIN2us3gov6crypto9ripemd16010value_typeESt4pairIKS5_NS2_4cash3app11local_delta9account_tEENS_10_Select1stESt8equal_toIS5_ESt4hashIS5_ENS_18_Mod_range_hashingENS_20_Default_ranged_hashENS_17_Hashtable_traitsILb1ELb0ELb1EEEE9_M_equalsERS7_mPNS_10_Hash_nodeISC_Lb1EEE
0000000000178912 W _ZNKSt8__detail15_Hashtable_baseIN2us3gov6crypto9ripemd16010value_typeESt4pairIKS5_NSt7__cxx1112basic_stringIcSt11char_traitsIcESaIcEEEENS_10_Select1stESt8equal_toIS5_ESt4hashIS5_ENS_18_Mod_range_hashingENS_20_Default_ranged_hashENS_17_Hashtable_traitsILb1ELb0ELb1EEEE5_M_eqEv
0000000000177c2e W _ZNKSt8__detail15_Hashtable_baseIN2us3gov6crypto9ripemd16010value_typeESt4pairIKS5_NSt7__cxx1112basic_stringIcSt11char_traitsIcESaIcEEEENS_10_Select1stESt8equal_toIS5_ESt4hashIS5_ENS_18_Mod_range_hashingENS_20_Default_ranged_hashENS_17_Hashtable_traitsILb1ELb0ELb1EEEE9_M_equalsERS7_mPNS_10_Hash_nodeISE_Lb1EEE
000000000018269c W _ZNKSt8__detail15_Hashtable_baseIN2us3gov6crypto9ripemd16010value_typeESt4pairIKS5_S6_IS5_mEENS_10_Select1stESt8equal_toIS5_ESt4hashIS5_ENS_18_Mod_range_hashingENS_20_Default_ranged_hashENS_17_Hashtable_traitsILb1ELb0ELb1EEEE5_M_eqEv
0000000000181822 W _ZNKSt8__detail15_Hashtable_baseIN2us3gov6crypto9ripemd16010value_typeESt4pairIKS5_S6_IS5_mEENS_10_Select1stESt8equal_toIS5_ESt4hashIS5_ENS_18_Mod_range_hashingENS_20_Default_ranged_hashENS_17_Hashtable_traitsILb1ELb0ELb1EEEE9_M_equalsERS7_mPNS_10_Hash_nodeIS9_Lb1EEE
0000000000161608 W _ZNKSt8__detail15_Hashtable_baseINSt7__cxx1112basic_stringIcSt11char_traitsIcESaIcEEES6_NS_9_IdentityESt8equal_toIS6_ESt4hashIS6_ENS_18_Mod_range_hashingENS_20_Default_ranged_hashENS_17_Hashtable_traitsILb1ELb1ELb1EEEE5_M_eqEv
0000000000160e3a W _ZNKSt8__detail15_Hashtable_baseINSt7__cxx1112basic_stringIcSt11char_traitsIcESaIcEEES6_NS_9_IdentityESt8equal_toIS6_ESt4hashIS6_ENS_18_Mod_range_hashingENS_20_Default_ranged_hashENS_17_Hashtable_traitsILb1ELb1ELb1EEEE9_M_equalsERKS6_mPNS_10_Hash_nodeIS6_Lb1EEE
00000000001829b6 W _ZNKSt8__detail15_Hashtable_baseIPN2us3gov10blockchain6peer_tESt4pairIKS5_NS3_5shellEENS_10_Select1stESt8equal_toIS5_ESt4hashIS5_ENS_18_Mod_range_hashingENS_20_Default_ranged_hashENS_17_Hashtable_traitsILb0ELb0ELb1EEEE5_M_eqEv
0000000000181b5e W _ZNKSt8__detail15_Hashtable_baseIPN2us3gov10blockchain6peer_tESt4pairIKS5_NS3_5shellEENS_10_Select1stESt8equal_toIS5_ESt4hashIS5_ENS_18_Mod_range_hashingENS_20_Default_ranged_hashENS_17_Hashtable_traitsILb0ELb0ELb1EEEE9_M_equalsERS7_mPNS_10_Hash_nodeIS9_Lb0EEE
000000000014e530 W _ZNKSt8__detail15_Hashtable_baseIPN2us3gov14signal_handler8callbackES5_NS_9_IdentityESt8equal_toIS5_ESt4hashIS5_ENS_18_Mod_range_hashingENS_20_Default_ranged_hashENS_17_Hashtable_traitsILb0ELb1ELb1EEEE5_M_eqEv
000000000014d14a W _ZNKSt8__detail15_Hashtable_baseIPN2us3gov14signal_handler8callbackES5_NS_9_IdentityESt8equal_toIS5_ESt4hashIS5_ENS_18_Mod_range_hashingENS_20_Default_ranged_hashENS_17_Hashtable_traitsILb0ELb1ELb1EEEE9_M_equalsERKS5_mPNS_10_Hash_nodeIS5_Lb0EEE
000000000014ef2a W _ZNKSt8__detail15_Hashtable_baseIPN2us3gov6socket6clientES5_NS_9_IdentityESt8equal_toIS5_ESt4hashIS5_ENS_18_Mod_range_hashingENS_20_Default_ranged_hashENS_17_Hashtable_traitsILb0ELb1ELb1EEEE5_M_eqEv
000000000014e14e W _ZNKSt8__detail15_Hashtable_baseIPN2us3gov6socket6clientES5_NS_9_IdentityESt8equal_toIS5_ESt4hashIS5_ENS_18_Mod_range_hashingENS_20_Default_ranged_hashENS_17_Hashtable_traitsILb0ELb1ELb1EEEE9_M_equalsERKS5_mPNS_10_Hash_nodeIS5_Lb0EEE
000000000014ecae W _ZNKSt8__detail15_Hashtable_baseIPN2us3gov6socket6clientESt4pairIKS5_NSt6chrono10time_pointINS8_3_V212steady_clockENS8_8durationIlSt5ratioILl1ELl1000000000EEEEEEENS_10_Select1stESt8equal_toIS5_ESt4hashIS5_ENS_18_Mod_range_hashingENS_20_Default_ranged_hashENS_17_Hashtable_traitsILb0ELb0ELb1EEEE5_M_eqEv
000000000014ddc0 W _ZNKSt8__detail15_Hashtable_baseIPN2us3gov6socket6clientESt4pairIKS5_NSt6chrono10time_pointINS8_3_V212steady_clockENS8_8durationIlSt5ratioILl1ELl1000000000EEEEEEENS_10_Select1stESt8equal_toIS5_ESt4hashIS5_ENS_18_Mod_range_hashingENS_20_Default_ranged_hashENS_17_Hashtable_traitsILb0ELb0ELb1EEEE9_M_equalsERS7_mPNS_10_Hash_nodeISH_Lb0EEE
0000000000146da0 W _ZNKSt8__detail16_Hashtable_allocISaINS_10_Hash_nodeIPN2us3gov6socket6clientELb0EEEEE17_M_node_allocatorEv
00000000001476d4 W _ZNKSt8__detail16_Hashtable_allocISaINS_10_Hash_nodeISt4pairIKiPN2us3gov6socket6clientEELb0EEEEE17_M_node_allocatorEv
00000000001472a0 W _ZNKSt8__detail17_ReuseOrAllocNodeISaINS_10_Hash_nodeIPN2us3gov6socket6clientELb0EEEEEclIRKS6_EEPS7_OT_
0000000000147bd4 W _ZNKSt8__detail17_ReuseOrAllocNodeISaINS_10_Hash_nodeISt4pairIKiPN2us3gov6socket6clientEELb0EEEEEclIRKS9_EEPSA_OT_
0000000000144494 W _ZNKSt8__detail18_Mod_range_hashingclEmm
000000000017af9e W _ZNKSt8__detail20_Node_const_iteratorINSt7__cxx1112basic_stringIcSt11char_traitsIcESaIcEEELb1ELb1EEdeEv
000000000014606e W _ZNKSt8__detail20_Node_const_iteratorIPN2us3gov6socket6clientELb1ELb0EEdeEv
000000000017a8e0 W _ZNKSt8__detail20_Node_const_iteratorISt4pairIKiPN2us3gov10blockchain3appEELb0ELb0EEdeEv
000000000017b6dc W _ZNKSt8__detail20_Node_const_iteratorISt4pairIKiPN2us3gov10blockchain3appEELb0ELb0EEptEv
000000000014616a W _ZNKSt8__detail20_Node_const_iteratorISt4pairIKiPN2us3gov6socket6clientEELb0ELb0EEdeEv
00000000001910ee W _ZNKSt8__detail20_Node_const_iteratorISt4pairIKN2us3gov6crypto9ripemd16010value_typeENS3_4cash3app11local_delta9account_tEELb0ELb1EEdeEv
0000000000190aa4 W _ZNKSt8__detail20_Node_const_iteratorISt4pairIKN2us3gov6crypto9ripemd16010value_typeENS3_4cash3app11local_delta9account_tEELb0ELb1EEptEv
0000000000173e28 W _ZNKSt8__detail20_Node_const_iteratorISt4pairIKN2us3gov6crypto9ripemd16010value_typeENSt7__cxx1112basic_stringIcSt11char_traitsIcESaIcEEEELb0ELb1EEdeEv
0000000000173efc W _ZNKSt8__detail20_Node_const_iteratorISt4pairIKN2us3gov6crypto9ripemd16010value_typeENSt7__cxx1112basic_stringIcSt11char_traitsIcESaIcEEEELb0ELb1EEptEv
                 U _ZNKSt8__detail20_Prime_rehash_policy14_M_need_rehashEmmm
00000000001444e0 W _ZNKSt8__detail20_Prime_rehash_policy8_M_stateEv
0000000000179374 W _ZNKSt8__detail21_Hash_node_value_baseIiE4_M_vEv
0000000000179522 W _ZNKSt8__detail21_Hash_node_value_baseIiE9_M_valptrEv
000000000014e564 W _ZNKSt8__detail21_Hash_node_value_baseIPN2us3gov14signal_handler8callbackEE4_M_vEv
000000000014f026 W _ZNKSt8__detail21_Hash_node_value_baseIPN2us3gov14signal_handler8callbackEE9_M_valptrEv
0000000000146e56 W _ZNKSt8__detail21_Hash_node_value_baseIPN2us3gov6socket6clientEE4_M_vEv
000000000014981a W _ZNKSt8__detail21_Hash_node_value_baseIPN2us3gov6socket6clientEE9_M_valptrEv
0000000000182c9e W _ZNKSt8__detail21_Hash_node_value_baseISt4pairIKiPN2us3gov10blockchain3appEEE4_M_vEv
0000000000183176 W _ZNKSt8__detail21_Hash_node_value_baseISt4pairIKiPN2us3gov10blockchain3appEEE9_M_valptrEv
000000000014778a W _ZNKSt8__detail21_Hash_node_value_baseISt4pairIKiPN2us3gov6socket6clientEEE4_M_vEv
0000000000149bb0 W _ZNKSt8__detail21_Hash_node_value_baseISt4pairIKiPN2us3gov6socket6clientEEE9_M_valptrEv
000000000018302c W _ZNKSt8__detail21_Hash_node_value_baseISt4pairIKPN2us3gov10blockchain6peer_tENS4_5shellEEE4_M_vEv
000000000018342c W _ZNKSt8__detail21_Hash_node_value_baseISt4pairIKPN2us3gov10blockchain6peer_tENS4_5shellEEE9_M_valptrEv
000000000014ece2 W _ZNKSt8__detail21_Hash_node_value_baseISt4pairIKPN2us3gov6socket6clientENSt6chrono10time_pointINS8_3_V212steady_clockENS8_8durationIlSt5ratioILl1ELl1000000000EEEEEEEE4_M_vEv
000000000014f304 W _ZNKSt8__detail21_Hash_node_value_baseISt4pairIKPN2us3gov6socket6clientENSt6chrono10time_pointINS8_3_V212steady_clockENS8_8durationIlSt5ratioILl1ELl1000000000EEEEEEEE9_M_valptrEv
0000000000176dfc W _ZNKSt8__detail9_IdentityclIRiEEOT_S4_
000000000017938e W _ZNKSt8__detail9_IdentityclIRKiEEOT_S5_
000000000014e57e W _ZNKSt8__detail9_IdentityclIRKPN2us3gov14signal_handler8callbackEEEOT_SA_
000000000014d8d0 W _ZNKSt8__detail9_IdentityclIRKPN2us3gov6socket6clientEEEOT_SA_
000000000015fd28 W _ZNKSt8__detail9_IdentityclIRN2us3gov6crypto9ripemd16010value_typeEEEOT_S9_
00000000001601e6 W _ZNKSt8__detail9_IdentityclIRNSt7__cxx1112basic_stringIcSt11char_traitsIcESaIcEEEEEOT_SA_
000000000014ad56 W _ZNKSt8__detail9_IdentityclIRPN2us3gov14signal_handler8callbackEEEOT_S9_
000000000014c96c W _ZNKSt8__detail9_IdentityclIRPN2us3gov6socket6clientEEEOT_S9_
000000000014f0b2 W _ZNKSt8equal_toIiEclERKiS2_
00000000001968ae W _ZNKSt8equal_toIN2us3gov4cash3app11local_deltaEEclERKS4_S7_
000000000016171e W _ZNKSt8equal_toIN2us3gov6crypto9ripemd16010value_typeEEclERKS4_S7_
0000000000161824 W _ZNKSt8equal_toINSt7__cxx1112basic_stringIcSt11char_traitsIcESaIcEEEEclERKS5_S8_
0000000000182ff8 W _ZNKSt8equal_toIPN2us3gov10blockchain6peer_tEEclERKS4_S7_
000000000014eff2 W _ZNKSt8equal_toIPN2us3gov14signal_handler8callbackEEclERKS4_S7_
000000000014f2d0 W _ZNKSt8equal_toIPN2us3gov6socket6clientEEclERKS4_S7_
0000000000152f2a W _ZNKSt8functionIFSt10unique_ptrINSt13__future_base12_Result_baseENS2_8_DeleterEEvEEclEv
0000000000153734 W _ZNKSt8functionIFviEEclEi
000000000016f524 W _ZNKSt8_Rb_treeIiSt4pairIKiPN2us3gov10blockchain3app11local_deltaEESt10_Select1stIS8_ESt4lessIiESaIS8_EE3endEv
000000000016f4e8 W _ZNKSt8_Rb_treeIiSt4pairIKiPN2us3gov10blockchain3app11local_deltaEESt10_Select1stIS8_ESt4lessIiESaIS8_EE4sizeEv
000000000016f4fa W _ZNKSt8_Rb_treeIiSt4pairIKiPN2us3gov10blockchain3app11local_deltaEESt10_Select1stIS8_ESt4lessIiESaIS8_EE5beginEv
000000000017d4fa W _ZNKSt8_Rb_treeIiSt4pairIKiPN2us3gov10blockchain3app11local_deltaEESt10_Select1stIS8_ESt4lessIiESaIS8_EE5emptyEv
000000000016f718 W _ZNKSt8_Rb_treeIiSt4pairIKiPN2us3gov10blockchain3app5deltaEESt10_Select1stIS8_ESt4lessIiESaIS8_EE3endEv
000000000016f6dc W _ZNKSt8_Rb_treeIiSt4pairIKiPN2us3gov10blockchain3app5deltaEESt10_Select1stIS8_ESt4lessIiESaIS8_EE4sizeEv
000000000016f6ee W _ZNKSt8_Rb_treeIiSt4pairIKiPN2us3gov10blockchain3app5deltaEESt10_Select1stIS8_ESt4lessIiESaIS8_EE5beginEv
000000000016f30e W _ZNKSt8_Rb_treeIN2us3gov6crypto9ripemd16010value_typeESt4pairIKS4_mESt10_Select1stIS7_ESt4lessIS4_ESaIS7_EE3endEv
000000000016f760 W _ZNKSt8_Rb_treeIN2us3gov6crypto9ripemd16010value_typeESt4pairIKS4_mESt10_Select1stIS7_ESt4lessIS4_ESaIS7_EE4sizeEv
000000000016f2e4 W _ZNKSt8_Rb_treeIN2us3gov6crypto9ripemd16010value_typeESt4pairIKS4_mESt10_Select1stIS7_ESt4lessIS4_ESaIS7_EE5beginEv
0000000000191e36 W _ZNKSt8_Rb_treeIN2us3gov6crypto9ripemd16010value_typeESt4pairIKS4_mESt10_Select1stIS7_ESt4lessIS4_ESaIS7_EE5emptyEv
0000000000197160 W _ZNKSt8_Rb_treeIN2us3gov6crypto9ripemd16010value_typeESt4pairIKS4_NS1_4cash3app11local_delta9account_tEESt10_Select1stISB_ESt4lessIS4_ESaISB_EE11_Alloc_nodeclIRKSB_EEPSt13_Rb_tree_nodeISB_EOT_
00000000001922b6 W _ZNKSt8_Rb_treeIN2us3gov6crypto9ripemd16010value_typeESt4pairIKS4_NS1_4cash3app11local_delta9account_tEESt10_Select1stISB_ESt4lessIS4_ESaISB_EE21_M_get_Node_allocatorEv
0000000000191aaa W _ZNKSt8_Rb_treeIN2us3gov6crypto9ripemd16010value_typeESt4pairIKS4_NS1_4cash3app11local_delta9account_tEESt10_Select1stISB_ESt4lessIS4_ESaISB_EE3endEv
0000000000191a6e W _ZNKSt8_Rb_treeIN2us3gov6crypto9ripemd16010value_typeESt4pairIKS4_NS1_4cash3app11local_delta9account_tEESt10_Select1stISB_ESt4lessIS4_ESaISB_EE4sizeEv
0000000000191a80 W _ZNKSt8_Rb_treeIN2us3gov6crypto9ripemd16010value_typeESt4pairIKS4_NS1_4cash3app11local_delta9account_tEESt10_Select1stISB_ESt4lessIS4_ESaISB_EE5beginEv
0000000000192408 W _ZNKSt8_Rb_treeIN2us3gov6crypto9ripemd16010value_typeESt4pairIKS4_NS1_4cash3app11local_delta9account_tEESt10_Select1stISB_ESt4lessIS4_ESaISB_EE7_M_rootEv
00000000001934fe W _ZNKSt8_Rb_treeIN2us3gov6crypto9ripemd16010value_typeESt4pairIKS4_NS1_4cash3app11local_delta9account_tEESt10_Select1stISB_ESt4lessIS4_ESaISB_EE8_M_beginEv
0000000000174e40 W _ZNKSt8_Rb_treeIN2us3gov6crypto9ripemd16010value_typeESt4pairIKS4_NSt7__cxx1112basic_stringIcSt11char_traitsIcESaIcEEEESt10_Select1stISD_ESt4lessIS4_ESaISD_EE3endEv
0000000000174e04 W _ZNKSt8_Rb_treeIN2us3gov6crypto9ripemd16010value_typeESt4pairIKS4_NSt7__cxx1112basic_stringIcSt11char_traitsIcESaIcEEEESt10_Select1stISD_ESt4lessIS4_ESaISD_EE4sizeEv
0000000000174e16 W _ZNKSt8_Rb_treeIN2us3gov6crypto9ripemd16010value_typeESt4pairIKS4_NSt7__cxx1112basic_stringIcSt11char_traitsIcESaIcEEEESt10_Select1stISD_ESt4lessIS4_ESaISD_EE5beginEv
000000000015150a W _ZNKSt9_Any_data9_M_accessEv
                 U _ZNKSt9basic_iosIcSt11char_traitsIcEE4goodEv
                 U _ZNKSt9basic_iosIcSt11char_traitsIcEE5rdbufEv
                 U _ZNKSt9basic_iosIcSt11char_traitsIcEE5widenEc
00000000001512d4 W _ZNKSt9type_infoeqERKS_
                 U _ZNSaIcEC1ERKS_
                 U _ZNSaIcEC1Ev
                 U _ZNSaIcEC2ERKS_
                 U _ZNSaIcED1Ev
                 U _ZNSaIcED2Ev
0000000000133c76 W _ZNSaIhEC1ERKS_
0000000000131a66 W _ZNSaIhEC1Ev
0000000000133c76 W _ZNSaIhEC2ERKS_
0000000000131a66 W _ZNSaIhEC2Ev
0000000000131a82 W _ZNSaIhED1Ev
0000000000131a82 W _ZNSaIhED2Ev
000000000014c360 W _ZNSaIiEC1ERKS_
000000000014c2a2 W _ZNSaIiEC1Ev
0000000000177cde W _ZNSaIiEC1INSt8__detail10_Hash_nodeIiLb0EEEEERKSaIT_E
000000000014c360 W _ZNSaIiEC2ERKS_
000000000014c2a2 W _ZNSaIiEC2Ev
0000000000177cde W _ZNSaIiEC2INSt8__detail10_Hash_nodeIiLb0EEEEERKSaIT_E
00000000001493b4 W _ZNSaIiED1Ev
00000000001493b4 W _ZNSaIiED2Ev
000000000018f2ce W _ZNSaIN2us3gov4cash2tx7input_tEEC1ERKS4_
000000000018f238 W _ZNSaIN2us3gov4cash2tx7input_tEEC1Ev
000000000018f2ce W _ZNSaIN2us3gov4cash2tx7input_tEEC2ERKS4_
000000000018f238 W _ZNSaIN2us3gov4cash2tx7input_tEEC2Ev
000000000018e890 W _ZNSaIN2us3gov4cash2tx7input_tEED1Ev
000000000018e890 W _ZNSaIN2us3gov4cash2tx7input_tEED2Ev
000000000018f354 W _ZNSaIN2us3gov4cash2tx8output_tEEC1ERKS4_
000000000018f298 W _ZNSaIN2us3gov4cash2tx8output_tEEC1Ev
000000000018f354 W _ZNSaIN2us3gov4cash2tx8output_tEEC2ERKS4_
000000000018f298 W _ZNSaIN2us3gov4cash2tx8output_tEEC2Ev
000000000018e910 W _ZNSaIN2us3gov4cash2tx8output_tEED1Ev
000000000018e910 W _ZNSaIN2us3gov4cash2tx8output_tEED2Ev
0000000000193b66 W _ZNSaIN2us3gov6crypto9ripemd16010value_typeEEC1ERKS4_
000000000017fc02 W _ZNSaIN2us3gov6crypto9ripemd16010value_typeEEC1Ev
00000000001606e4 W _ZNSaIN2us3gov6crypto9ripemd16010value_typeEEC1INSt8__detail10_Hash_nodeIS3_Lb1EEEEERKSaIT_E
0000000000193b66 W _ZNSaIN2us3gov6crypto9ripemd16010value_typeEEC2ERKS4_
000000000017fc02 W _ZNSaIN2us3gov6crypto9ripemd16010value_typeEEC2Ev
00000000001606e4 W _ZNSaIN2us3gov6crypto9ripemd16010value_typeEEC2INSt8__detail10_Hash_nodeIS3_Lb1EEEEERKSaIT_E
0000000000160704 W _ZNSaIN2us3gov6crypto9ripemd16010value_typeEED1Ev
0000000000160704 W _ZNSaIN2us3gov6crypto9ripemd16010value_typeEED2Ev
000000000015055a W _ZNSaINSt7__cxx1112basic_stringIcSt11char_traitsIcESaIcEEEEC1ERKS5_
0000000000150448 W _ZNSaINSt7__cxx1112basic_stringIcSt11char_traitsIcESaIcEEEEC1Ev
0000000000160b3e W _ZNSaINSt7__cxx1112basic_stringIcSt11char_traitsIcESaIcEEEEC1INSt8__detail10_Hash_nodeIS4_Lb1EEEEERKSaIT_E
000000000015055a W _ZNSaINSt7__cxx1112basic_stringIcSt11char_traitsIcESaIcEEEEC2ERKS5_
0000000000150448 W _ZNSaINSt7__cxx1112basic_stringIcSt11char_traitsIcESaIcEEEEC2Ev
0000000000160b3e W _ZNSaINSt7__cxx1112basic_stringIcSt11char_traitsIcESaIcEEEEC2INSt8__detail10_Hash_nodeIS4_Lb1EEEEERKSaIT_E
0000000000150000 W _ZNSaINSt7__cxx1112basic_stringIcSt11char_traitsIcESaIcEEEED1Ev
0000000000150000 W _ZNSaINSt7__cxx1112basic_stringIcSt11char_traitsIcESaIcEEEED2Ev
00000000001736b6 W _ZNSaINSt8__detail10_Hash_nodeIiLb0EEEEC1Ev
00000000001736b6 W _ZNSaINSt8__detail10_Hash_nodeIiLb0EEEEC2Ev
00000000001736d2 W _ZNSaINSt8__detail10_Hash_nodeIiLb0EEEED1Ev
00000000001736d2 W _ZNSaINSt8__detail10_Hash_nodeIiLb0EEEED2Ev
000000000015cfcc W _ZNSaINSt8__detail10_Hash_nodeIN2us3gov6crypto9ripemd16010value_typeELb1EEEEC1Ev
000000000015cfcc W _ZNSaINSt8__detail10_Hash_nodeIN2us3gov6crypto9ripemd16010value_typeELb1EEEEC2Ev
000000000015cfe8 W _ZNSaINSt8__detail10_Hash_nodeIN2us3gov6crypto9ripemd16010value_typeELb1EEEED1Ev
000000000015cfe8 W _ZNSaINSt8__detail10_Hash_nodeIN2us3gov6crypto9ripemd16010value_typeELb1EEEED2Ev
000000000015d2c6 W _ZNSaINSt8__detail10_Hash_nodeINSt7__cxx1112basic_stringIcSt11char_traitsIcESaIcEEELb1EEEEC1Ev
000000000015d2c6 W _ZNSaINSt8__detail10_Hash_nodeINSt7__cxx1112basic_stringIcSt11char_traitsIcESaIcEEELb1EEEEC2Ev
000000000015d2e2 W _ZNSaINSt8__detail10_Hash_nodeINSt7__cxx1112basic_stringIcSt11char_traitsIcESaIcEEELb1EEEED1Ev
000000000015d2e2 W _ZNSaINSt8__detail10_Hash_nodeINSt7__cxx1112basic_stringIcSt11char_traitsIcESaIcEEELb1EEEED2Ev
000000000019a2f6 W _ZNSaINSt8__detail10_Hash_nodeIPN2us3gov14signal_handler8callbackELb0EEEEC1Ev
000000000019a2f6 W _ZNSaINSt8__detail10_Hash_nodeIPN2us3gov14signal_handler8callbackELb0EEEEC2Ev
000000000019a312 W _ZNSaINSt8__detail10_Hash_nodeIPN2us3gov14signal_handler8callbackELb0EEEED1Ev
000000000019a312 W _ZNSaINSt8__detail10_Hash_nodeIPN2us3gov14signal_handler8callbackELb0EEEED2Ev
0000000000144db8 W _ZNSaINSt8__detail10_Hash_nodeIPN2us3gov6socket6clientELb0EEEEC1Ev
0000000000144db8 W _ZNSaINSt8__detail10_Hash_nodeIPN2us3gov6socket6clientELb0EEEEC2Ev
0000000000144dd4 W _ZNSaINSt8__detail10_Hash_nodeIPN2us3gov6socket6clientELb0EEEED1Ev
0000000000144dd4 W _ZNSaINSt8__detail10_Hash_nodeIPN2us3gov6socket6clientELb0EEEED2Ev
000000000017a46c W _ZNSaINSt8__detail10_Hash_nodeISt4pairIKiPN2us3gov10blockchain3appEELb0EEEEC1Ev
000000000017a46c W _ZNSaINSt8__detail10_Hash_nodeISt4pairIKiPN2us3gov10blockchain3appEELb0EEEEC2Ev
000000000017a488 W _ZNSaINSt8__detail10_Hash_nodeISt4pairIKiPN2us3gov10blockchain3appEELb0EEEED1Ev
000000000017a488 W _ZNSaINSt8__detail10_Hash_nodeISt4pairIKiPN2us3gov10blockchain3appEELb0EEEED2Ev
0000000000144d4c W _ZNSaINSt8__detail10_Hash_nodeISt4pairIKiPN2us3gov6socket6clientEELb0EEEEC1Ev
0000000000144d4c W _ZNSaINSt8__detail10_Hash_nodeISt4pairIKiPN2us3gov6socket6clientEELb0EEEEC2Ev
0000000000144d68 W _ZNSaINSt8__detail10_Hash_nodeISt4pairIKiPN2us3gov6socket6clientEELb0EEEED1Ev
0000000000144d68 W _ZNSaINSt8__detail10_Hash_nodeISt4pairIKiPN2us3gov6socket6clientEELb0EEEED2Ev
00000000001913ec W _ZNSaINSt8__detail10_Hash_nodeISt4pairIKN2us3gov4cash3app11local_deltaEmELb1EEEEC1Ev
00000000001913ec W _ZNSaINSt8__detail10_Hash_nodeISt4pairIKN2us3gov4cash3app11local_deltaEmELb1EEEEC2Ev
0000000000191408 W _ZNSaINSt8__detail10_Hash_nodeISt4pairIKN2us3gov4cash3app11local_deltaEmELb1EEEED1Ev
0000000000191408 W _ZNSaINSt8__detail10_Hash_nodeISt4pairIKN2us3gov4cash3app11local_deltaEmELb1EEEED2Ev
00000000001840d6 W _ZNSaINSt8__detail10_Hash_nodeISt4pairIKN2us3gov6crypto9ripemd16010value_typeEmELb1EEEEC1Ev
00000000001840d6 W _ZNSaINSt8__detail10_Hash_nodeISt4pairIKN2us3gov6crypto9ripemd16010value_typeEmELb1EEEEC2Ev
000000000019854a W _ZNSaINSt8__detail10_Hash_nodeISt4pairIKN2us3gov6crypto9ripemd16010value_typeEmELb1EEEED1Ev
000000000019854a W _ZNSaINSt8__detail10_Hash_nodeISt4pairIKN2us3gov6crypto9ripemd16010value_typeEmELb1EEEED2Ev
0000000000190ac2 W _ZNSaINSt8__detail10_Hash_nodeISt4pairIKN2us3gov6crypto9ripemd16010value_typeENS3_4cash3app11local_delta9account_tEELb1EEEEC1Ev
0000000000190ac2 W _ZNSaINSt8__detail10_Hash_nodeISt4pairIKN2us3gov6crypto9ripemd16010value_typeENS3_4cash3app11local_delta9account_tEELb1EEEEC2Ev
0000000000190ade W _ZNSaINSt8__detail10_Hash_nodeISt4pairIKN2us3gov6crypto9ripemd16010value_typeENS3_4cash3app11local_delta9account_tEELb1EEEED1Ev
0000000000190ade W _ZNSaINSt8__detail10_Hash_nodeISt4pairIKN2us3gov6crypto9ripemd16010value_typeENS3_4cash3app11local_delta9account_tEELb1EEEED2Ev
00000000001732fc W _ZNSaINSt8__detail10_Hash_nodeISt4pairIKN2us3gov6crypto9ripemd16010value_typeENSt7__cxx1112basic_stringIcSt11char_traitsIcESaIcEEEELb1EEEEC1Ev
00000000001732fc W _ZNSaINSt8__detail10_Hash_nodeISt4pairIKN2us3gov6crypto9ripemd16010value_typeENSt7__cxx1112basic_stringIcSt11char_traitsIcESaIcEEEELb1EEEEC2Ev
0000000000173318 W _ZNSaINSt8__detail10_Hash_nodeISt4pairIKN2us3gov6crypto9ripemd16010value_typeENSt7__cxx1112basic_stringIcSt11char_traitsIcESaIcEEEELb1EEEED1Ev
0000000000173318 W _ZNSaINSt8__detail10_Hash_nodeISt4pairIKN2us3gov6crypto9ripemd16010value_typeENSt7__cxx1112basic_stringIcSt11char_traitsIcESaIcEEEELb1EEEED2Ev
000000000017a4a4 W _ZNSaINSt8__detail10_Hash_nodeISt4pairIKN2us3gov6crypto9ripemd16010value_typeES1_IS6_mEELb1EEEEC1Ev
000000000017a4a4 W _ZNSaINSt8__detail10_Hash_nodeISt4pairIKN2us3gov6crypto9ripemd16010value_typeES1_IS6_mEELb1EEEEC2Ev
000000000017a4c0 W _ZNSaINSt8__detail10_Hash_nodeISt4pairIKN2us3gov6crypto9ripemd16010value_typeES1_IS6_mEELb1EEEED1Ev
000000000017a4c0 W _ZNSaINSt8__detail10_Hash_nodeISt4pairIKN2us3gov6crypto9ripemd16010value_typeES1_IS6_mEELb1EEEED2Ev
000000000017a400 W _ZNSaINSt8__detail10_Hash_nodeISt4pairIKPN2us3gov10blockchain6peer_tENS4_5shellEELb0EEEEC1Ev
000000000017a400 W _ZNSaINSt8__detail10_Hash_nodeISt4pairIKPN2us3gov10blockchain6peer_tENS4_5shellEELb0EEEEC2Ev
000000000017a41c W _ZNSaINSt8__detail10_Hash_nodeISt4pairIKPN2us3gov10blockchain6peer_tENS4_5shellEELb0EEEED1Ev
000000000017a41c W _ZNSaINSt8__detail10_Hash_nodeISt4pairIKPN2us3gov10blockchain6peer_tENS4_5shellEELb0EEEED2Ev
0000000000144e24 W _ZNSaINSt8__detail10_Hash_nodeISt4pairIKPN2us3gov6socket6clientENSt6chrono10time_pointINS8_3_V212steady_clockENS8_8durationIlSt5ratioILl1ELl1000000000EEEEEEELb0EEEEC1Ev
0000000000144e24 W _ZNSaINSt8__detail10_Hash_nodeISt4pairIKPN2us3gov6socket6clientENSt6chrono10time_pointINS8_3_V212steady_clockENS8_8durationIlSt5ratioILl1ELl1000000000EEEEEEELb0EEEEC2Ev
0000000000144e40 W _ZNSaINSt8__detail10_Hash_nodeISt4pairIKPN2us3gov6socket6clientENSt6chrono10time_pointINS8_3_V212steady_clockENS8_8durationIlSt5ratioILl1ELl1000000000EEEEEEELb0EEEED1Ev
0000000000144e40 W _ZNSaINSt8__detail10_Hash_nodeISt4pairIKPN2us3gov6socket6clientENSt6chrono10time_pointINS8_3_V212steady_clockENS8_8durationIlSt5ratioILl1ELl1000000000EEEEEEELb0EEEED2Ev
00000000001801ce W _ZNSaIPN2us3gov10blockchain6peer_tEEC1Ev
00000000001801ce W _ZNSaIPN2us3gov10blockchain6peer_tEEC2Ev
000000000017e96c W _ZNSaIPN2us3gov10blockchain6peer_tEED1Ev
000000000017e96c W _ZNSaIPN2us3gov10blockchain6peer_tEED2Ev
000000000014ce34 W _ZNSaIPN2us3gov14signal_handler8callbackEEC1INSt8__detail10_Hash_nodeIS3_Lb0EEEEERKSaIT_E
000000000014ce34 W _ZNSaIPN2us3gov14signal_handler8callbackEEC2INSt8__detail10_Hash_nodeIS3_Lb0EEEEERKSaIT_E
000000000014ce54 W _ZNSaIPN2us3gov14signal_handler8callbackEED1Ev
000000000014ce54 W _ZNSaIPN2us3gov14signal_handler8callbackEED2Ev
000000000015f9dc W _ZNSaIPN2us3gov4peer6peer_tEEC1ERKS4_
000000000015f986 W _ZNSaIPN2us3gov4peer6peer_tEEC1Ev
000000000015f9dc W _ZNSaIPN2us3gov4peer6peer_tEEC2ERKS4_
000000000015f986 W _ZNSaIPN2us3gov4peer6peer_tEEC2Ev
000000000015ea24 W _ZNSaIPN2us3gov4peer6peer_tEED1Ev
000000000015ea24 W _ZNSaIPN2us3gov4peer6peer_tEED2Ev
000000000014c494 W _ZNSaIPN2us3gov6socket6clientEEC1ERKS4_
000000000014c3e6 W _ZNSaIPN2us3gov6socket6clientEEC1Ev
0000000000149870 W _ZNSaIPN2us3gov6socket6clientEEC1INSt8__detail10_Hash_nodeIS3_Lb0EEEEERKSaIT_E
000000000014c494 W _ZNSaIPN2us3gov6socket6clientEEC2ERKS4_
000000000014c3e6 W _ZNSaIPN2us3gov6socket6clientEEC2Ev
0000000000149870 W _ZNSaIPN2us3gov6socket6clientEEC2INSt8__detail10_Hash_nodeIS3_Lb0EEEEERKSaIT_E
000000000014926a W _ZNSaIPN2us3gov6socket6clientEED1Ev
000000000014926a W _ZNSaIPN2us3gov6socket6clientEED2Ev
0000000000177d4a W _ZNSaIPNSt8__detail15_Hash_node_baseEEC1INS_10_Hash_nodeIiLb0EEEEERKSaIT_E
0000000000160792 W _ZNSaIPNSt8__detail15_Hash_node_baseEEC1INS_10_Hash_nodeIN2us3gov6crypto9ripemd16010value_typeELb1EEEEERKSaIT_E
0000000000160baa W _ZNSaIPNSt8__detail15_Hash_node_baseEEC1INS_10_Hash_nodeINSt7__cxx1112basic_stringIcSt11char_traitsIcESaIcEEELb1EEEEERKSaIT_E
000000000014f5f2 W _ZNSaIPNSt8__detail15_Hash_node_baseEEC1INS_10_Hash_nodeIPN2us3gov14signal_handler8callbackELb0EEEEERKSaIT_E
000000000014bca8 W _ZNSaIPNSt8__detail15_Hash_node_baseEEC1INS_10_Hash_nodeIPN2us3gov6socket6clientELb0EEEEERKSaIT_E
0000000000180e5c W _ZNSaIPNSt8__detail15_Hash_node_baseEEC1INS_10_Hash_nodeISt4pairIKiPN2us3gov10blockchain3appEELb0EEEEERKSaIT_E
000000000014bf20 W _ZNSaIPNSt8__detail15_Hash_node_baseEEC1INS_10_Hash_nodeISt4pairIKiPN2us3gov6socket6clientEELb0EEEEERKSaIT_E
0000000000195760 W _ZNSaIPNSt8__detail15_Hash_node_baseEEC1INS_10_Hash_nodeISt4pairIKN2us3gov4cash3app11local_deltaEmELb1EEEEERKSaIT_E
00000000001849be W _ZNSaIPNSt8__detail15_Hash_node_baseEEC1INS_10_Hash_nodeISt4pairIKN2us3gov6crypto9ripemd16010value_typeEmELb1EEEEERKSaIT_E
0000000000194de2 W _ZNSaIPNSt8__detail15_Hash_node_baseEEC1INS_10_Hash_nodeISt4pairIKN2us3gov6crypto9ripemd16010value_typeENS7_4cash3app11local_delta9account_tEELb1EEEEERKSaIT_E
0000000000177be8 W _ZNSaIPNSt8__detail15_Hash_node_baseEEC1INS_10_Hash_nodeISt4pairIKN2us3gov6crypto9ripemd16010value_typeENSt7__cxx1112basic_stringIcSt11char_traitsIcESaIcEEEELb1EEEEERKSaIT_E
0000000000181024 W _ZNSaIPNSt8__detail15_Hash_node_baseEEC1INS_10_Hash_nodeISt4pairIKN2us3gov6crypto9ripemd16010value_typeES5_ISA_mEELb1EEEEERKSaIT_E
0000000000180f40 W _ZNSaIPNSt8__detail15_Hash_node_baseEEC1INS_10_Hash_nodeISt4pairIKPN2us3gov10blockchain6peer_tENS8_5shellEELb0EEEEERKSaIT_E
000000000014d398 W _ZNSaIPNSt8__detail15_Hash_node_baseEEC1INS_10_Hash_nodeISt4pairIKPN2us3gov6socket6clientENSt6chrono10time_pointINSC_3_V212steady_clockENSC_8durationIlSt5ratioILl1ELl1000000000EEEEEEELb0EEEEERKSaIT_E
0000000000177d4a W _ZNSaIPNSt8__detail15_Hash_node_baseEEC2INS_10_Hash_nodeIiLb0EEEEERKSaIT_E
0000000000160792 W _ZNSaIPNSt8__detail15_Hash_node_baseEEC2INS_10_Hash_nodeIN2us3gov6crypto9ripemd16010value_typeELb1EEEEERKSaIT_E
0000000000160baa W _ZNSaIPNSt8__detail15_Hash_node_baseEEC2INS_10_Hash_nodeINSt7__cxx1112basic_stringIcSt11char_traitsIcESaIcEEELb1EEEEERKSaIT_E
000000000014f5f2 W _ZNSaIPNSt8__detail15_Hash_node_baseEEC2INS_10_Hash_nodeIPN2us3gov14signal_handler8callbackELb0EEEEERKSaIT_E
000000000014bca8 W _ZNSaIPNSt8__detail15_Hash_node_baseEEC2INS_10_Hash_nodeIPN2us3gov6socket6clientELb0EEEEERKSaIT_E
0000000000180e5c W _ZNSaIPNSt8__detail15_Hash_node_baseEEC2INS_10_Hash_nodeISt4pairIKiPN2us3gov10blockchain3appEELb0EEEEERKSaIT_E
000000000014bf20 W _ZNSaIPNSt8__detail15_Hash_node_baseEEC2INS_10_Hash_nodeISt4pairIKiPN2us3gov6socket6clientEELb0EEEEERKSaIT_E
0000000000195760 W _ZNSaIPNSt8__detail15_Hash_node_baseEEC2INS_10_Hash_nodeISt4pairIKN2us3gov4cash3app11local_deltaEmELb1EEEEERKSaIT_E
00000000001849be W _ZNSaIPNSt8__detail15_Hash_node_baseEEC2INS_10_Hash_nodeISt4pairIKN2us3gov6crypto9ripemd16010value_typeEmELb1EEEEERKSaIT_E
0000000000194de2 W _ZNSaIPNSt8__detail15_Hash_node_baseEEC2INS_10_Hash_nodeISt4pairIKN2us3gov6crypto9ripemd16010value_typeENS7_4cash3app11local_delta9account_tEELb1EEEEERKSaIT_E
0000000000177be8 W _ZNSaIPNSt8__detail15_Hash_node_baseEEC2INS_10_Hash_nodeISt4pairIKN2us3gov6crypto9ripemd16010value_typeENSt7__cxx1112basic_stringIcSt11char_traitsIcESaIcEEEELb1EEEEERKSaIT_E
0000000000181024 W _ZNSaIPNSt8__detail15_Hash_node_baseEEC2INS_10_Hash_nodeISt4pairIKN2us3gov6crypto9ripemd16010value_typeES5_ISA_mEELb1EEEEERKSaIT_E
0000000000180f40 W _ZNSaIPNSt8__detail15_Hash_node_baseEEC2INS_10_Hash_nodeISt4pairIKPN2us3gov10blockchain6peer_tENS8_5shellEELb0EEEEERKSaIT_E
000000000014d398 W _ZNSaIPNSt8__detail15_Hash_node_baseEEC2INS_10_Hash_nodeISt4pairIKPN2us3gov6socket6clientENSt6chrono10time_pointINSC_3_V212steady_clockENSC_8durationIlSt5ratioILl1ELl1000000000EEEEEEELb0EEEEERKSaIT_E
000000000014bcc8 W _ZNSaIPNSt8__detail15_Hash_node_baseEED1Ev
000000000014bcc8 W _ZNSaIPNSt8__detail15_Hash_node_baseEED2Ev
0000000000157828 W _ZNSaIPPSt8functionIFviEEEC1IS2_EERKSaIT_E
0000000000157828 W _ZNSaIPPSt8functionIFviEEEC2IS2_EERKSaIT_E
0000000000156b40 W _ZNSaIPPSt8functionIFviEEED1Ev
0000000000156b40 W _ZNSaIPPSt8functionIFviEEED2Ev
0000000000157654 W _ZNSaIPSt8functionIFviEEEC1Ev
0000000000157654 W _ZNSaIPSt8functionIFviEEEC2Ev
0000000000155a3e W _ZNSaIPSt8functionIFviEEED1Ev
0000000000155a3e W _ZNSaIPSt8functionIFviEEED2Ev
0000000000156844 W _ZNSaISt10shared_ptrISt6atomicIbEEEC1Ev
0000000000156844 W _ZNSaISt10shared_ptrISt6atomicIbEEEC2Ev
0000000000155978 W _ZNSaISt10shared_ptrISt6atomicIbEEED1Ev
0000000000155978 W _ZNSaISt10shared_ptrISt6atomicIbEEED2Ev
00000000001567b6 W _ZNSaISt10unique_ptrISt6threadSt14default_deleteIS0_EEEC1Ev
00000000001567b6 W _ZNSaISt10unique_ptrISt6threadSt14default_deleteIS0_EEEC2Ev
00000000001558c2 W _ZNSaISt10unique_ptrISt6threadSt14default_deleteIS0_EEED1Ev
00000000001558c2 W _ZNSaISt10unique_ptrISt6threadSt14default_deleteIS0_EEED2Ev
0000000000158c60 W _ZNSaISt13packaged_taskIFviEEEC1ERKS2_
00000000001563c2 W _ZNSaISt13packaged_taskIFviEEEC1Ev
0000000000158c60 W _ZNSaISt13packaged_taskIFviEEEC2ERKS2_
00000000001563c2 W _ZNSaISt13packaged_taskIFviEEEC2Ev
00000000001563de W _ZNSaISt13packaged_taskIFviEEED1Ev
00000000001563de W _ZNSaISt13packaged_taskIFviEEED2Ev
000000000016ee54 W _ZNSaISt13_Rb_tree_nodeISt4pairIKiPN2us3gov10blockchain3app11local_deltaEEEEC1Ev
000000000016ee54 W _ZNSaISt13_Rb_tree_nodeISt4pairIKiPN2us3gov10blockchain3app11local_deltaEEEEC2Ev
000000000016ee70 W _ZNSaISt13_Rb_tree_nodeISt4pairIKiPN2us3gov10blockchain3app11local_deltaEEEED1Ev
000000000016ee70 W _ZNSaISt13_Rb_tree_nodeISt4pairIKiPN2us3gov10blockchain3app11local_deltaEEEED2Ev
000000000016ebd2 W _ZNSaISt13_Rb_tree_nodeISt4pairIKiPN2us3gov10blockchain3app5deltaEEEEC1Ev
000000000016ebd2 W _ZNSaISt13_Rb_tree_nodeISt4pairIKiPN2us3gov10blockchain3app5deltaEEEEC2Ev
000000000016ebee W _ZNSaISt13_Rb_tree_nodeISt4pairIKiPN2us3gov10blockchain3app5deltaEEEED1Ev
000000000016ebee W _ZNSaISt13_Rb_tree_nodeISt4pairIKiPN2us3gov10blockchain3app5deltaEEEED2Ev
000000000016ec7c W _ZNSaISt13_Rb_tree_nodeISt4pairIKN2us3gov6crypto9ripemd16010value_typeEmEEEC1Ev
000000000016ec7c W _ZNSaISt13_Rb_tree_nodeISt4pairIKN2us3gov6crypto9ripemd16010value_typeEmEEEC2Ev
000000000016ec98 W _ZNSaISt13_Rb_tree_nodeISt4pairIKN2us3gov6crypto9ripemd16010value_typeEmEEED1Ev
000000000016ec98 W _ZNSaISt13_Rb_tree_nodeISt4pairIKN2us3gov6crypto9ripemd16010value_typeEmEEED2Ev
0000000000196e18 W _ZNSaISt13_Rb_tree_nodeISt4pairIKN2us3gov6crypto9ripemd16010value_typeENS2_4cash3app11local_delta9account_tEEEEC1ERKSD_
0000000000190d08 W _ZNSaISt13_Rb_tree_nodeISt4pairIKN2us3gov6crypto9ripemd16010value_typeENS2_4cash3app11local_delta9account_tEEEEC1Ev
0000000000196e18 W _ZNSaISt13_Rb_tree_nodeISt4pairIKN2us3gov6crypto9ripemd16010value_typeENS2_4cash3app11local_delta9account_tEEEEC2ERKSD_
0000000000190d08 W _ZNSaISt13_Rb_tree_nodeISt4pairIKN2us3gov6crypto9ripemd16010value_typeENS2_4cash3app11local_delta9account_tEEEEC2Ev
0000000000190d24 W _ZNSaISt13_Rb_tree_nodeISt4pairIKN2us3gov6crypto9ripemd16010value_typeENS2_4cash3app11local_delta9account_tEEEED1Ev
0000000000190d24 W _ZNSaISt13_Rb_tree_nodeISt4pairIKN2us3gov6crypto9ripemd16010value_typeENS2_4cash3app11local_delta9account_tEEEED2Ev
00000000001730ca W _ZNSaISt13_Rb_tree_nodeISt4pairIKN2us3gov6crypto9ripemd16010value_typeENSt7__cxx1112basic_stringIcSt11char_traitsIcESaIcEEEEEEC1Ev
00000000001730ca W _ZNSaISt13_Rb_tree_nodeISt4pairIKN2us3gov6crypto9ripemd16010value_typeENSt7__cxx1112basic_stringIcSt11char_traitsIcESaIcEEEEEEC2Ev
00000000001730e6 W _ZNSaISt13_Rb_tree_nodeISt4pairIKN2us3gov6crypto9ripemd16010value_typeENSt7__cxx1112basic_stringIcSt11char_traitsIcESaIcEEEEEED1Ev
00000000001730e6 W _ZNSaISt13_Rb_tree_nodeISt4pairIKN2us3gov6crypto9ripemd16010value_typeENSt7__cxx1112basic_stringIcSt11char_traitsIcESaIcEEEEEED2Ev
0000000000158b80 W _ZNSaISt23_Sp_counted_ptr_inplaceISt13packaged_taskIFviEESaIS2_ELN9__gnu_cxx12_Lock_policyE2EEEC1IS2_EERKSaIT_E
0000000000158b80 W _ZNSaISt23_Sp_counted_ptr_inplaceISt13packaged_taskIFviEESaIS2_ELN9__gnu_cxx12_Lock_policyE2EEEC2IS2_EERKSaIT_E
0000000000158ba0 W _ZNSaISt23_Sp_counted_ptr_inplaceISt13packaged_taskIFviEESaIS2_ELN9__gnu_cxx12_Lock_policyE2EEED1Ev
0000000000158ba0 W _ZNSaISt23_Sp_counted_ptr_inplaceISt13packaged_taskIFviEESaIS2_ELN9__gnu_cxx12_Lock_policyE2EEED2Ev
00000000001582c6 W _ZNSaISt23_Sp_counted_ptr_inplaceISt6atomicIbESaIS1_ELN9__gnu_cxx12_Lock_policyE2EEEC1IS1_EERKSaIT_E
00000000001582c6 W _ZNSaISt23_Sp_counted_ptr_inplaceISt6atomicIbESaIS1_ELN9__gnu_cxx12_Lock_policyE2EEEC2IS1_EERKSaIT_E
00000000001582e6 W _ZNSaISt23_Sp_counted_ptr_inplaceISt6atomicIbESaIS1_ELN9__gnu_cxx12_Lock_policyE2EEED1Ev
00000000001582e6 W _ZNSaISt23_Sp_counted_ptr_inplaceISt6atomicIbESaIS1_ELN9__gnu_cxx12_Lock_policyE2EEED2Ev
0000000000180dcc W _ZNSaISt4pairIKiPN2us3gov10blockchain3appEEEC1INSt8__detail10_Hash_nodeIS6_Lb0EEEEERKSaIT_E
0000000000180dcc W _ZNSaISt4pairIKiPN2us3gov10blockchain3appEEEC2INSt8__detail10_Hash_nodeIS6_Lb0EEEEERKSaIT_E
0000000000180dec W _ZNSaISt4pairIKiPN2us3gov10blockchain3appEEED1Ev
0000000000180dec W _ZNSaISt4pairIKiPN2us3gov10blockchain3appEEED2Ev
0000000000149c06 W _ZNSaISt4pairIKiPN2us3gov6socket6clientEEEC1INSt8__detail10_Hash_nodeIS6_Lb0EEEEERKSaIT_E
0000000000149c06 W _ZNSaISt4pairIKiPN2us3gov6socket6clientEEEC2INSt8__detail10_Hash_nodeIS6_Lb0EEEEERKSaIT_E
0000000000149c26 W _ZNSaISt4pairIKiPN2us3gov6socket6clientEEED1Ev
0000000000149c26 W _ZNSaISt4pairIKiPN2us3gov6socket6clientEEED2Ev
00000000001956d0 W _ZNSaISt4pairIKN2us3gov4cash3app11local_deltaEmEEC1INSt8__detail10_Hash_nodeIS6_Lb1EEEEERKSaIT_E
00000000001956d0 W _ZNSaISt4pairIKN2us3gov4cash3app11local_deltaEmEEC2INSt8__detail10_Hash_nodeIS6_Lb1EEEEERKSaIT_E
00000000001956f0 W _ZNSaISt4pairIKN2us3gov4cash3app11local_deltaEmEED1Ev
00000000001956f0 W _ZNSaISt4pairIKN2us3gov4cash3app11local_deltaEmEED2Ev
000000000018492e W _ZNSaISt4pairIKN2us3gov6crypto9ripemd16010value_typeEmEEC1INSt8__detail10_Hash_nodeIS6_Lb1EEEEERKSaIT_E
000000000018492e W _ZNSaISt4pairIKN2us3gov6crypto9ripemd16010value_typeEmEEC2INSt8__detail10_Hash_nodeIS6_Lb1EEEEERKSaIT_E
000000000018494e W _ZNSaISt4pairIKN2us3gov6crypto9ripemd16010value_typeEmEED1Ev
000000000018494e W _ZNSaISt4pairIKN2us3gov6crypto9ripemd16010value_typeEmEED2Ev
0000000000194d52 W _ZNSaISt4pairIKN2us3gov6crypto9ripemd16010value_typeENS1_4cash3app11local_delta9account_tEEEC1INSt8__detail10_Hash_nodeISA_Lb1EEEEERKSaIT_E
0000000000194d52 W _ZNSaISt4pairIKN2us3gov6crypto9ripemd16010value_typeENS1_4cash3app11local_delta9account_tEEEC2INSt8__detail10_Hash_nodeISA_Lb1EEEEERKSaIT_E
0000000000194d72 W _ZNSaISt4pairIKN2us3gov6crypto9ripemd16010value_typeENS1_4cash3app11local_delta9account_tEEED1Ev
0000000000194d72 W _ZNSaISt4pairIKN2us3gov6crypto9ripemd16010value_typeENS1_4cash3app11local_delta9account_tEEED2Ev
0000000000177b58 W _ZNSaISt4pairIKN2us3gov6crypto9ripemd16010value_typeENSt7__cxx1112basic_stringIcSt11char_traitsIcESaIcEEEEEC1INSt8__detail10_Hash_nodeISC_Lb1EEEEERKSaIT_E
0000000000177b58 W _ZNSaISt4pairIKN2us3gov6crypto9ripemd16010value_typeENSt7__cxx1112basic_stringIcSt11char_traitsIcESaIcEEEEEC2INSt8__detail10_Hash_nodeISC_Lb1EEEEERKSaIT_E
0000000000177b78 W _ZNSaISt4pairIKN2us3gov6crypto9ripemd16010value_typeENSt7__cxx1112basic_stringIcSt11char_traitsIcESaIcEEEEED1Ev
0000000000177b78 W _ZNSaISt4pairIKN2us3gov6crypto9ripemd16010value_typeENSt7__cxx1112basic_stringIcSt11char_traitsIcESaIcEEEEED2Ev
0000000000180f94 W _ZNSaISt4pairIKN2us3gov6crypto9ripemd16010value_typeES_IS4_mEEEC1INSt8__detail10_Hash_nodeIS7_Lb1EEEEERKSaIT_E
0000000000180f94 W _ZNSaISt4pairIKN2us3gov6crypto9ripemd16010value_typeES_IS4_mEEEC2INSt8__detail10_Hash_nodeIS7_Lb1EEEEERKSaIT_E
0000000000180fb4 W _ZNSaISt4pairIKN2us3gov6crypto9ripemd16010value_typeES_IS4_mEEED1Ev
0000000000180fb4 W _ZNSaISt4pairIKN2us3gov6crypto9ripemd16010value_typeES_IS4_mEEED2Ev
0000000000180eb0 W _ZNSaISt4pairIKPN2us3gov10blockchain6peer_tENS2_5shellEEEC1INSt8__detail10_Hash_nodeIS7_Lb0EEEEERKSaIT_E
0000000000180eb0 W _ZNSaISt4pairIKPN2us3gov10blockchain6peer_tENS2_5shellEEEC2INSt8__detail10_Hash_nodeIS7_Lb0EEEEERKSaIT_E
0000000000180ed0 W _ZNSaISt4pairIKPN2us3gov10blockchain6peer_tENS2_5shellEEED1Ev
0000000000180ed0 W _ZNSaISt4pairIKPN2us3gov10blockchain6peer_tENS2_5shellEEED2Ev
000000000014d308 W _ZNSaISt4pairIKPN2us3gov6socket6clientENSt6chrono10time_pointINS6_3_V212steady_clockENS6_8durationIlSt5ratioILl1ELl1000000000EEEEEEEEC1INSt8__detail10_Hash_nodeISF_Lb0EEEEERKSaIT_E
000000000014d308 W _ZNSaISt4pairIKPN2us3gov6socket6clientENSt6chrono10time_pointINS6_3_V212steady_clockENS6_8durationIlSt5ratioILl1ELl1000000000EEEEEEEEC2INSt8__detail10_Hash_nodeISF_Lb0EEEEERKSaIT_E
000000000014d328 W _ZNSaISt4pairIKPN2us3gov6socket6clientENSt6chrono10time_pointINS6_3_V212steady_clockENS6_8durationIlSt5ratioILl1ELl1000000000EEEEEEEED1Ev
000000000014d328 W _ZNSaISt4pairIKPN2us3gov6socket6clientENSt6chrono10time_pointINS6_3_V212steady_clockENS6_8durationIlSt5ratioILl1ELl1000000000EEEEEEEED2Ev
000000000017684a W _ZNSaISt4pairIN2us3gov6crypto9ripemd16010value_typeENSt7__cxx1112basic_stringIcSt11char_traitsIcESaIcEEEEEC1Ev
000000000017684a W _ZNSaISt4pairIN2us3gov6crypto9ripemd16010value_typeENSt7__cxx1112basic_stringIcSt11char_traitsIcESaIcEEEEEC2Ev
0000000000175370 W _ZNSaISt4pairIN2us3gov6crypto9ripemd16010value_typeENSt7__cxx1112basic_stringIcSt11char_traitsIcESaIcEEEEED1Ev
0000000000175370 W _ZNSaISt4pairIN2us3gov6crypto9ripemd16010value_typeENSt7__cxx1112basic_stringIcSt11char_traitsIcESaIcEEEEED2Ev
00000000001583a6 W _ZNSaISt6atomicIbEEC1ERKS1_
0000000000154b00 W _ZNSaISt6atomicIbEEC1Ev
00000000001583a6 W _ZNSaISt6atomicIbEEC2ERKS1_
0000000000154b00 W _ZNSaISt6atomicIbEEC2Ev
0000000000154b1c W _ZNSaISt6atomicIbEED1Ev
0000000000154b1c W _ZNSaISt6atomicIbEED2Ev
000000000017fd7a W _ZNSaISt6threadEC1Ev
000000000017fd7a W _ZNSaISt6threadEC2Ev
000000000017e376 W _ZNSaISt6threadED1Ev
000000000017e376 W _ZNSaISt6threadED2Ev
                 U _ZNSi4readEPcl
                 U _ZNSirsERd
                 U _ZNSirsERi
                 U _ZNSirsERl
                 U _ZNSirsERm
                 U _ZNSolsEb
                 U _ZNSolsEd
                 U _ZNSolsEi
                 U _ZNSolsEl
                 U _ZNSolsEm
                 U _ZNSolsEPFRSoS_E
                 U _ZNSolsEPFRSt8ios_baseS0_E
                 U _ZNSolsEPKv
                 U _ZNSolsEt
0000000000151450 W _ZNSt10error_codeC1EiRKNSt3_V214error_categoryE
0000000000151450 W _ZNSt10error_codeC2EiRKNSt3_V214error_categoryE
000000000015c8f6 W _ZNSt10_Hash_impl4hashEPKvmm
0000000000178abe W _ZNSt10_HashtableIiiSaIiENSt8__detail9_IdentityESt8equal_toIiESt4hashIiENS1_18_Mod_range_hashingENS1_20_Default_ranged_hashENS1_20_Prime_rehash_policyENS1_17_Hashtable_traitsILb0ELb1ELb1EEEE13_M_rehash_auxEmSt17integral_constantIbLb1EE
000000000017921a W _ZNSt10_HashtableIiiSaIiENSt8__detail9_IdentityESt8equal_toIiESt4hashIiENS1_18_Mod_range_hashingENS1_20_Default_ranged_hashENS1_20_Prime_rehash_policyENS1_17_Hashtable_traitsILb0ELb1ELb1EEEE19_M_allocate_bucketsEm
0000000000175c66 W _ZNSt10_HashtableIiiSaIiENSt8__detail9_IdentityESt8equal_toIiESt4hashIiENS1_18_Mod_range_hashingENS1_20_Default_ranged_hashENS1_20_Prime_rehash_policyENS1_17_Hashtable_traitsILb0ELb1ELb1EEEE21_M_deallocate_bucketsEPPNS1_15_Hash_node_baseEm
0000000000174896 W _ZNSt10_HashtableIiiSaIiENSt8__detail9_IdentityESt8equal_toIiESt4hashIiENS1_18_Mod_range_hashingENS1_20_Default_ranged_hashENS1_20_Prime_rehash_policyENS1_17_Hashtable_traitsILb0ELb1ELb1EEEE21_M_deallocate_bucketsEv
0000000000176f76 W _ZNSt10_HashtableIiiSaIiENSt8__detail9_IdentityESt8equal_toIiESt4hashIiENS1_18_Mod_range_hashingENS1_20_Default_ranged_hashENS1_20_Prime_rehash_policyENS1_17_Hashtable_traitsILb0ELb1ELb1EEEE21_M_insert_unique_nodeEmmPNS1_10_Hash_nodeIiLb0EEE
0000000000178148 W _ZNSt10_HashtableIiiSaIiENSt8__detail9_IdentityESt8equal_toIiESt4hashIiENS1_18_Mod_range_hashingENS1_20_Default_ranged_hashENS1_20_Prime_rehash_policyENS1_17_Hashtable_traitsILb0ELb1ELb1EEEE22_M_insert_bucket_beginEmPNS1_10_Hash_nodeIiLb0EEE
000000000017482c W _ZNSt10_HashtableIiiSaIiENSt8__detail9_IdentityESt8equal_toIiESt4hashIiENS1_18_Mod_range_hashingENS1_20_Default_ranged_hashENS1_20_Prime_rehash_policyENS1_17_Hashtable_traitsILb0ELb1ELb1EEEE5clearEv
0000000000175d28 W _ZNSt10_HashtableIiiSaIiENSt8__detail9_IdentityESt8equal_toIiESt4hashIiENS1_18_Mod_range_hashingENS1_20_Default_ranged_hashENS1_20_Prime_rehash_policyENS1_17_Hashtable_traitsILb0ELb1ELb1EEEE9_M_insertIiNS1_10_AllocNodeISaINS1_10_Hash_nodeIiLb0EEEEEEEESt4pairINS1_14_Node_iteratorIiLb1ELb0EEEbEOT_RKT0_St17integral_constantIbLb1EE
00000000001780a6 W _ZNSt10_HashtableIiiSaIiENSt8__detail9_IdentityESt8equal_toIiESt4hashIiENS1_18_Mod_range_hashingENS1_20_Default_ranged_hashENS1_20_Prime_rehash_policyENS1_17_Hashtable_traitsILb0ELb1ELb1EEEE9_M_rehashEmRKm
0000000000172e78 W _ZNSt10_HashtableIiiSaIiENSt8__detail9_IdentityESt8equal_toIiESt4hashIiENS1_18_Mod_range_hashingENS1_20_Default_ranged_hashENS1_20_Prime_rehash_policyENS1_17_Hashtable_traitsILb0ELb1ELb1EEEEC1Ev
0000000000172e78 W _ZNSt10_HashtableIiiSaIiENSt8__detail9_IdentityESt8equal_toIiESt4hashIiENS1_18_Mod_range_hashingENS1_20_Default_ranged_hashENS1_20_Prime_rehash_policyENS1_17_Hashtable_traitsILb0ELb1ELb1EEEEC2Ev
00000000001736ee W _ZNSt10_HashtableIiiSaIiENSt8__detail9_IdentityESt8equal_toIiESt4hashIiENS1_18_Mod_range_hashingENS1_20_Default_ranged_hashENS1_20_Prime_rehash_policyENS1_17_Hashtable_traitsILb0ELb1ELb1EEEED1Ev
00000000001736ee W _ZNSt10_HashtableIiiSaIiENSt8__detail9_IdentityESt8equal_toIiESt4hashIiENS1_18_Mod_range_hashingENS1_20_Default_ranged_hashENS1_20_Prime_rehash_policyENS1_17_Hashtable_traitsILb0ELb1ELb1EEEED2Ev
000000000017dd36 W _ZNSt10_HashtableIiSt4pairIKiPN2us3gov10blockchain3appEESaIS7_ENSt8__detail10_Select1stESt8equal_toIiESt4hashIiENS9_18_Mod_range_hashingENS9_20_Default_ranged_hashENS9_20_Prime_rehash_policyENS9_17_Hashtable_traitsILb0ELb0ELb1EEEE10_M_emplaceIJiRS6_EEES0_INS9_14_Node_iteratorIS7_Lb0ELb0EEEbESt17integral_constantIbLb1EEDpOT_
00000000001821b8 W _ZNSt10_HashtableIiSt4pairIKiPN2us3gov10blockchain3appEESaIS7_ENSt8__detail10_Select1stESt8equal_toIiESt4hashIiENS9_18_Mod_range_hashingENS9_20_Default_ranged_hashENS9_20_Prime_rehash_policyENS9_17_Hashtable_traitsILb0ELb0ELb1EEEE13_M_rehash_auxEmSt17integral_constantIbLb1EE
0000000000182d34 W _ZNSt10_HashtableIiSt4pairIKiPN2us3gov10blockchain3appEESaIS7_ENSt8__detail10_Select1stESt8equal_toIiESt4hashIiENS9_18_Mod_range_hashingENS9_20_Default_ranged_hashENS9_20_Prime_rehash_policyENS9_17_Hashtable_traitsILb0ELb0ELb1EEEE19_M_allocate_bucketsEm
000000000017da8e W _ZNSt10_HashtableIiSt4pairIKiPN2us3gov10blockchain3appEESaIS7_ENSt8__detail10_Select1stESt8equal_toIiESt4hashIiENS9_18_Mod_range_hashingENS9_20_Default_ranged_hashENS9_20_Prime_rehash_policyENS9_17_Hashtable_traitsILb0ELb0ELb1EEEE21_M_deallocate_bucketsEPPNS9_15_Hash_node_baseEm
000000000017b87e W _ZNSt10_HashtableIiSt4pairIKiPN2us3gov10blockchain3appEESaIS7_ENSt8__detail10_Select1stESt8equal_toIiESt4hashIiENS9_18_Mod_range_hashingENS9_20_Default_ranged_hashENS9_20_Prime_rehash_policyENS9_17_Hashtable_traitsILb0ELb0ELb1EEEE21_M_deallocate_bucketsEv
000000000017faa8 W _ZNSt10_HashtableIiSt4pairIKiPN2us3gov10blockchain3appEESaIS7_ENSt8__detail10_Select1stESt8equal_toIiESt4hashIiENS9_18_Mod_range_hashingENS9_20_Default_ranged_hashENS9_20_Prime_rehash_policyENS9_17_Hashtable_traitsILb0ELb0ELb1EEEE21_M_insert_unique_nodeEmmPNS9_10_Hash_nodeIS7_Lb0EEE
0000000000181276 W _ZNSt10_HashtableIiSt4pairIKiPN2us3gov10blockchain3appEESaIS7_ENSt8__detail10_Select1stESt8equal_toIiESt4hashIiENS9_18_Mod_range_hashingENS9_20_Default_ranged_hashENS9_20_Prime_rehash_policyENS9_17_Hashtable_traitsILb0ELb0ELb1EEEE22_M_insert_bucket_beginEmPNS9_10_Hash_nodeIS7_Lb0EEE
000000000017b8dc W _ZNSt10_HashtableIiSt4pairIKiPN2us3gov10blockchain3appEESaIS7_ENSt8__detail10_Select1stESt8equal_toIiESt4hashIiENS9_18_Mod_range_hashingENS9_20_Default_ranged_hashENS9_20_Prime_rehash_policyENS9_17_Hashtable_traitsILb0ELb0ELb1EEEE3endEv
000000000017bb6c W _ZNSt10_HashtableIiSt4pairIKiPN2us3gov10blockchain3appEESaIS7_ENSt8__detail10_Select1stESt8equal_toIiESt4hashIiENS9_18_Mod_range_hashingENS9_20_Default_ranged_hashENS9_20_Prime_rehash_policyENS9_17_Hashtable_traitsILb0ELb0ELb1EEEE4findERS1_
000000000017b8ac W _ZNSt10_HashtableIiSt4pairIKiPN2us3gov10blockchain3appEESaIS7_ENSt8__detail10_Select1stESt8equal_toIiESt4hashIiENS9_18_Mod_range_hashingENS9_20_Default_ranged_hashENS9_20_Prime_rehash_policyENS9_17_Hashtable_traitsILb0ELb0ELb1EEEE5beginEv
000000000017b814 W _ZNSt10_HashtableIiSt4pairIKiPN2us3gov10blockchain3appEESaIS7_ENSt8__detail10_Select1stESt8equal_toIiESt4hashIiENS9_18_Mod_range_hashingENS9_20_Default_ranged_hashENS9_20_Prime_rehash_policyENS9_17_Hashtable_traitsILb0ELb0ELb1EEEE5clearEv
000000000017bc0a W _ZNSt10_HashtableIiSt4pairIKiPN2us3gov10blockchain3appEESaIS7_ENSt8__detail10_Select1stESt8equal_toIiESt4hashIiENS9_18_Mod_range_hashingENS9_20_Default_ranged_hashENS9_20_Prime_rehash_policyENS9_17_Hashtable_traitsILb0ELb0ELb1EEEE7emplaceIJiRS6_EEES0_INS9_14_Node_iteratorIS7_Lb0ELb0EEEbEDpOT_
00000000001811ee W _ZNSt10_HashtableIiSt4pairIKiPN2us3gov10blockchain3appEESaIS7_ENSt8__detail10_Select1stESt8equal_toIiESt4hashIiENS9_18_Mod_range_hashingENS9_20_Default_ranged_hashENS9_20_Prime_rehash_policyENS9_17_Hashtable_traitsILb0ELb0ELb1EEEE9_M_rehashEmRKm
0000000000179dee W _ZNSt10_HashtableIiSt4pairIKiPN2us3gov10blockchain3appEESaIS7_ENSt8__detail10_Select1stESt8equal_toIiESt4hashIiENS9_18_Mod_range_hashingENS9_20_Default_ranged_hashENS9_20_Prime_rehash_policyENS9_17_Hashtable_traitsILb0ELb0ELb1EEEEC1Ev
0000000000179dee W _ZNSt10_HashtableIiSt4pairIKiPN2us3gov10blockchain3appEESaIS7_ENSt8__detail10_Select1stESt8equal_toIiESt4hashIiENS9_18_Mod_range_hashingENS9_20_Default_ranged_hashENS9_20_Prime_rehash_policyENS9_17_Hashtable_traitsILb0ELb0ELb1EEEEC2Ev
000000000017a33a W _ZNSt10_HashtableIiSt4pairIKiPN2us3gov10blockchain3appEESaIS7_ENSt8__detail10_Select1stESt8equal_toIiESt4hashIiENS9_18_Mod_range_hashingENS9_20_Default_ranged_hashENS9_20_Prime_rehash_policyENS9_17_Hashtable_traitsILb0ELb0ELb1EEEED1Ev
000000000017a33a W _ZNSt10_HashtableIiSt4pairIKiPN2us3gov10blockchain3appEESaIS7_ENSt8__detail10_Select1stESt8equal_toIiESt4hashIiENS9_18_Mod_range_hashingENS9_20_Default_ranged_hashENS9_20_Prime_rehash_policyENS9_17_Hashtable_traitsILb0ELb0ELb1EEEED2Ev
00000000001495b8 W _ZNSt10_HashtableIiSt4pairIKiPN2us3gov6socket6clientEESaIS7_ENSt8__detail10_Select1stESt8equal_toIiESt4hashIiENS9_18_Mod_range_hashingENS9_20_Default_ranged_hashENS9_20_Prime_rehash_policyENS9_17_Hashtable_traitsILb0ELb0ELb1EEEE10_M_emplaceIJRiRS6_EEES0_INS9_14_Node_iteratorIS7_Lb0ELb0EEEbESt17integral_constantIbLb1EEDpOT_
000000000014e7d2 W _ZNSt10_HashtableIiSt4pairIKiPN2us3gov6socket6clientEESaIS7_ENSt8__detail10_Select1stESt8equal_toIiESt4hashIiENS9_18_Mod_range_hashingENS9_20_Default_ranged_hashENS9_20_Prime_rehash_policyENS9_17_Hashtable_traitsILb0ELb0ELb1EEEE13_M_rehash_auxEmSt17integral_constantIbLb1EE
0000000000147b34 W _ZNSt10_HashtableIiSt4pairIKiPN2us3gov6socket6clientEESaIS7_ENSt8__detail10_Select1stESt8equal_toIiESt4hashIiENS9_18_Mod_range_hashingENS9_20_Default_ranged_hashENS9_20_Prime_rehash_policyENS9_17_Hashtable_traitsILb0ELb0ELb1EEEE19_M_allocate_bucketsEm
000000000014b6c0 W _ZNSt10_HashtableIiSt4pairIKiPN2us3gov6socket6clientEESaIS7_ENSt8__detail10_Select1stESt8equal_toIiESt4hashIiENS9_18_Mod_range_hashingENS9_20_Default_ranged_hashENS9_20_Prime_rehash_policyENS9_17_Hashtable_traitsILb0ELb0ELb1EEEE20_M_get_previous_nodeEmPNS9_15_Hash_node_baseE
0000000000147f10 W _ZNSt10_HashtableIiSt4pairIKiPN2us3gov6socket6clientEESaIS7_ENSt8__detail10_Select1stESt8equal_toIiESt4hashIiENS9_18_Mod_range_hashingENS9_20_Default_ranged_hashENS9_20_Prime_rehash_policyENS9_17_Hashtable_traitsILb0ELb0ELb1EEEE21_M_deallocate_bucketsEPPNS9_15_Hash_node_baseEm
00000000001466dc W _ZNSt10_HashtableIiSt4pairIKiPN2us3gov6socket6clientEESaIS7_ENSt8__detail10_Select1stESt8equal_toIiESt4hashIiENS9_18_Mod_range_hashingENS9_20_Default_ranged_hashENS9_20_Prime_rehash_policyENS9_17_Hashtable_traitsILb0ELb0ELb1EEEE21_M_deallocate_bucketsEv
000000000014ba04 W _ZNSt10_HashtableIiSt4pairIKiPN2us3gov6socket6clientEESaIS7_ENSt8__detail10_Select1stESt8equal_toIiESt4hashIiENS9_18_Mod_range_hashingENS9_20_Default_ranged_hashENS9_20_Prime_rehash_policyENS9_17_Hashtable_traitsILb0ELb0ELb1EEEE21_M_insert_unique_nodeEmmPNS9_10_Hash_nodeIS7_Lb0EEE
000000000014d762 W _ZNSt10_HashtableIiSt4pairIKiPN2us3gov6socket6clientEESaIS7_ENSt8__detail10_Select1stESt8equal_toIiESt4hashIiENS9_18_Mod_range_hashingENS9_20_Default_ranged_hashENS9_20_Prime_rehash_policyENS9_17_Hashtable_traitsILb0ELb0ELb1EEEE22_M_insert_bucket_beginEmPNS9_10_Hash_nodeIS7_Lb0EEE
000000000014d55c W _ZNSt10_HashtableIiSt4pairIKiPN2us3gov6socket6clientEESaIS7_ENSt8__detail10_Select1stESt8equal_toIiESt4hashIiENS9_18_Mod_range_hashingENS9_20_Default_ranged_hashENS9_20_Prime_rehash_policyENS9_17_Hashtable_traitsILb0ELb0ELb1EEEE22_M_remove_bucket_beginEmPNS9_10_Hash_nodeIS7_Lb0EEEm
0000000000146be2 W _ZNSt10_HashtableIiSt4pairIKiPN2us3gov6socket6clientEESaIS7_ENSt8__detail10_Select1stESt8equal_toIiESt4hashIiENS9_18_Mod_range_hashingENS9_20_Default_ranged_hashENS9_20_Prime_rehash_policyENS9_17_Hashtable_traitsILb0ELb0ELb1EEEE3endEv
0000000000146b52 W _ZNSt10_HashtableIiSt4pairIKiPN2us3gov6socket6clientEESaIS7_ENSt8__detail10_Select1stESt8equal_toIiESt4hashIiENS9_18_Mod_range_hashingENS9_20_Default_ranged_hashENS9_20_Prime_rehash_policyENS9_17_Hashtable_traitsILb0ELb0ELb1EEEE4findERS1_
0000000000147f58 W _ZNSt10_HashtableIiSt4pairIKiPN2us3gov6socket6clientEESaIS7_ENSt8__detail10_Select1stESt8equal_toIiESt4hashIiENS9_18_Mod_range_hashingENS9_20_Default_ranged_hashENS9_20_Prime_rehash_policyENS9_17_Hashtable_traitsILb0ELb0ELb1EEEE5beginEv
0000000000146672 W _ZNSt10_HashtableIiSt4pairIKiPN2us3gov6socket6clientEESaIS7_ENSt8__detail10_Select1stESt8equal_toIiESt4hashIiENS9_18_Mod_range_hashingENS9_20_Default_ranged_hashENS9_20_Prime_rehash_policyENS9_17_Hashtable_traitsILb0ELb0ELb1EEEE5clearEv
0000000000146cd8 W _ZNSt10_HashtableIiSt4pairIKiPN2us3gov6socket6clientEESaIS7_ENSt8__detail10_Select1stESt8equal_toIiESt4hashIiENS9_18_Mod_range_hashingENS9_20_Default_ranged_hashENS9_20_Prime_rehash_policyENS9_17_Hashtable_traitsILb0ELb0ELb1EEEE5eraseENS9_14_Node_iteratorIS7_Lb0ELb0EEE
0000000000149554 W _ZNSt10_HashtableIiSt4pairIKiPN2us3gov6socket6clientEESaIS7_ENSt8__detail10_Select1stESt8equal_toIiESt4hashIiENS9_18_Mod_range_hashingENS9_20_Default_ranged_hashENS9_20_Prime_rehash_policyENS9_17_Hashtable_traitsILb0ELb0ELb1EEEE5eraseENS9_20_Node_const_iteratorIS7_Lb0ELb0EEE
0000000000146d2c W _ZNSt10_HashtableIiSt4pairIKiPN2us3gov6socket6clientEESaIS7_ENSt8__detail10_Select1stESt8equal_toIiESt4hashIiENS9_18_Mod_range_hashingENS9_20_Default_ranged_hashENS9_20_Prime_rehash_policyENS9_17_Hashtable_traitsILb0ELb0ELb1EEEE7emplaceIJRiRS6_EEES0_INS9_14_Node_iteratorIS7_Lb0ELb0EEEbEDpOT_
000000000014b70a W _ZNSt10_HashtableIiSt4pairIKiPN2us3gov6socket6clientEESaIS7_ENSt8__detail10_Select1stESt8equal_toIiESt4hashIiENS9_18_Mod_range_hashingENS9_20_Default_ranged_hashENS9_20_Prime_rehash_policyENS9_17_Hashtable_traitsILb0ELb0ELb1EEEE8_M_eraseEmPNS9_15_Hash_node_baseEPNS9_10_Hash_nodeIS7_Lb0EEE
0000000000147ad6 W _ZNSt10_HashtableIiSt4pairIKiPN2us3gov6socket6clientEESaIS7_ENSt8__detail10_Select1stESt8equal_toIiESt4hashIiENS9_18_Mod_range_hashingENS9_20_Default_ranged_hashENS9_20_Prime_rehash_policyENS9_17_Hashtable_traitsILb0ELb0ELb1EEEE8_M_resetEv
0000000000147d2c W _ZNSt10_HashtableIiSt4pairIKiPN2us3gov6socket6clientEESaIS7_ENSt8__detail10_Select1stESt8equal_toIiESt4hashIiENS9_18_Mod_range_hashingENS9_20_Default_ranged_hashENS9_20_Prime_rehash_policyENS9_17_Hashtable_traitsILb0ELb0ELb1EEEE9_M_assignIZNSK_aSERKSK_EUlPKNS9_10_Hash_nodeIS7_Lb0EEEE0_EEvSN_RKT_
00000000001478f2 W _ZNSt10_HashtableIiSt4pairIKiPN2us3gov6socket6clientEESaIS7_ENSt8__detail10_Select1stESt8equal_toIiESt4hashIiENS9_18_Mod_range_hashingENS9_20_Default_ranged_hashENS9_20_Prime_rehash_policyENS9_17_Hashtable_traitsILb0ELb0ELb1EEEE9_M_assignIZNSK_aSERKSK_EUlPKNS9_10_Hash_nodeIS7_Lb0EEEE_EEvSN_RKT_
000000000014d6da W _ZNSt10_HashtableIiSt4pairIKiPN2us3gov6socket6clientEESaIS7_ENSt8__detail10_Select1stESt8equal_toIiESt4hashIiENS9_18_Mod_range_hashingENS9_20_Default_ranged_hashENS9_20_Prime_rehash_policyENS9_17_Hashtable_traitsILb0ELb0ELb1EEEE9_M_rehashEmRKm
00000000001457f4 W _ZNSt10_HashtableIiSt4pairIKiPN2us3gov6socket6clientEESaIS7_ENSt8__detail10_Select1stESt8equal_toIiESt4hashIiENS9_18_Mod_range_hashingENS9_20_Default_ranged_hashENS9_20_Prime_rehash_policyENS9_17_Hashtable_traitsILb0ELb0ELb1EEEEaSERKSK_
00000000001446e6 W _ZNSt10_HashtableIiSt4pairIKiPN2us3gov6socket6clientEESaIS7_ENSt8__detail10_Select1stESt8equal_toIiESt4hashIiENS9_18_Mod_range_hashingENS9_20_Default_ranged_hashENS9_20_Prime_rehash_policyENS9_17_Hashtable_traitsILb0ELb0ELb1EEEEC1Ev
00000000001446e6 W _ZNSt10_HashtableIiSt4pairIKiPN2us3gov6socket6clientEESaIS7_ENSt8__detail10_Select1stESt8equal_toIiESt4hashIiENS9_18_Mod_range_hashingENS9_20_Default_ranged_hashENS9_20_Prime_rehash_policyENS9_17_Hashtable_traitsILb0ELb0ELb1EEEEC2Ev
0000000000144d84 W _ZNSt10_HashtableIiSt4pairIKiPN2us3gov6socket6clientEESaIS7_ENSt8__detail10_Select1stESt8equal_toIiESt4hashIiENS9_18_Mod_range_hashingENS9_20_Default_ranged_hashENS9_20_Prime_rehash_policyENS9_17_Hashtable_traitsILb0ELb0ELb1EEEED1Ev
0000000000144d84 W _ZNSt10_HashtableIiSt4pairIKiPN2us3gov6socket6clientEESaIS7_ENSt8__detail10_Select1stESt8equal_toIiESt4hashIiENS9_18_Mod_range_hashingENS9_20_Default_ranged_hashENS9_20_Prime_rehash_policyENS9_17_Hashtable_traitsILb0ELb0ELb1EEEED2Ev
000000000019486c W _ZNSt10_HashtableIN2us3gov4cash3app11local_deltaESt4pairIKS4_mESaIS7_ENSt8__detail10_Select1stESt8equal_toIS4_ESt4hashIS4_ENS9_18_Mod_range_hashingENS9_20_Default_ranged_hashENS9_20_Prime_rehash_policyENS9_17_Hashtable_traitsILb1ELb0ELb1EEEE10_M_emplaceIJRS6_iEEES5_INS9_14_Node_iteratorIS7_Lb0ELb1EEEbESt17integral_constantIbLb1EEDpOT_
000000000019668e W _ZNSt10_HashtableIN2us3gov4cash3app11local_deltaESt4pairIKS4_mESaIS7_ENSt8__detail10_Select1stESt8equal_toIS4_ESt4hashIS4_ENS9_18_Mod_range_hashingENS9_20_Default_ranged_hashENS9_20_Prime_rehash_policyENS9_17_Hashtable_traitsILb1ELb0ELb1EEEE13_M_rehash_auxEmSt17integral_constantIbLb1EE
0000000000196b04 W _ZNSt10_HashtableIN2us3gov4cash3app11local_deltaESt4pairIKS4_mESaIS7_ENSt8__detail10_Select1stESt8equal_toIS4_ESt4hashIS4_ENS9_18_Mod_range_hashingENS9_20_Default_ranged_hashENS9_20_Prime_rehash_policyENS9_17_Hashtable_traitsILb1ELb0ELb1EEEE19_M_allocate_bucketsEm
0000000000193b1e W _ZNSt10_HashtableIN2us3gov4cash3app11local_deltaESt4pairIKS4_mESaIS7_ENSt8__detail10_Select1stESt8equal_toIS4_ESt4hashIS4_ENS9_18_Mod_range_hashingENS9_20_Default_ranged_hashENS9_20_Prime_rehash_policyENS9_17_Hashtable_traitsILb1ELb0ELb1EEEE21_M_deallocate_bucketsEPPNS9_15_Hash_node_baseEm
0000000000192b60 W _ZNSt10_HashtableIN2us3gov4cash3app11local_deltaESt4pairIKS4_mESaIS7_ENSt8__detail10_Select1stESt8equal_toIS4_ESt4hashIS4_ENS9_18_Mod_range_hashingENS9_20_Default_ranged_hashENS9_20_Prime_rehash_policyENS9_17_Hashtable_traitsILb1ELb0ELb1EEEE21_M_deallocate_bucketsEv
0000000000195542 W _ZNSt10_HashtableIN2us3gov4cash3app11local_deltaESt4pairIKS4_mESaIS7_ENSt8__detail10_Select1stESt8equal_toIS4_ESt4hashIS4_ENS9_18_Mod_range_hashingENS9_20_Default_ranged_hashENS9_20_Prime_rehash_policyENS9_17_Hashtable_traitsILb1ELb0ELb1EEEE21_M_insert_unique_nodeEmmPNS9_10_Hash_nodeIS7_Lb1EEE
00000000001960c8 W _ZNSt10_HashtableIN2us3gov4cash3app11local_deltaESt4pairIKS4_mESaIS7_ENSt8__detail10_Select1stESt8equal_toIS4_ESt4hashIS4_ENS9_18_Mod_range_hashingENS9_20_Default_ranged_hashENS9_20_Prime_rehash_policyENS9_17_Hashtable_traitsILb1ELb0ELb1EEEE22_M_insert_bucket_beginEmPNS9_10_Hash_nodeIS7_Lb1EEE
00000000001939a8 W _ZNSt10_HashtableIN2us3gov4cash3app11local_deltaESt4pairIKS4_mESaIS7_ENSt8__detail10_Select1stESt8equal_toIS4_ESt4hashIS4_ENS9_18_Mod_range_hashingENS9_20_Default_ranged_hashENS9_20_Prime_rehash_policyENS9_17_Hashtable_traitsILb1ELb0ELb1EEEE3endEv
0000000000193918 W _ZNSt10_HashtableIN2us3gov4cash3app11local_deltaESt4pairIKS4_mESaIS7_ENSt8__detail10_Select1stESt8equal_toIS4_ESt4hashIS4_ENS9_18_Mod_range_hashingENS9_20_Default_ranged_hashENS9_20_Prime_rehash_policyENS9_17_Hashtable_traitsILb1ELb0ELb1EEEE4findERS6_
0000000000193a52 W _ZNSt10_HashtableIN2us3gov4cash3app11local_deltaESt4pairIKS4_mESaIS7_ENSt8__detail10_Select1stESt8equal_toIS4_ESt4hashIS4_ENS9_18_Mod_range_hashingENS9_20_Default_ranged_hashENS9_20_Prime_rehash_policyENS9_17_Hashtable_traitsILb1ELb0ELb1EEEE5beginEv
0000000000192af6 W _ZNSt10_HashtableIN2us3gov4cash3app11local_deltaESt4pairIKS4_mESaIS7_ENSt8__detail10_Select1stESt8equal_toIS4_ESt4hashIS4_ENS9_18_Mod_range_hashingENS9_20_Default_ranged_hashENS9_20_Prime_rehash_policyENS9_17_Hashtable_traitsILb1ELb0ELb1EEEE5clearEv
00000000001939f8 W _ZNSt10_HashtableIN2us3gov4cash3app11local_deltaESt4pairIKS4_mESaIS7_ENSt8__detail10_Select1stESt8equal_toIS4_ESt4hashIS4_ENS9_18_Mod_range_hashingENS9_20_Default_ranged_hashENS9_20_Prime_rehash_policyENS9_17_Hashtable_traitsILb1ELb0ELb1EEEE7emplaceIJRS6_iEEES5_INS9_14_Node_iteratorIS7_Lb0ELb1EEEbEDpOT_
0000000000196034 W _ZNSt10_HashtableIN2us3gov4cash3app11local_deltaESt4pairIKS4_mESaIS7_ENSt8__detail10_Select1stESt8equal_toIS4_ESt4hashIS4_ENS9_18_Mod_range_hashingENS9_20_Default_ranged_hashENS9_20_Prime_rehash_policyENS9_17_Hashtable_traitsILb1ELb0ELb1EEEE9_M_rehashEmRKm
0000000000190276 W _ZNSt10_HashtableIN2us3gov4cash3app11local_deltaESt4pairIKS4_mESaIS7_ENSt8__detail10_Select1stESt8equal_toIS4_ESt4hashIS4_ENS9_18_Mod_range_hashingENS9_20_Default_ranged_hashENS9_20_Prime_rehash_policyENS9_17_Hashtable_traitsILb1ELb0ELb1EEEEC1Ev
0000000000190276 W _ZNSt10_HashtableIN2us3gov4cash3app11local_deltaESt4pairIKS4_mESaIS7_ENSt8__detail10_Select1stESt8equal_toIS4_ESt4hashIS4_ENS9_18_Mod_range_hashingENS9_20_Default_ranged_hashENS9_20_Prime_rehash_policyENS9_17_Hashtable_traitsILb1ELb0ELb1EEEEC2Ev
0000000000191424 W _ZNSt10_HashtableIN2us3gov4cash3app11local_deltaESt4pairIKS4_mESaIS7_ENSt8__detail10_Select1stESt8equal_toIS4_ESt4hashIS4_ENS9_18_Mod_range_hashingENS9_20_Default_ranged_hashENS9_20_Prime_rehash_policyENS9_17_Hashtable_traitsILb1ELb0ELb1EEEED1Ev
0000000000191424 W _ZNSt10_HashtableIN2us3gov4cash3app11local_deltaESt4pairIKS4_mESaIS7_ENSt8__detail10_Select1stESt8equal_toIS4_ESt4hashIS4_ENS9_18_Mod_range_hashingENS9_20_Default_ranged_hashENS9_20_Prime_rehash_policyENS9_17_Hashtable_traitsILb1ELb0ELb1EEEED2Ev
000000000015edfc W _ZNSt10_HashtableIN2us3gov6crypto9ripemd16010value_typeES4_SaIS4_ENSt8__detail9_IdentityESt8equal_toIS4_ESt4hashIS4_ENS6_18_Mod_range_hashingENS6_20_Default_ranged_hashENS6_20_Prime_rehash_policyENS6_17_Hashtable_traitsILb1ELb1ELb1EEEE10_M_emplaceIJRS4_EEESt4pairINS6_14_Node_iteratorIS4_Lb1ELb1EEEbESt17integral_constantIbLb1EEDpOT_
000000000016118e W _ZNSt10_HashtableIN2us3gov6crypto9ripemd16010value_typeES4_SaIS4_ENSt8__detail9_IdentityESt8equal_toIS4_ESt4hashIS4_ENS6_18_Mod_range_hashingENS6_20_Default_ranged_hashENS6_20_Prime_rehash_policyENS6_17_Hashtable_traitsILb1ELb1ELb1EEEE13_M_rehash_auxEmSt17integral_constantIbLb1EE
000000000016176a W _ZNSt10_HashtableIN2us3gov6crypto9ripemd16010value_typeES4_SaIS4_ENSt8__detail9_IdentityESt8equal_toIS4_ESt4hashIS4_ENS6_18_Mod_range_hashingENS6_20_Default_ranged_hashENS6_20_Prime_rehash_policyENS6_17_Hashtable_traitsILb1ELb1ELb1EEEE19_M_allocate_bucketsEm
000000000015e9dc W _ZNSt10_HashtableIN2us3gov6crypto9ripemd16010value_typeES4_SaIS4_ENSt8__detail9_IdentityESt8equal_toIS4_ESt4hashIS4_ENS6_18_Mod_range_hashingENS6_20_Default_ranged_hashENS6_20_Prime_rehash_policyENS6_17_Hashtable_traitsILb1ELb1ELb1EEEE21_M_deallocate_bucketsEPPNS6_15_Hash_node_baseEm
000000000015db4e W _ZNSt10_HashtableIN2us3gov6crypto9ripemd16010value_typeES4_SaIS4_ENSt8__detail9_IdentityESt8equal_toIS4_ESt4hashIS4_ENS6_18_Mod_range_hashingENS6_20_Default_ranged_hashENS6_20_Prime_rehash_policyENS6_17_Hashtable_traitsILb1ELb1ELb1EEEE21_M_deallocate_bucketsEv
000000000015fd96 W _ZNSt10_HashtableIN2us3gov6crypto9ripemd16010value_typeES4_SaIS4_ENSt8__detail9_IdentityESt8equal_toIS4_ESt4hashIS4_ENS6_18_Mod_range_hashingENS6_20_Default_ranged_hashENS6_20_Prime_rehash_policyENS6_17_Hashtable_traitsILb1ELb1ELb1EEEE21_M_insert_unique_nodeEmmPNS6_10_Hash_nodeIS4_Lb1EEE
0000000000160a1a W _ZNSt10_HashtableIN2us3gov6crypto9ripemd16010value_typeES4_SaIS4_ENSt8__detail9_IdentityESt8equal_toIS4_ESt4hashIS4_ENS6_18_Mod_range_hashingENS6_20_Default_ranged_hashENS6_20_Prime_rehash_policyENS6_17_Hashtable_traitsILb1ELb1ELb1EEEE22_M_insert_bucket_beginEmPNS6_10_Hash_nodeIS4_Lb1EEE
000000000015dfd6 W _ZNSt10_HashtableIN2us3gov6crypto9ripemd16010value_typeES4_SaIS4_ENSt8__detail9_IdentityESt8equal_toIS4_ESt4hashIS4_ENS6_18_Mod_range_hashingENS6_20_Default_ranged_hashENS6_20_Prime_rehash_policyENS6_17_Hashtable_traitsILb1ELb1ELb1EEEE3endEv
000000000015df46 W _ZNSt10_HashtableIN2us3gov6crypto9ripemd16010value_typeES4_SaIS4_ENSt8__detail9_IdentityESt8equal_toIS4_ESt4hashIS4_ENS6_18_Mod_range_hashingENS6_20_Default_ranged_hashENS6_20_Prime_rehash_policyENS6_17_Hashtable_traitsILb1ELb1ELb1EEEE4findERKS4_
000000000015dae4 W _ZNSt10_HashtableIN2us3gov6crypto9ripemd16010value_typeES4_SaIS4_ENSt8__detail9_IdentityESt8equal_toIS4_ESt4hashIS4_ENS6_18_Mod_range_hashingENS6_20_Default_ranged_hashENS6_20_Prime_rehash_policyENS6_17_Hashtable_traitsILb1ELb1ELb1EEEE5clearEv
000000000015e008 W _ZNSt10_HashtableIN2us3gov6crypto9ripemd16010value_typeES4_SaIS4_ENSt8__detail9_IdentityESt8equal_toIS4_ESt4hashIS4_ENS6_18_Mod_range_hashingENS6_20_Default_ranged_hashENS6_20_Prime_rehash_policyENS6_17_Hashtable_traitsILb1ELb1ELb1EEEE7emplaceIJRS4_EEESt4pairINS6_14_Node_iteratorIS4_Lb1ELb1EEEbEDpOT_
0000000000160986 W _ZNSt10_HashtableIN2us3gov6crypto9ripemd16010value_typeES4_SaIS4_ENSt8__detail9_IdentityESt8equal_toIS4_ESt4hashIS4_ENS6_18_Mod_range_hashingENS6_20_Default_ranged_hashENS6_20_Prime_rehash_policyENS6_17_Hashtable_traitsILb1ELb1ELb1EEEE9_M_rehashEmRKm
000000000015cbfc W _ZNSt10_HashtableIN2us3gov6crypto9ripemd16010value_typeES4_SaIS4_ENSt8__detail9_IdentityESt8equal_toIS4_ESt4hashIS4_ENS6_18_Mod_range_hashingENS6_20_Default_ranged_hashENS6_20_Prime_rehash_policyENS6_17_Hashtable_traitsILb1ELb1ELb1EEEEC1Ev
000000000015cbfc W _ZNSt10_HashtableIN2us3gov6crypto9ripemd16010value_typeES4_SaIS4_ENSt8__detail9_IdentityESt8equal_toIS4_ESt4hashIS4_ENS6_18_Mod_range_hashingENS6_20_Default_ranged_hashENS6_20_Prime_rehash_policyENS6_17_Hashtable_traitsILb1ELb1ELb1EEEEC2Ev
000000000015d004 W _ZNSt10_HashtableIN2us3gov6crypto9ripemd16010value_typeES4_SaIS4_ENSt8__detail9_IdentityESt8equal_toIS4_ESt4hashIS4_ENS6_18_Mod_range_hashingENS6_20_Default_ranged_hashENS6_20_Prime_rehash_policyENS6_17_Hashtable_traitsILb1ELb1ELb1EEEED1Ev
000000000015d004 W _ZNSt10_HashtableIN2us3gov6crypto9ripemd16010value_typeES4_SaIS4_ENSt8__detail9_IdentityESt8equal_toIS4_ESt4hashIS4_ENS6_18_Mod_range_hashingENS6_20_Default_ranged_hashENS6_20_Prime_rehash_policyENS6_17_Hashtable_traitsILb1ELb1ELb1EEEED2Ev
0000000000184784 W _ZNSt10_HashtableIN2us3gov6crypto9ripemd16010value_typeESt4pairIKS4_mESaIS7_ENSt8__detail10_Select1stESt8equal_toIS4_ESt4hashIS4_ENS9_18_Mod_range_hashingENS9_20_Default_ranged_hashENS9_20_Prime_rehash_policyENS9_17_Hashtable_traitsILb1ELb0ELb1EEEE10_M_emplaceIJRS6_iEEES5_INS9_14_Node_iteratorIS7_Lb0ELb1EEEbESt17integral_constantIbLb1EEDpOT_
00000000001853d4 W _ZNSt10_HashtableIN2us3gov6crypto9ripemd16010value_typeESt4pairIKS4_mESaIS7_ENSt8__detail10_Select1stESt8equal_toIS4_ESt4hashIS4_ENS9_18_Mod_range_hashingENS9_20_Default_ranged_hashENS9_20_Prime_rehash_policyENS9_17_Hashtable_traitsILb1ELb0ELb1EEEE13_M_rehash_auxEmSt17integral_constantIbLb1EE
000000000018555e W _ZNSt10_HashtableIN2us3gov6crypto9ripemd16010value_typeESt4pairIKS4_mESaIS7_ENSt8__detail10_Select1stESt8equal_toIS4_ESt4hashIS4_ENS9_18_Mod_range_hashingENS9_20_Default_ranged_hashENS9_20_Prime_rehash_policyENS9_17_Hashtable_traitsILb1ELb0ELb1EEEE19_M_allocate_bucketsEm
00000000001843c4 W _ZNSt10_HashtableIN2us3gov6crypto9ripemd16010value_typeESt4pairIKS4_mESaIS7_ENSt8__detail10_Select1stESt8equal_toIS4_ESt4hashIS4_ENS9_18_Mod_range_hashingENS9_20_Default_ranged_hashENS9_20_Prime_rehash_policyENS9_17_Hashtable_traitsILb1ELb0ELb1EEEE21_M_deallocate_bucketsEPPNS9_15_Hash_node_baseEm
0000000000184254 W _ZNSt10_HashtableIN2us3gov6crypto9ripemd16010value_typeESt4pairIKS4_mESaIS7_ENSt8__detail10_Select1stESt8equal_toIS4_ESt4hashIS4_ENS9_18_Mod_range_hashingENS9_20_Default_ranged_hashENS9_20_Prime_rehash_policyENS9_17_Hashtable_traitsILb1ELb0ELb1EEEE21_M_deallocate_bucketsEv
0000000000184d3e W _ZNSt10_HashtableIN2us3gov6crypto9ripemd16010value_typeESt4pairIKS4_mESaIS7_ENSt8__detail10_Select1stESt8equal_toIS4_ESt4hashIS4_ENS9_18_Mod_range_hashingENS9_20_Default_ranged_hashENS9_20_Prime_rehash_policyENS9_17_Hashtable_traitsILb1ELb0ELb1EEEE21_M_insert_unique_nodeEmmPNS9_10_Hash_nodeIS7_Lb1EEE
0000000000185148 W _ZNSt10_HashtableIN2us3gov6crypto9ripemd16010value_typeESt4pairIKS4_mESaIS7_ENSt8__detail10_Select1stESt8equal_toIS4_ESt4hashIS4_ENS9_18_Mod_range_hashingENS9_20_Default_ranged_hashENS9_20_Prime_rehash_policyENS9_17_Hashtable_traitsILb1ELb0ELb1EEEE22_M_insert_bucket_beginEmPNS9_10_Hash_nodeIS7_Lb1EEE
000000000018449c W _ZNSt10_HashtableIN2us3gov6crypto9ripemd16010value_typeESt4pairIKS4_mESaIS7_ENSt8__detail10_Select1stESt8equal_toIS4_ESt4hashIS4_ENS9_18_Mod_range_hashingENS9_20_Default_ranged_hashENS9_20_Prime_rehash_policyENS9_17_Hashtable_traitsILb1ELb0ELb1EEEE3endEv
000000000018440c W _ZNSt10_HashtableIN2us3gov6crypto9ripemd16010value_typeESt4pairIKS4_mESaIS7_ENSt8__detail10_Select1stESt8equal_toIS4_ESt4hashIS4_ENS9_18_Mod_range_hashingENS9_20_Default_ranged_hashENS9_20_Prime_rehash_policyENS9_17_Hashtable_traitsILb1ELb0ELb1EEEE4findERS6_
0000000000185a40 W _ZNSt10_HashtableIN2us3gov6crypto9ripemd16010value_typeESt4pairIKS4_mESaIS7_ENSt8__detail10_Select1stESt8equal_toIS4_ESt4hashIS4_ENS9_18_Mod_range_hashingENS9_20_Default_ranged_hashENS9_20_Prime_rehash_policyENS9_17_Hashtable_traitsILb1ELb0ELb1EEEE5beginEv
00000000001841ea W _ZNSt10_HashtableIN2us3gov6crypto9ripemd16010value_typeESt4pairIKS4_mESaIS7_ENSt8__detail10_Select1stESt8equal_toIS4_ESt4hashIS4_ENS9_18_Mod_range_hashingENS9_20_Default_ranged_hashENS9_20_Prime_rehash_policyENS9_17_Hashtable_traitsILb1ELb0ELb1EEEE5clearEv
00000000001844de W _ZNSt10_HashtableIN2us3gov6crypto9ripemd16010value_typeESt4pairIKS4_mESaIS7_ENSt8__detail10_Select1stESt8equal_toIS4_ESt4hashIS4_ENS9_18_Mod_range_hashingENS9_20_Default_ranged_hashENS9_20_Prime_rehash_policyENS9_17_Hashtable_traitsILb1ELb0ELb1EEEE7emplaceIJRS6_iEEES5_INS9_14_Node_iteratorIS7_Lb0ELb1EEEbEDpOT_
00000000001850b4 W _ZNSt10_HashtableIN2us3gov6crypto9ripemd16010value_typeESt4pairIKS4_mESaIS7_ENSt8__detail10_Select1stESt8equal_toIS4_ESt4hashIS4_ENS9_18_Mod_range_hashingENS9_20_Default_ranged_hashENS9_20_Prime_rehash_policyENS9_17_Hashtable_traitsILb1ELb0ELb1EEEE9_M_rehashEmRKm
0000000000183d5e W _ZNSt10_HashtableIN2us3gov6crypto9ripemd16010value_typeESt4pairIKS4_mESaIS7_ENSt8__detail10_Select1stESt8equal_toIS4_ESt4hashIS4_ENS9_18_Mod_range_hashingENS9_20_Default_ranged_hashENS9_20_Prime_rehash_policyENS9_17_Hashtable_traitsILb1ELb0ELb1EEEEC1Ev
0000000000183d5e W _ZNSt10_HashtableIN2us3gov6crypto9ripemd16010value_typeESt4pairIKS4_mESaIS7_ENSt8__detail10_Select1stESt8equal_toIS4_ESt4hashIS4_ENS9_18_Mod_range_hashingENS9_20_Default_ranged_hashENS9_20_Prime_rehash_policyENS9_17_Hashtable_traitsILb1ELb0ELb1EEEEC2Ev
0000000000198566 W _ZNSt10_HashtableIN2us3gov6crypto9ripemd16010value_typeESt4pairIKS4_mESaIS7_ENSt8__detail10_Select1stESt8equal_toIS4_ESt4hashIS4_ENS9_18_Mod_range_hashingENS9_20_Default_ranged_hashENS9_20_Prime_rehash_policyENS9_17_Hashtable_traitsILb1ELb0ELb1EEEED1Ev
0000000000198566 W _ZNSt10_HashtableIN2us3gov6crypto9ripemd16010value_typeESt4pairIKS4_mESaIS7_ENSt8__detail10_Select1stESt8equal_toIS4_ESt4hashIS4_ENS9_18_Mod_range_hashingENS9_20_Default_ranged_hashENS9_20_Prime_rehash_policyENS9_17_Hashtable_traitsILb1ELb0ELb1EEEED2Ev
00000000001936e6 W _ZNSt10_HashtableIN2us3gov6crypto9ripemd16010value_typeESt4pairIKS4_NS1_4cash3app11local_delta9account_tEESaISB_ENSt8__detail10_Select1stESt8equal_toIS4_ESt4hashIS4_ENSD_18_Mod_range_hashingENSD_20_Default_ranged_hashENSD_20_Prime_rehash_policyENSD_17_Hashtable_traitsILb1ELb0ELb1EEEE10_M_emplaceIJRS6_RKSA_EEES5_INSD_14_Node_iteratorISB_Lb0ELb1EEEbESt17integral_constantIbLb1EEDpOT_
0000000000195c2e W _ZNSt10_HashtableIN2us3gov6crypto9ripemd16010value_typeESt4pairIKS4_NS1_4cash3app11local_delta9account_tEESaISB_ENSt8__detail10_Select1stESt8equal_toIS4_ESt4hashIS4_ENSD_18_Mod_range_hashingENSD_20_Default_ranged_hashENSD_20_Prime_rehash_policyENSD_17_Hashtable_traitsILb1ELb0ELb1EEEE13_M_rehash_auxEmSt17integral_constantIbLb1EE
000000000019641a W _ZNSt10_HashtableIN2us3gov6crypto9ripemd16010value_typeESt4pairIKS4_NS1_4cash3app11local_delta9account_tEESaISB_ENSt8__detail10_Select1stESt8equal_toIS4_ESt4hashIS4_ENSD_18_Mod_range_hashingENSD_20_Default_ranged_hashENSD_20_Prime_rehash_policyENSD_17_Hashtable_traitsILb1ELb0ELb1EEEE19_M_allocate_bucketsEm
00000000001933cc W _ZNSt10_HashtableIN2us3gov6crypto9ripemd16010value_typeESt4pairIKS4_NS1_4cash3app11local_delta9account_tEESaISB_ENSt8__detail10_Select1stESt8equal_toIS4_ESt4hashIS4_ENSD_18_Mod_range_hashingENSD_20_Default_ranged_hashENSD_20_Prime_rehash_policyENSD_17_Hashtable_traitsILb1ELb0ELb1EEEE21_M_deallocate_bucketsEPPNSD_15_Hash_node_baseEm
000000000019200e W _ZNSt10_HashtableIN2us3gov6crypto9ripemd16010value_typeESt4pairIKS4_NS1_4cash3app11local_delta9account_tEESaISB_ENSt8__detail10_Select1stESt8equal_toIS4_ESt4hashIS4_ENSD_18_Mod_range_hashingENSD_20_Default_ranged_hashENSD_20_Prime_rehash_policyENSD_17_Hashtable_traitsILb1ELb0ELb1EEEE21_M_deallocate_bucketsEv
00000000001944ce W _ZNSt10_HashtableIN2us3gov6crypto9ripemd16010value_typeESt4pairIKS4_NS1_4cash3app11local_delta9account_tEESaISB_ENSt8__detail10_Select1stESt8equal_toIS4_ESt4hashIS4_ENSD_18_Mod_range_hashingENSD_20_Default_ranged_hashENSD_20_Prime_rehash_policyENSD_17_Hashtable_traitsILb1ELb0ELb1EEEE21_M_insert_unique_nodeEmmPNSD_10_Hash_nodeISB_Lb1EEE
0000000000195080 W _ZNSt10_HashtableIN2us3gov6crypto9ripemd16010value_typeESt4pairIKS4_NS1_4cash3app11local_delta9account_tEESaISB_ENSt8__detail10_Select1stESt8equal_toIS4_ESt4hashIS4_ENSD_18_Mod_range_hashingENSD_20_Default_ranged_hashENSD_20_Prime_rehash_policyENSD_17_Hashtable_traitsILb1ELb0ELb1EEEE22_M_insert_bucket_beginEmPNSD_10_Hash_nodeISB_Lb1EEE
0000000000192620 W _ZNSt10_HashtableIN2us3gov6crypto9ripemd16010value_typeESt4pairIKS4_NS1_4cash3app11local_delta9account_tEESaISB_ENSt8__detail10_Select1stESt8equal_toIS4_ESt4hashIS4_ENSD_18_Mod_range_hashingENSD_20_Default_ranged_hashENSD_20_Prime_rehash_policyENSD_17_Hashtable_traitsILb1ELb0ELb1EEEE3endEv
0000000000192590 W _ZNSt10_HashtableIN2us3gov6crypto9ripemd16010value_typeESt4pairIKS4_NS1_4cash3app11local_delta9account_tEESaISB_ENSt8__detail10_Select1stESt8equal_toIS4_ESt4hashIS4_ENSD_18_Mod_range_hashingENSD_20_Default_ranged_hashENSD_20_Prime_rehash_policyENSD_17_Hashtable_traitsILb1ELb0ELb1EEEE4findERS6_
0000000000191fa4 W _ZNSt10_HashtableIN2us3gov6crypto9ripemd16010value_typeESt4pairIKS4_NS1_4cash3app11local_delta9account_tEESaISB_ENSt8__detail10_Select1stESt8equal_toIS4_ESt4hashIS4_ENSD_18_Mod_range_hashingENSD_20_Default_ranged_hashENSD_20_Prime_rehash_policyENSD_17_Hashtable_traitsILb1ELb0ELb1EEEE5clearEv
0000000000192652 W _ZNSt10_HashtableIN2us3gov6crypto9ripemd16010value_typeESt4pairIKS4_NS1_4cash3app11local_delta9account_tEESaISB_ENSt8__detail10_Select1stESt8equal_toIS4_ESt4hashIS4_ENSD_18_Mod_range_hashingENSD_20_Default_ranged_hashENSD_20_Prime_rehash_policyENSD_17_Hashtable_traitsILb1ELb0ELb1EEEE7emplaceIJRS6_RKSA_EEES5_INSD_14_Node_iteratorISB_Lb0ELb1EEEbEDpOT_
0000000000194fec W _ZNSt10_HashtableIN2us3gov6crypto9ripemd16010value_typeESt4pairIKS4_NS1_4cash3app11local_delta9account_tEESaISB_ENSt8__detail10_Select1stESt8equal_toIS4_ESt4hashIS4_ENSD_18_Mod_range_hashingENSD_20_Default_ranged_hashENSD_20_Prime_rehash_policyENSD_17_Hashtable_traitsILb1ELb0ELb1EEEE9_M_rehashEmRKm
000000000018ff00 W _ZNSt10_HashtableIN2us3gov6crypto9ripemd16010value_typeESt4pairIKS4_NS1_4cash3app11local_delta9account_tEESaISB_ENSt8__detail10_Select1stESt8equal_toIS4_ESt4hashIS4_ENSD_18_Mod_range_hashingENSD_20_Default_ranged_hashENSD_20_Prime_rehash_policyENSD_17_Hashtable_traitsILb1ELb0ELb1EEEEC1Ev
000000000018ff00 W _ZNSt10_HashtableIN2us3gov6crypto9ripemd16010value_typeESt4pairIKS4_NS1_4cash3app11local_delta9account_tEESaISB_ENSt8__detail10_Select1stESt8equal_toIS4_ESt4hashIS4_ENSD_18_Mod_range_hashingENSD_20_Default_ranged_hashENSD_20_Prime_rehash_policyENSD_17_Hashtable_traitsILb1ELb0ELb1EEEEC2Ev
0000000000190afa W _ZNSt10_HashtableIN2us3gov6crypto9ripemd16010value_typeESt4pairIKS4_NS1_4cash3app11local_delta9account_tEESaISB_ENSt8__detail10_Select1stESt8equal_toIS4_ESt4hashIS4_ENSD_18_Mod_range_hashingENSD_20_Default_ranged_hashENSD_20_Prime_rehash_policyENSD_17_Hashtable_traitsILb1ELb0ELb1EEEED1Ev
0000000000190afa W _ZNSt10_HashtableIN2us3gov6crypto9ripemd16010value_typeESt4pairIKS4_NS1_4cash3app11local_delta9account_tEESaISB_ENSt8__detail10_Select1stESt8equal_toIS4_ESt4hashIS4_ENSD_18_Mod_range_hashingENSD_20_Default_ranged_hashENSD_20_Prime_rehash_policyENSD_17_Hashtable_traitsILb1ELb0ELb1EEEED2Ev
0000000000176190 W _ZNSt10_HashtableIN2us3gov6crypto9ripemd16010value_typeESt4pairIKS4_NSt7__cxx1112basic_stringIcSt11char_traitsIcESaIcEEEESaISD_ENSt8__detail10_Select1stESt8equal_toIS4_ESt4hashIS4_ENSF_18_Mod_range_hashingENSF_20_Default_ranged_hashENSF_20_Prime_rehash_policyENSF_17_Hashtable_traitsILb1ELb0ELb1EEEE10_M_emplaceIJRKSD_EEES5_INSF_14_Node_iteratorISD_Lb0ELb1EEEbESt17integral_constantIbLb1EEDpOT_
0000000000175e54 W _ZNSt10_HashtableIN2us3gov6crypto9ripemd16010value_typeESt4pairIKS4_NSt7__cxx1112basic_stringIcSt11char_traitsIcESaIcEEEESaISD_ENSt8__detail10_Select1stESt8equal_toIS4_ESt4hashIS4_ENSF_18_Mod_range_hashingENSF_20_Default_ranged_hashENSF_20_Prime_rehash_policyENSF_17_Hashtable_traitsILb1ELb0ELb1EEEE10_M_emplaceIJRSD_EEES5_INSF_14_Node_iteratorISD_Lb0ELb1EEEbESt17integral_constantIbLb1EEDpOT_
0000000000178d46 W _ZNSt10_HashtableIN2us3gov6crypto9ripemd16010value_typeESt4pairIKS4_NSt7__cxx1112basic_stringIcSt11char_traitsIcESaIcEEEESaISD_ENSt8__detail10_Select1stESt8equal_toIS4_ESt4hashIS4_ENSF_18_Mod_range_hashingENSF_20_Default_ranged_hashENSF_20_Prime_rehash_policyENSF_17_Hashtable_traitsILb1ELb0ELb1EEEE13_M_rehash_auxEmSt17integral_constantIbLb1EE
000000000017927a W _ZNSt10_HashtableIN2us3gov6crypto9ripemd16010value_typeESt4pairIKS4_NSt7__cxx1112basic_stringIcSt11char_traitsIcESaIcEEEESaISD_ENSt8__detail10_Select1stESt8equal_toIS4_ESt4hashIS4_ENSF_18_Mod_range_hashingENSF_20_Default_ranged_hashENSF_20_Prime_rehash_policyENSF_17_Hashtable_traitsILb1ELb0ELb1EEEE19_M_allocate_bucketsEm
0000000000177438 W _ZNSt10_HashtableIN2us3gov6crypto9ripemd16010value_typeESt4pairIKS4_NSt7__cxx1112basic_stringIcSt11char_traitsIcESaIcEEEESaISD_ENSt8__detail10_Select1stESt8equal_toIS4_ESt4hashIS4_ENSF_18_Mod_range_hashingENSF_20_Default_ranged_hashENSF_20_Prime_rehash_policyENSF_17_Hashtable_traitsILb1ELb0ELb1EEEE20_M_get_previous_nodeEmPNSF_15_Hash_node_baseE
0000000000175778 W _ZNSt10_HashtableIN2us3gov6crypto9ripemd16010value_typeESt4pairIKS4_NSt7__cxx1112basic_stringIcSt11char_traitsIcESaIcEEEESaISD_ENSt8__detail10_Select1stESt8equal_toIS4_ESt4hashIS4_ENSF_18_Mod_range_hashingENSF_20_Default_ranged_hashENSF_20_Prime_rehash_policyENSF_17_Hashtable_traitsILb1ELb0ELb1EEEE21_M_deallocate_bucketsEPPNSF_15_Hash_node_baseEm
00000000001744b6 W _ZNSt10_HashtableIN2us3gov6crypto9ripemd16010value_typeESt4pairIKS4_NSt7__cxx1112basic_stringIcSt11char_traitsIcESaIcEEEESaISD_ENSt8__detail10_Select1stESt8equal_toIS4_ESt4hashIS4_ENSF_18_Mod_range_hashingENSF_20_Default_ranged_hashENSF_20_Prime_rehash_policyENSF_17_Hashtable_traitsILb1ELb0ELb1EEEE21_M_deallocate_bucketsEv
00000000001772b0 W _ZNSt10_HashtableIN2us3gov6crypto9ripemd16010value_typeESt4pairIKS4_NSt7__cxx1112basic_stringIcSt11char_traitsIcESaIcEEEESaISD_ENSt8__detail10_Select1stESt8equal_toIS4_ESt4hashIS4_ENSF_18_Mod_range_hashingENSF_20_Default_ranged_hashENSF_20_Prime_rehash_policyENSF_17_Hashtable_traitsILb1ELb0ELb1EEEE21_M_insert_unique_nodeEmmPNSF_10_Hash_nodeISD_Lb1EEE
00000000001783aa W _ZNSt10_HashtableIN2us3gov6crypto9ripemd16010value_typeESt4pairIKS4_NSt7__cxx1112basic_stringIcSt11char_traitsIcESaIcEEEESaISD_ENSt8__detail10_Select1stESt8equal_toIS4_ESt4hashIS4_ENSF_18_Mod_range_hashingENSF_20_Default_ranged_hashENSF_20_Prime_rehash_policyENSF_17_Hashtable_traitsILb1ELb0ELb1EEEE22_M_insert_bucket_beginEmPNSF_10_Hash_nodeISD_Lb1EEE
00000000001784d6 W _ZNSt10_HashtableIN2us3gov6crypto9ripemd16010value_typeESt4pairIKS4_NSt7__cxx1112basic_stringIcSt11char_traitsIcESaIcEEEESaISD_ENSt8__detail10_Select1stESt8equal_toIS4_ESt4hashIS4_ENSF_18_Mod_range_hashingENSF_20_Default_ranged_hashENSF_20_Prime_rehash_policyENSF_17_Hashtable_traitsILb1ELb0ELb1EEEE22_M_remove_bucket_beginEmPNSF_10_Hash_nodeISD_Lb1EEEm
0000000000174664 W _ZNSt10_HashtableIN2us3gov6crypto9ripemd16010value_typeESt4pairIKS4_NSt7__cxx1112basic_stringIcSt11char_traitsIcESaIcEEEESaISD_ENSt8__detail10_Select1stESt8equal_toIS4_ESt4hashIS4_ENSF_18_Mod_range_hashingENSF_20_Default_ranged_hashENSF_20_Prime_rehash_policyENSF_17_Hashtable_traitsILb1ELb0ELb1EEEE3endEv
00000000001745d4 W _ZNSt10_HashtableIN2us3gov6crypto9ripemd16010value_typeESt4pairIKS4_NSt7__cxx1112basic_stringIcSt11char_traitsIcESaIcEEEESaISD_ENSt8__detail10_Select1stESt8equal_toIS4_ESt4hashIS4_ENSF_18_Mod_range_hashingENSF_20_Default_ranged_hashENSF_20_Prime_rehash_policyENSF_17_Hashtable_traitsILb1ELb0ELb1EEEE4findERS6_
0000000000174900 W _ZNSt10_HashtableIN2us3gov6crypto9ripemd16010value_typeESt4pairIKS4_NSt7__cxx1112basic_stringIcSt11char_traitsIcESaIcEEEESaISD_ENSt8__detail10_Select1stESt8equal_toIS4_ESt4hashIS4_ENSF_18_Mod_range_hashingENSF_20_Default_ranged_hashENSF_20_Prime_rehash_policyENSF_17_Hashtable_traitsILb1ELb0ELb1EEEE5beginEv
000000000017444c W _ZNSt10_HashtableIN2us3gov6crypto9ripemd16010value_typeESt4pairIKS4_NSt7__cxx1112basic_stringIcSt11char_traitsIcESaIcEEEESaISD_ENSt8__detail10_Select1stESt8equal_toIS4_ESt4hashIS4_ENSF_18_Mod_range_hashingENSF_20_Default_ranged_hashENSF_20_Prime_rehash_policyENSF_17_Hashtable_traitsILb1ELb0ELb1EEEE5clearEv
0000000000174bf0 W _ZNSt10_HashtableIN2us3gov6crypto9ripemd16010value_typeESt4pairIKS4_NSt7__cxx1112basic_stringIcSt11char_traitsIcESaIcEEEESaISD_ENSt8__detail10_Select1stESt8equal_toIS4_ESt4hashIS4_ENSF_18_Mod_range_hashingENSF_20_Default_ranged_hashENSF_20_Prime_rehash_policyENSF_17_Hashtable_traitsILb1ELb0ELb1EEEE5eraseENSF_14_Node_iteratorISD_Lb0ELb1EEE
0000000000175fb4 W _ZNSt10_HashtableIN2us3gov6crypto9ripemd16010value_typeESt4pairIKS4_NSt7__cxx1112basic_stringIcSt11char_traitsIcESaIcEEEESaISD_ENSt8__detail10_Select1stESt8equal_toIS4_ESt4hashIS4_ENSF_18_Mod_range_hashingENSF_20_Default_ranged_hashENSF_20_Prime_rehash_policyENSF_17_Hashtable_traitsILb1ELb0ELb1EEEE5eraseENSF_20_Node_const_iteratorISD_Lb0ELb1EEE
0000000000175004 W _ZNSt10_HashtableIN2us3gov6crypto9ripemd16010value_typeESt4pairIKS4_NSt7__cxx1112basic_stringIcSt11char_traitsIcESaIcEEEESaISD_ENSt8__detail10_Select1stESt8equal_toIS4_ESt4hashIS4_ENSF_18_Mod_range_hashingENSF_20_Default_ranged_hashENSF_20_Prime_rehash_policyENSF_17_Hashtable_traitsILb1ELb0ELb1EEEE7emplaceIJRKSD_EEES5_INSF_14_Node_iteratorISD_Lb0ELb1EEEbEDpOT_
0000000000174bb2 W _ZNSt10_HashtableIN2us3gov6crypto9ripemd16010value_typeESt4pairIKS4_NSt7__cxx1112basic_stringIcSt11char_traitsIcESaIcEEEESaISD_ENSt8__detail10_Select1stESt8equal_toIS4_ESt4hashIS4_ENSF_18_Mod_range_hashingENSF_20_Default_ranged_hashENSF_20_Prime_rehash_policyENSF_17_Hashtable_traitsILb1ELb0ELb1EEEE7emplaceIJRSD_EEES5_INSF_14_Node_iteratorISD_Lb0ELb1EEEbEDpOT_
0000000000177482 W _ZNSt10_HashtableIN2us3gov6crypto9ripemd16010value_typeESt4pairIKS4_NSt7__cxx1112basic_stringIcSt11char_traitsIcESaIcEEEESaISD_ENSt8__detail10_Select1stESt8equal_toIS4_ESt4hashIS4_ENSF_18_Mod_range_hashingENSF_20_Default_ranged_hashENSF_20_Prime_rehash_policyENSF_17_Hashtable_traitsILb1ELb0ELb1EEEE8_M_eraseEmPNSF_15_Hash_node_baseEPNSF_10_Hash_nodeISD_Lb1EEE
0000000000178316 W _ZNSt10_HashtableIN2us3gov6crypto9ripemd16010value_typeESt4pairIKS4_NSt7__cxx1112basic_stringIcSt11char_traitsIcESaIcEEEESaISD_ENSt8__detail10_Select1stESt8equal_toIS4_ESt4hashIS4_ENSF_18_Mod_range_hashingENSF_20_Default_ranged_hashENSF_20_Prime_rehash_policyENSF_17_Hashtable_traitsILb1ELb0ELb1EEEE9_M_rehashEmRKm
0000000000172b2c W _ZNSt10_HashtableIN2us3gov6crypto9ripemd16010value_typeESt4pairIKS4_NSt7__cxx1112basic_stringIcSt11char_traitsIcESaIcEEEESaISD_ENSt8__detail10_Select1stESt8equal_toIS4_ESt4hashIS4_ENSF_18_Mod_range_hashingENSF_20_Default_ranged_hashENSF_20_Prime_rehash_policyENSF_17_Hashtable_traitsILb1ELb0ELb1EEEEC1Ev
0000000000172b2c W _ZNSt10_HashtableIN2us3gov6crypto9ripemd16010value_typeESt4pairIKS4_NSt7__cxx1112basic_stringIcSt11char_traitsIcESaIcEEEESaISD_ENSt8__detail10_Select1stESt8equal_toIS4_ESt4hashIS4_ENSF_18_Mod_range_hashingENSF_20_Default_ranged_hashENSF_20_Prime_rehash_policyENSF_17_Hashtable_traitsILb1ELb0ELb1EEEEC2Ev
0000000000173334 W _ZNSt10_HashtableIN2us3gov6crypto9ripemd16010value_typeESt4pairIKS4_NSt7__cxx1112basic_stringIcSt11char_traitsIcESaIcEEEESaISD_ENSt8__detail10_Select1stESt8equal_toIS4_ESt4hashIS4_ENSF_18_Mod_range_hashingENSF_20_Default_ranged_hashENSF_20_Prime_rehash_policyENSF_17_Hashtable_traitsILb1ELb0ELb1EEEED1Ev
0000000000173334 W _ZNSt10_HashtableIN2us3gov6crypto9ripemd16010value_typeESt4pairIKS4_NSt7__cxx1112basic_stringIcSt11char_traitsIcESaIcEEEESaISD_ENSt8__detail10_Select1stESt8equal_toIS4_ESt4hashIS4_ENSF_18_Mod_range_hashingENSF_20_Default_ranged_hashENSF_20_Prime_rehash_policyENSF_17_Hashtable_traitsILb1ELb0ELb1EEEED2Ev
000000000017ee44 W _ZNSt10_HashtableIN2us3gov6crypto9ripemd16010value_typeESt4pairIKS4_S5_IS4_mEESaIS8_ENSt8__detail10_Select1stESt8equal_toIS4_ESt4hashIS4_ENSA_18_Mod_range_hashingENSA_20_Default_ranged_hashENSA_20_Prime_rehash_policyENSA_17_Hashtable_traitsILb1ELb0ELb1EEEE10_M_emplaceIJRS6_S5_IS4_iEEEES5_INSA_14_Node_iteratorIS8_Lb0ELb1EEEbESt17integral_constantIbLb1EEDpOT_
00000000001827ee W _ZNSt10_HashtableIN2us3gov6crypto9ripemd16010value_typeESt4pairIKS4_S5_IS4_mEESaIS8_ENSt8__detail10_Select1stESt8equal_toIS4_ESt4hashIS4_ENSA_18_Mod_range_hashingENSA_20_Default_ranged_hashENSA_20_Prime_rehash_policyENSA_17_Hashtable_traitsILb1ELb0ELb1EEEE13_M_rehash_auxEmSt17integral_constantIbLb1EE
0000000000182fac W _ZNSt10_HashtableIN2us3gov6crypto9ripemd16010value_typeESt4pairIKS4_S5_IS4_mEESaIS8_ENSt8__detail10_Select1stESt8equal_toIS4_ESt4hashIS4_ENSA_18_Mod_range_hashingENSA_20_Default_ranged_hashENSA_20_Prime_rehash_policyENSA_17_Hashtable_traitsILb1ELb0ELb1EEEE19_M_allocate_bucketsEm
000000000017dc0a W _ZNSt10_HashtableIN2us3gov6crypto9ripemd16010value_typeESt4pairIKS4_S5_IS4_mEESaIS8_ENSt8__detail10_Select1stESt8equal_toIS4_ESt4hashIS4_ENSA_18_Mod_range_hashingENSA_20_Default_ranged_hashENSA_20_Prime_rehash_policyENSA_17_Hashtable_traitsILb1ELb0ELb1EEEE21_M_deallocate_bucketsEPPNSA_15_Hash_node_baseEm
000000000017ba8c W _ZNSt10_HashtableIN2us3gov6crypto9ripemd16010value_typeESt4pairIKS4_S5_IS4_mEESaIS8_ENSt8__detail10_Select1stESt8equal_toIS4_ESt4hashIS4_ENSA_18_Mod_range_hashingENSA_20_Default_ranged_hashENSA_20_Prime_rehash_policyENSA_17_Hashtable_traitsILb1ELb0ELb1EEEE21_M_deallocate_bucketsEv
00000000001806aa W _ZNSt10_HashtableIN2us3gov6crypto9ripemd16010value_typeESt4pairIKS4_S5_IS4_mEESaIS8_ENSt8__detail10_Select1stESt8equal_toIS4_ESt4hashIS4_ENSA_18_Mod_range_hashingENSA_20_Default_ranged_hashENSA_20_Prime_rehash_policyENSA_17_Hashtable_traitsILb1ELb0ELb1EEEE21_M_insert_unique_nodeEmmPNSA_10_Hash_nodeIS8_Lb1EEE
0000000000181a46 W _ZNSt10_HashtableIN2us3gov6crypto9ripemd16010value_typeESt4pairIKS4_S5_IS4_mEESaIS8_ENSt8__detail10_Select1stESt8equal_toIS4_ESt4hashIS4_ENSA_18_Mod_range_hashingENSA_20_Default_ranged_hashENSA_20_Prime_rehash_policyENSA_17_Hashtable_traitsILb1ELb0ELb1EEEE22_M_insert_bucket_beginEmPNSA_10_Hash_nodeIS8_Lb1EEE
000000000017d5da W _ZNSt10_HashtableIN2us3gov6crypto9ripemd16010value_typeESt4pairIKS4_S5_IS4_mEESaIS8_ENSt8__detail10_Select1stESt8equal_toIS4_ESt4hashIS4_ENSA_18_Mod_range_hashingENSA_20_Default_ranged_hashENSA_20_Prime_rehash_policyENSA_17_Hashtable_traitsILb1ELb0ELb1EEEE3endEv
000000000017d54a W _ZNSt10_HashtableIN2us3gov6crypto9ripemd16010value_typeESt4pairIKS4_S5_IS4_mEESaIS8_ENSt8__detail10_Select1stESt8equal_toIS4_ESt4hashIS4_ENSA_18_Mod_range_hashingENSA_20_Default_ranged_hashENSA_20_Prime_rehash_policyENSA_17_Hashtable_traitsILb1ELb0ELb1EEEE4findERS6_
000000000017d6ec W _ZNSt10_HashtableIN2us3gov6crypto9ripemd16010value_typeESt4pairIKS4_S5_IS4_mEESaIS8_ENSt8__detail10_Select1stESt8equal_toIS4_ESt4hashIS4_ENSA_18_Mod_range_hashingENSA_20_Default_ranged_hashENSA_20_Prime_rehash_policyENSA_17_Hashtable_traitsILb1ELb0ELb1EEEE5beginEv
000000000017ba22 W _ZNSt10_HashtableIN2us3gov6crypto9ripemd16010value_typeESt4pairIKS4_S5_IS4_mEESaIS8_ENSt8__detail10_Select1stESt8equal_toIS4_ESt4hashIS4_ENSA_18_Mod_range_hashingENSA_20_Default_ranged_hashENSA_20_Prime_rehash_policyENSA_17_Hashtable_traitsILb1ELb0ELb1EEEE5clearEv
000000000017d672 W _ZNSt10_HashtableIN2us3gov6crypto9ripemd16010value_typeESt4pairIKS4_S5_IS4_mEESaIS8_ENSt8__detail10_Select1stESt8equal_toIS4_ESt4hashIS4_ENSA_18_Mod_range_hashingENSA_20_Default_ranged_hashENSA_20_Prime_rehash_policyENSA_17_Hashtable_traitsILb1ELb0ELb1EEEE7emplaceIJRS6_S5_IS4_iEEEES5_INSA_14_Node_iteratorIS8_Lb0ELb1EEEbEDpOT_
00000000001819b2 W _ZNSt10_HashtableIN2us3gov6crypto9ripemd16010value_typeESt4pairIKS4_S5_IS4_mEESaIS8_ENSt8__detail10_Select1stESt8equal_toIS4_ESt4hashIS4_ENSA_18_Mod_range_hashingENSA_20_Default_ranged_hashENSA_20_Prime_rehash_policyENSA_17_Hashtable_traitsILb1ELb0ELb1EEEE9_M_rehashEmRKm
0000000000179f70 W _ZNSt10_HashtableIN2us3gov6crypto9ripemd16010value_typeESt4pairIKS4_S5_IS4_mEESaIS8_ENSt8__detail10_Select1stESt8equal_toIS4_ESt4hashIS4_ENSA_18_Mod_range_hashingENSA_20_Default_ranged_hashENSA_20_Prime_rehash_policyENSA_17_Hashtable_traitsILb1ELb0ELb1EEEEC1Ev
0000000000179f70 W _ZNSt10_HashtableIN2us3gov6crypto9ripemd16010value_typeESt4pairIKS4_S5_IS4_mEESaIS8_ENSt8__detail10_Select1stESt8equal_toIS4_ESt4hashIS4_ENSA_18_Mod_range_hashingENSA_20_Default_ranged_hashENSA_20_Prime_rehash_policyENSA_17_Hashtable_traitsILb1ELb0ELb1EEEEC2Ev
000000000017a4dc W _ZNSt10_HashtableIN2us3gov6crypto9ripemd16010value_typeESt4pairIKS4_S5_IS4_mEESaIS8_ENSt8__detail10_Select1stESt8equal_toIS4_ESt4hashIS4_ENSA_18_Mod_range_hashingENSA_20_Default_ranged_hashENSA_20_Prime_rehash_policyENSA_17_Hashtable_traitsILb1ELb0ELb1EEEED1Ev
000000000017a4dc W _ZNSt10_HashtableIN2us3gov6crypto9ripemd16010value_typeESt4pairIKS4_S5_IS4_mEESaIS8_ENSt8__detail10_Select1stESt8equal_toIS4_ESt4hashIS4_ENSA_18_Mod_range_hashingENSA_20_Default_ranged_hashENSA_20_Prime_rehash_policyENSA_17_Hashtable_traitsILb1ELb0ELb1EEEED2Ev
000000000015effe W _ZNSt10_HashtableINSt7__cxx1112basic_stringIcSt11char_traitsIcESaIcEEES5_SaIS5_ENSt8__detail9_IdentityESt8equal_toIS5_ESt4hashIS5_ENS7_18_Mod_range_hashingENS7_20_Default_ranged_hashENS7_20_Prime_rehash_policyENS7_17_Hashtable_traitsILb1ELb1ELb1EEEE10_M_emplaceIJRS5_EEESt4pairINS7_14_Node_iteratorIS5_Lb1ELb1EEEbESt17integral_constantIbLb1EEDpOT_
0000000000161422 W _ZNSt10_HashtableINSt7__cxx1112basic_stringIcSt11char_traitsIcESaIcEEES5_SaIS5_ENSt8__detail9_IdentityESt8equal_toIS5_ESt4hashIS5_ENS7_18_Mod_range_hashingENS7_20_Default_ranged_hashENS7_20_Prime_rehash_policyENS7_17_Hashtable_traitsILb1ELb1ELb1EEEE13_M_rehash_auxEmSt17integral_constantIbLb1EE
00000000001617d8 W _ZNSt10_HashtableINSt7__cxx1112basic_stringIcSt11char_traitsIcESaIcEEES5_SaIS5_ENSt8__detail9_IdentityESt8equal_toIS5_ESt4hashIS5_ENS7_18_Mod_range_hashingENS7_20_Default_ranged_hashENS7_20_Prime_rehash_policyENS7_17_Hashtable_traitsILb1ELb1ELb1EEEE19_M_allocate_bucketsEm
000000000015efb6 W _ZNSt10_HashtableINSt7__cxx1112basic_stringIcSt11char_traitsIcESaIcEEES5_SaIS5_ENSt8__detail9_IdentityESt8equal_toIS5_ESt4hashIS5_ENS7_18_Mod_range_hashingENS7_20_Default_ranged_hashENS7_20_Prime_rehash_policyENS7_17_Hashtable_traitsILb1ELb1ELb1EEEE21_M_deallocate_bucketsEPPNS7_15_Hash_node_baseEm
000000000015e0c8 W _ZNSt10_HashtableINSt7__cxx1112basic_stringIcSt11char_traitsIcESaIcEEES5_SaIS5_ENSt8__detail9_IdentityESt8equal_toIS5_ESt4hashIS5_ENS7_18_Mod_range_hashingENS7_20_Default_ranged_hashENS7_20_Prime_rehash_policyENS7_17_Hashtable_traitsILb1ELb1ELb1EEEE21_M_deallocate_bucketsEv
0000000000160254 W _ZNSt10_HashtableINSt7__cxx1112basic_stringIcSt11char_traitsIcESaIcEEES5_SaIS5_ENSt8__detail9_IdentityESt8equal_toIS5_ESt4hashIS5_ENS7_18_Mod_range_hashingENS7_20_Default_ranged_hashENS7_20_Prime_rehash_policyENS7_17_Hashtable_traitsILb1ELb1ELb1EEEE21_M_insert_unique_nodeEmmPNS7_10_Hash_nodeIS5_Lb1EEE
0000000000160d22 W _ZNSt10_HashtableINSt7__cxx1112basic_stringIcSt11char_traitsIcESaIcEEES5_SaIS5_ENSt8__detail9_IdentityESt8equal_toIS5_ESt4hashIS5_ENS7_18_Mod_range_hashingENS7_20_Default_ranged_hashENS7_20_Prime_rehash_policyENS7_17_Hashtable_traitsILb1ELb1ELb1EEEE22_M_insert_bucket_beginEmPNS7_10_Hash_nodeIS5_Lb1EEE
000000000015e1d2 W _ZNSt10_HashtableINSt7__cxx1112basic_stringIcSt11char_traitsIcESaIcEEES5_SaIS5_ENSt8__detail9_IdentityESt8equal_toIS5_ESt4hashIS5_ENS7_18_Mod_range_hashingENS7_20_Default_ranged_hashENS7_20_Prime_rehash_policyENS7_17_Hashtable_traitsILb1ELb1ELb1EEEE3endEv
000000000015e142 W _ZNSt10_HashtableINSt7__cxx1112basic_stringIcSt11char_traitsIcESaIcEEES5_SaIS5_ENSt8__detail9_IdentityESt8equal_toIS5_ESt4hashIS5_ENS7_18_Mod_range_hashingENS7_20_Default_ranged_hashENS7_20_Prime_rehash_policyENS7_17_Hashtable_traitsILb1ELb1ELb1EEEE4findERKS5_
000000000015e05e W _ZNSt10_HashtableINSt7__cxx1112basic_stringIcSt11char_traitsIcESaIcEEES5_SaIS5_ENSt8__detail9_IdentityESt8equal_toIS5_ESt4hashIS5_ENS7_18_Mod_range_hashingENS7_20_Default_ranged_hashENS7_20_Prime_rehash_policyENS7_17_Hashtable_traitsILb1ELb1ELb1EEEE5clearEv
000000000015e104 W _ZNSt10_HashtableINSt7__cxx1112basic_stringIcSt11char_traitsIcESaIcEEES5_SaIS5_ENSt8__detail9_IdentityESt8equal_toIS5_ESt4hashIS5_ENS7_18_Mod_range_hashingENS7_20_Default_ranged_hashENS7_20_Prime_rehash_policyENS7_17_Hashtable_traitsILb1ELb1ELb1EEEE7emplaceIJRS5_EEESt4pairINS7_14_Node_iteratorIS5_Lb1ELb1EEEbEDpOT_
0000000000160c8e W _ZNSt10_HashtableINSt7__cxx1112basic_stringIcSt11char_traitsIcESaIcEEES5_SaIS5_ENSt8__detail9_IdentityESt8equal_toIS5_ESt4hashIS5_ENS7_18_Mod_range_hashingENS7_20_Default_ranged_hashENS7_20_Prime_rehash_policyENS7_17_Hashtable_traitsILb1ELb1ELb1EEEE9_M_rehashEmRKm
000000000015cd78 W _ZNSt10_HashtableINSt7__cxx1112basic_stringIcSt11char_traitsIcESaIcEEES5_SaIS5_ENSt8__detail9_IdentityESt8equal_toIS5_ESt4hashIS5_ENS7_18_Mod_range_hashingENS7_20_Default_ranged_hashENS7_20_Prime_rehash_policyENS7_17_Hashtable_traitsILb1ELb1ELb1EEEEC1Ev
000000000015cd78 W _ZNSt10_HashtableINSt7__cxx1112basic_stringIcSt11char_traitsIcESaIcEEES5_SaIS5_ENSt8__detail9_IdentityESt8equal_toIS5_ESt4hashIS5_ENS7_18_Mod_range_hashingENS7_20_Default_ranged_hashENS7_20_Prime_rehash_policyENS7_17_Hashtable_traitsILb1ELb1ELb1EEEEC2Ev
000000000015d2fe W _ZNSt10_HashtableINSt7__cxx1112basic_stringIcSt11char_traitsIcESaIcEEES5_SaIS5_ENSt8__detail9_IdentityESt8equal_toIS5_ESt4hashIS5_ENS7_18_Mod_range_hashingENS7_20_Default_ranged_hashENS7_20_Prime_rehash_policyENS7_17_Hashtable_traitsILb1ELb1ELb1EEEED1Ev
000000000015d2fe W _ZNSt10_HashtableINSt7__cxx1112basic_stringIcSt11char_traitsIcESaIcEEES5_SaIS5_ENSt8__detail9_IdentityESt8equal_toIS5_ESt4hashIS5_ENS7_18_Mod_range_hashingENS7_20_Default_ranged_hashENS7_20_Prime_rehash_policyENS7_17_Hashtable_traitsILb1ELb1ELb1EEEED2Ev
000000000017f0a4 W _ZNSt10_HashtableIPN2us3gov10blockchain6peer_tESt4pairIKS4_NS2_5shellEESaIS8_ENSt8__detail10_Select1stESt8equal_toIS4_ESt4hashIS4_ENSA_18_Mod_range_hashingENSA_20_Default_ranged_hashENSA_20_Prime_rehash_policyENSA_17_Hashtable_traitsILb0ELb0ELb1EEEE10_M_emplaceIJRS4_S7_EEES5_INSA_14_Node_iteratorIS8_Lb0ELb0EEEbESt17integral_constantIbLb1EEDpOT_
0000000000182b28 W _ZNSt10_HashtableIPN2us3gov10blockchain6peer_tESt4pairIKS4_NS2_5shellEESaIS8_ENSt8__detail10_Select1stESt8equal_toIS4_ESt4hashIS4_ENSA_18_Mod_range_hashingENSA_20_Default_ranged_hashENSA_20_Prime_rehash_policyENSA_17_Hashtable_traitsILb0ELb0ELb1EEEE13_M_rehash_auxEmSt17integral_constantIbLb1EE
000000000018312a W _ZNSt10_HashtableIPN2us3gov10blockchain6peer_tESt4pairIKS4_NS2_5shellEESaIS8_ENSt8__detail10_Select1stESt8equal_toIS4_ESt4hashIS4_ENSA_18_Mod_range_hashingENSA_20_Default_ranged_hashENSA_20_Prime_rehash_policyENSA_17_Hashtable_traitsILb0ELb0ELb1EEEE19_M_allocate_bucketsEm
000000000017db68 W _ZNSt10_HashtableIPN2us3gov10blockchain6peer_tESt4pairIKS4_NS2_5shellEESaIS8_ENSt8__detail10_Select1stESt8equal_toIS4_ESt4hashIS4_ENSA_18_Mod_range_hashingENSA_20_Default_ranged_hashENSA_20_Prime_rehash_policyENSA_17_Hashtable_traitsILb0ELb0ELb1EEEE21_M_deallocate_bucketsEPPNSA_15_Hash_node_baseEm
000000000017b9c4 W _ZNSt10_HashtableIPN2us3gov10blockchain6peer_tESt4pairIKS4_NS2_5shellEESaIS8_ENSt8__detail10_Select1stESt8equal_toIS4_ESt4hashIS4_ENSA_18_Mod_range_hashingENSA_20_Default_ranged_hashENSA_20_Prime_rehash_policyENSA_17_Hashtable_traitsILb0ELb0ELb1EEEE21_M_deallocate_bucketsEv
0000000000180b6a W _ZNSt10_HashtableIPN2us3gov10blockchain6peer_tESt4pairIKS4_NS2_5shellEESaIS8_ENSt8__detail10_Select1stESt8equal_toIS4_ESt4hashIS4_ENSA_18_Mod_range_hashingENSA_20_Default_ranged_hashENSA_20_Prime_rehash_policyENSA_17_Hashtable_traitsILb0ELb0ELb1EEEE21_M_insert_unique_nodeEmmPNSA_10_Hash_nodeIS8_Lb0EEE
0000000000181d76 W _ZNSt10_HashtableIPN2us3gov10blockchain6peer_tESt4pairIKS4_NS2_5shellEESaIS8_ENSt8__detail10_Select1stESt8equal_toIS4_ESt4hashIS4_ENSA_18_Mod_range_hashingENSA_20_Default_ranged_hashENSA_20_Prime_rehash_policyENSA_17_Hashtable_traitsILb0ELb0ELb1EEEE22_M_insert_bucket_beginEmPNSA_10_Hash_nodeIS8_Lb0EEE
000000000017d7ee W _ZNSt10_HashtableIPN2us3gov10blockchain6peer_tESt4pairIKS4_NS2_5shellEESaIS8_ENSt8__detail10_Select1stESt8equal_toIS4_ESt4hashIS4_ENSA_18_Mod_range_hashingENSA_20_Default_ranged_hashENSA_20_Prime_rehash_policyENSA_17_Hashtable_traitsILb0ELb0ELb1EEEE3endEv
000000000017d75e W _ZNSt10_HashtableIPN2us3gov10blockchain6peer_tESt4pairIKS4_NS2_5shellEESaIS8_ENSt8__detail10_Select1stESt8equal_toIS4_ESt4hashIS4_ENSA_18_Mod_range_hashingENSA_20_Default_ranged_hashENSA_20_Prime_rehash_policyENSA_17_Hashtable_traitsILb0ELb0ELb1EEEE4findERS6_
000000000017b95a W _ZNSt10_HashtableIPN2us3gov10blockchain6peer_tESt4pairIKS4_NS2_5shellEESaIS8_ENSt8__detail10_Select1stESt8equal_toIS4_ESt4hashIS4_ENSA_18_Mod_range_hashingENSA_20_Default_ranged_hashENSA_20_Prime_rehash_policyENSA_17_Hashtable_traitsILb0ELb0ELb1EEEE5clearEv
000000000017d82e W _ZNSt10_HashtableIPN2us3gov10blockchain6peer_tESt4pairIKS4_NS2_5shellEESaIS8_ENSt8__detail10_Select1stESt8equal_toIS4_ESt4hashIS4_ENSA_18_Mod_range_hashingENSA_20_Default_ranged_hashENSA_20_Prime_rehash_policyENSA_17_Hashtable_traitsILb0ELb0ELb1EEEE7emplaceIJRS4_S7_EEES5_INSA_14_Node_iteratorIS8_Lb0ELb0EEEbEDpOT_
0000000000181cee W _ZNSt10_HashtableIPN2us3gov10blockchain6peer_tESt4pairIKS4_NS2_5shellEESaIS8_ENSt8__detail10_Select1stESt8equal_toIS4_ESt4hashIS4_ENSA_18_Mod_range_hashingENSA_20_Default_ranged_hashENSA_20_Prime_rehash_policyENSA_17_Hashtable_traitsILb0ELb0ELb1EEEE9_M_rehashEmRKm
0000000000179c94 W _ZNSt10_HashtableIPN2us3gov10blockchain6peer_tESt4pairIKS4_NS2_5shellEESaIS8_ENSt8__detail10_Select1stESt8equal_toIS4_ESt4hashIS4_ENSA_18_Mod_range_hashingENSA_20_Default_ranged_hashENSA_20_Prime_rehash_policyENSA_17_Hashtable_traitsILb0ELb0ELb1EEEEC1Ev
0000000000179c94 W _ZNSt10_HashtableIPN2us3gov10blockchain6peer_tESt4pairIKS4_NS2_5shellEESaIS8_ENSt8__detail10_Select1stESt8equal_toIS4_ESt4hashIS4_ENSA_18_Mod_range_hashingENSA_20_Default_ranged_hashENSA_20_Prime_rehash_policyENSA_17_Hashtable_traitsILb0ELb0ELb1EEEEC2Ev
000000000017a438 W _ZNSt10_HashtableIPN2us3gov10blockchain6peer_tESt4pairIKS4_NS2_5shellEESaIS8_ENSt8__detail10_Select1stESt8equal_toIS4_ESt4hashIS4_ENSA_18_Mod_range_hashingENSA_20_Default_ranged_hashENSA_20_Prime_rehash_policyENSA_17_Hashtable_traitsILb0ELb0ELb1EEEED1Ev
000000000017a438 W _ZNSt10_HashtableIPN2us3gov10blockchain6peer_tESt4pairIKS4_NS2_5shellEESaIS8_ENSt8__detail10_Select1stESt8equal_toIS4_ESt4hashIS4_ENSA_18_Mod_range_hashingENSA_20_Default_ranged_hashENSA_20_Prime_rehash_policyENSA_17_Hashtable_traitsILb0ELb0ELb1EEEED2Ev
0000000000148ede W _ZNSt10_HashtableIPN2us3gov14signal_handler8callbackES4_SaIS4_ENSt8__detail9_IdentityESt8equal_toIS4_ESt4hashIS4_ENS6_18_Mod_range_hashingENS6_20_Default_ranged_hashENS6_20_Prime_rehash_policyENS6_17_Hashtable_traitsILb0ELb1ELb1EEEE10_M_emplaceIJRS4_EEESt4pairINS6_14_Node_iteratorIS4_Lb1ELb0EEEbESt17integral_constantIbLb1EEDpOT_
000000000014e35a W _ZNSt10_HashtableIPN2us3gov14signal_handler8callbackES4_SaIS4_ENSt8__detail9_IdentityESt8equal_toIS4_ESt4hashIS4_ENS6_18_Mod_range_hashingENS6_20_Default_ranged_hashENS6_20_Prime_rehash_policyENS6_17_Hashtable_traitsILb0ELb1ELb1EEEE13_M_rehash_auxEmSt17integral_constantIbLb1EE
000000000014ef66 W _ZNSt10_HashtableIPN2us3gov14signal_handler8callbackES4_SaIS4_ENSt8__detail9_IdentityESt8equal_toIS4_ESt4hashIS4_ENS6_18_Mod_range_hashingENS6_20_Default_ranged_hashENS6_20_Prime_rehash_policyENS6_17_Hashtable_traitsILb0ELb1ELb1EEEE19_M_allocate_bucketsEm
000000000014b150 W _ZNSt10_HashtableIPN2us3gov14signal_handler8callbackES4_SaIS4_ENSt8__detail9_IdentityESt8equal_toIS4_ESt4hashIS4_ENS6_18_Mod_range_hashingENS6_20_Default_ranged_hashENS6_20_Prime_rehash_policyENS6_17_Hashtable_traitsILb0ELb1ELb1EEEE20_M_get_previous_nodeEmPNS6_15_Hash_node_baseE
000000000014f3f4 W _ZNSt10_HashtableIPN2us3gov14signal_handler8callbackES4_SaIS4_ENSt8__detail9_IdentityESt8equal_toIS4_ESt4hashIS4_ENS6_18_Mod_range_hashingENS6_20_Default_ranged_hashENS6_20_Prime_rehash_policyENS6_17_Hashtable_traitsILb0ELb1ELb1EEEE21_M_deallocate_bucketsEPPNS6_15_Hash_node_baseEm
000000000014efc4 W _ZNSt10_HashtableIPN2us3gov14signal_handler8callbackES4_SaIS4_ENSt8__detail9_IdentityESt8equal_toIS4_ESt4hashIS4_ENS6_18_Mod_range_hashingENS6_20_Default_ranged_hashENS6_20_Prime_rehash_policyENS6_17_Hashtable_traitsILb0ELb1ELb1EEEE21_M_deallocate_bucketsEv
000000000014ae74 W _ZNSt10_HashtableIPN2us3gov14signal_handler8callbackES4_SaIS4_ENSt8__detail9_IdentityESt8equal_toIS4_ESt4hashIS4_ENS6_18_Mod_range_hashingENS6_20_Default_ranged_hashENS6_20_Prime_rehash_policyENS6_17_Hashtable_traitsILb0ELb1ELb1EEEE21_M_insert_unique_nodeEmmPNS6_10_Hash_nodeIS4_Lb0EEE
000000000014d020 W _ZNSt10_HashtableIPN2us3gov14signal_handler8callbackES4_SaIS4_ENSt8__detail9_IdentityESt8equal_toIS4_ESt4hashIS4_ENS6_18_Mod_range_hashingENS6_20_Default_ranged_hashENS6_20_Prime_rehash_policyENS6_17_Hashtable_traitsILb0ELb1ELb1EEEE22_M_insert_bucket_beginEmPNS6_10_Hash_nodeIS4_Lb0EEE
000000000014d232 W _ZNSt10_HashtableIPN2us3gov14signal_handler8callbackES4_SaIS4_ENSt8__detail9_IdentityESt8equal_toIS4_ESt4hashIS4_ENS6_18_Mod_range_hashingENS6_20_Default_ranged_hashENS6_20_Prime_rehash_policyENS6_17_Hashtable_traitsILb0ELb1ELb1EEEE22_M_remove_bucket_beginEmPNS6_10_Hash_nodeIS4_Lb0EEEm
0000000000149116 W _ZNSt10_HashtableIPN2us3gov14signal_handler8callbackES4_SaIS4_ENSt8__detail9_IdentityESt8equal_toIS4_ESt4hashIS4_ENS6_18_Mod_range_hashingENS6_20_Default_ranged_hashENS6_20_Prime_rehash_policyENS6_17_Hashtable_traitsILb0ELb1ELb1EEEE3endEv
0000000000146592 W _ZNSt10_HashtableIPN2us3gov14signal_handler8callbackES4_SaIS4_ENSt8__detail9_IdentityESt8equal_toIS4_ESt4hashIS4_ENS6_18_Mod_range_hashingENS6_20_Default_ranged_hashENS6_20_Prime_rehash_policyENS6_17_Hashtable_traitsILb0ELb1ELb1EEEE4findERKS4_
000000000019a476 W _ZNSt10_HashtableIPN2us3gov14signal_handler8callbackES4_SaIS4_ENSt8__detail9_IdentityESt8equal_toIS4_ESt4hashIS4_ENS6_18_Mod_range_hashingENS6_20_Default_ranged_hashENS6_20_Prime_rehash_policyENS6_17_Hashtable_traitsILb0ELb1ELb1EEEE5beginEv
000000000019a40c W _ZNSt10_HashtableIPN2us3gov14signal_handler8callbackES4_SaIS4_ENSt8__detail9_IdentityESt8equal_toIS4_ESt4hashIS4_ENS6_18_Mod_range_hashingENS6_20_Default_ranged_hashENS6_20_Prime_rehash_policyENS6_17_Hashtable_traitsILb0ELb1ELb1EEEE5clearEv
0000000000146622 W _ZNSt10_HashtableIPN2us3gov14signal_handler8callbackES4_SaIS4_ENSt8__detail9_IdentityESt8equal_toIS4_ESt4hashIS4_ENS6_18_Mod_range_hashingENS6_20_Default_ranged_hashENS6_20_Prime_rehash_policyENS6_17_Hashtable_traitsILb0ELb1ELb1EEEE5eraseENS6_14_Node_iteratorIS4_Lb1ELb0EEE
0000000000149164 W _ZNSt10_HashtableIPN2us3gov14signal_handler8callbackES4_SaIS4_ENSt8__detail9_IdentityESt8equal_toIS4_ESt4hashIS4_ENS6_18_Mod_range_hashingENS6_20_Default_ranged_hashENS6_20_Prime_rehash_policyENS6_17_Hashtable_traitsILb0ELb1ELb1EEEE5eraseENS6_20_Node_const_iteratorIS4_Lb1ELb0EEE
0000000000146554 W _ZNSt10_HashtableIPN2us3gov14signal_handler8callbackES4_SaIS4_ENSt8__detail9_IdentityESt8equal_toIS4_ESt4hashIS4_ENS6_18_Mod_range_hashingENS6_20_Default_ranged_hashENS6_20_Prime_rehash_policyENS6_17_Hashtable_traitsILb0ELb1ELb1EEEE7emplaceIJRS4_EEESt4pairINS6_14_Node_iteratorIS4_Lb1ELb0EEEbEDpOT_
000000000014b19a W _ZNSt10_HashtableIPN2us3gov14signal_handler8callbackES4_SaIS4_ENSt8__detail9_IdentityESt8equal_toIS4_ESt4hashIS4_ENS6_18_Mod_range_hashingENS6_20_Default_ranged_hashENS6_20_Prime_rehash_policyENS6_17_Hashtable_traitsILb0ELb1ELb1EEEE8_M_eraseEmPNS6_15_Hash_node_baseEPNS6_10_Hash_nodeIS4_Lb0EEE
000000000014cf98 W _ZNSt10_HashtableIPN2us3gov14signal_handler8callbackES4_SaIS4_ENSt8__detail9_IdentityESt8equal_toIS4_ESt4hashIS4_ENS6_18_Mod_range_hashingENS6_20_Default_ranged_hashENS6_20_Prime_rehash_policyENS6_17_Hashtable_traitsILb0ELb1ELb1EEEE9_M_rehashEmRKm
000000000019a202 W _ZNSt10_HashtableIPN2us3gov14signal_handler8callbackES4_SaIS4_ENSt8__detail9_IdentityESt8equal_toIS4_ESt4hashIS4_ENS6_18_Mod_range_hashingENS6_20_Default_ranged_hashENS6_20_Prime_rehash_policyENS6_17_Hashtable_traitsILb0ELb1ELb1EEEEC1Ev
000000000019a202 W _ZNSt10_HashtableIPN2us3gov14signal_handler8callbackES4_SaIS4_ENSt8__detail9_IdentityESt8equal_toIS4_ESt4hashIS4_ENS6_18_Mod_range_hashingENS6_20_Default_ranged_hashENS6_20_Prime_rehash_policyENS6_17_Hashtable_traitsILb0ELb1ELb1EEEEC2Ev
000000000019a32e W _ZNSt10_HashtableIPN2us3gov14signal_handler8callbackES4_SaIS4_ENSt8__detail9_IdentityESt8equal_toIS4_ESt4hashIS4_ENS6_18_Mod_range_hashingENS6_20_Default_ranged_hashENS6_20_Prime_rehash_policyENS6_17_Hashtable_traitsILb0ELb1ELb1EEEED1Ev
000000000019a32e W _ZNSt10_HashtableIPN2us3gov14signal_handler8callbackES4_SaIS4_ENSt8__detail9_IdentityESt8equal_toIS4_ESt4hashIS4_ENS6_18_Mod_range_hashingENS6_20_Default_ranged_hashENS6_20_Prime_rehash_policyENS6_17_Hashtable_traitsILb0ELb1ELb1EEEED2Ev
000000000014a932 W _ZNSt10_HashtableIPN2us3gov6socket6clientES4_SaIS4_ENSt8__detail9_IdentityESt8equal_toIS4_ESt4hashIS4_ENS6_18_Mod_range_hashingENS6_20_Default_ranged_hashENS6_20_Prime_rehash_policyENS6_17_Hashtable_traitsILb0ELb1ELb1EEEE10_M_emplaceIJRS4_EEESt4pairINS6_14_Node_iteratorIS4_Lb1ELb0EEEbESt17integral_constantIbLb1EEDpOT_
000000000014ed62 W _ZNSt10_HashtableIPN2us3gov6socket6clientES4_SaIS4_ENSt8__detail9_IdentityESt8equal_toIS4_ESt4hashIS4_ENS6_18_Mod_range_hashingENS6_20_Default_ranged_hashENS6_20_Prime_rehash_policyENS6_17_Hashtable_traitsILb0ELb1ELb1EEEE13_M_rehash_auxEmSt17integral_constantIbLb1EE
0000000000147200 W _ZNSt10_HashtableIPN2us3gov6socket6clientES4_SaIS4_ENSt8__detail9_IdentityESt8equal_toIS4_ESt4hashIS4_ENS6_18_Mod_range_hashingENS6_20_Default_ranged_hashENS6_20_Prime_rehash_policyENS6_17_Hashtable_traitsILb0ELb1ELb1EEEE19_M_allocate_bucketsEm
000000000014cc5c W _ZNSt10_HashtableIPN2us3gov6socket6clientES4_SaIS4_ENSt8__detail9_IdentityESt8equal_toIS4_ESt4hashIS4_ENS6_18_Mod_range_hashingENS6_20_Default_ranged_hashENS6_20_Prime_rehash_policyENS6_17_Hashtable_traitsILb0ELb1ELb1EEEE20_M_get_previous_nodeEmPNS6_15_Hash_node_baseE
00000000001475dc W _ZNSt10_HashtableIPN2us3gov6socket6clientES4_SaIS4_ENSt8__detail9_IdentityESt8equal_toIS4_ESt4hashIS4_ENS6_18_Mod_range_hashingENS6_20_Default_ranged_hashENS6_20_Prime_rehash_policyENS6_17_Hashtable_traitsILb0ELb1ELb1EEEE21_M_deallocate_bucketsEPPNS6_15_Hash_node_baseEm
000000000014678c W _ZNSt10_HashtableIPN2us3gov6socket6clientES4_SaIS4_ENSt8__detail9_IdentityESt8equal_toIS4_ESt4hashIS4_ENS6_18_Mod_range_hashingENS6_20_Default_ranged_hashENS6_20_Prime_rehash_policyENS6_17_Hashtable_traitsILb0ELb1ELb1EEEE21_M_deallocate_bucketsEv
000000000014c9da W _ZNSt10_HashtableIPN2us3gov6socket6clientES4_SaIS4_ENSt8__detail9_IdentityESt8equal_toIS4_ESt4hashIS4_ENS6_18_Mod_range_hashingENS6_20_Default_ranged_hashENS6_20_Prime_rehash_policyENS6_17_Hashtable_traitsILb0ELb1ELb1EEEE21_M_insert_unique_nodeEmmPNS6_10_Hash_nodeIS4_Lb0EEE
000000000014e05e W _ZNSt10_HashtableIPN2us3gov6socket6clientES4_SaIS4_ENSt8__detail9_IdentityESt8equal_toIS4_ESt4hashIS4_ENS6_18_Mod_range_hashingENS6_20_Default_ranged_hashENS6_20_Prime_rehash_policyENS6_17_Hashtable_traitsILb0ELb1ELb1EEEE22_M_insert_bucket_beginEmPNS6_10_Hash_nodeIS4_Lb0EEE
000000000014e1aa W _ZNSt10_HashtableIPN2us3gov6socket6clientES4_SaIS4_ENSt8__detail9_IdentityESt8equal_toIS4_ESt4hashIS4_ENS6_18_Mod_range_hashingENS6_20_Default_ranged_hashENS6_20_Prime_rehash_policyENS6_17_Hashtable_traitsILb0ELb1ELb1EEEE22_M_remove_bucket_beginEmPNS6_10_Hash_nodeIS4_Lb0EEEm
0000000000147654 W _ZNSt10_HashtableIPN2us3gov6socket6clientES4_SaIS4_ENSt8__detail9_IdentityESt8equal_toIS4_ESt4hashIS4_ENS6_18_Mod_range_hashingENS6_20_Default_ranged_hashENS6_20_Prime_rehash_policyENS6_17_Hashtable_traitsILb0ELb1ELb1EEEE3endEv
0000000000148d86 W _ZNSt10_HashtableIPN2us3gov6socket6clientES4_SaIS4_ENSt8__detail9_IdentityESt8equal_toIS4_ESt4hashIS4_ENS6_18_Mod_range_hashingENS6_20_Default_ranged_hashENS6_20_Prime_rehash_policyENS6_17_Hashtable_traitsILb0ELb1ELb1EEEE4findERKS4_
0000000000147624 W _ZNSt10_HashtableIPN2us3gov6socket6clientES4_SaIS4_ENSt8__detail9_IdentityESt8equal_toIS4_ESt4hashIS4_ENS6_18_Mod_range_hashingENS6_20_Default_ranged_hashENS6_20_Prime_rehash_policyENS6_17_Hashtable_traitsILb0ELb1ELb1EEEE5beginEv
0000000000146722 W _ZNSt10_HashtableIPN2us3gov6socket6clientES4_SaIS4_ENSt8__detail9_IdentityESt8equal_toIS4_ESt4hashIS4_ENS6_18_Mod_range_hashingENS6_20_Default_ranged_hashENS6_20_Prime_rehash_policyENS6_17_Hashtable_traitsILb0ELb1ELb1EEEE5clearEv
0000000000148e16 W _ZNSt10_HashtableIPN2us3gov6socket6clientES4_SaIS4_ENSt8__detail9_IdentityESt8equal_toIS4_ESt4hashIS4_ENS6_18_Mod_range_hashingENS6_20_Default_ranged_hashENS6_20_Prime_rehash_policyENS6_17_Hashtable_traitsILb0ELb1ELb1EEEE5eraseENS6_14_Node_iteratorIS4_Lb1ELb0EEE
000000000014ab6e W _ZNSt10_HashtableIPN2us3gov6socket6clientES4_SaIS4_ENSt8__detail9_IdentityESt8equal_toIS4_ESt4hashIS4_ENS6_18_Mod_range_hashingENS6_20_Default_ranged_hashENS6_20_Prime_rehash_policyENS6_17_Hashtable_traitsILb0ELb1ELb1EEEE5eraseENS6_20_Node_const_iteratorIS4_Lb1ELb0EEE
0000000000148d48 W _ZNSt10_HashtableIPN2us3gov6socket6clientES4_SaIS4_ENSt8__detail9_IdentityESt8equal_toIS4_ESt4hashIS4_ENS6_18_Mod_range_hashingENS6_20_Default_ranged_hashENS6_20_Prime_rehash_policyENS6_17_Hashtable_traitsILb0ELb1ELb1EEEE7emplaceIJRS4_EEESt4pairINS6_14_Node_iteratorIS4_Lb1ELb0EEEbEDpOT_
000000000014cca6 W _ZNSt10_HashtableIPN2us3gov6socket6clientES4_SaIS4_ENSt8__detail9_IdentityESt8equal_toIS4_ESt4hashIS4_ENS6_18_Mod_range_hashingENS6_20_Default_ranged_hashENS6_20_Prime_rehash_policyENS6_17_Hashtable_traitsILb0ELb1ELb1EEEE8_M_eraseEmPNS6_15_Hash_node_baseEPNS6_10_Hash_nodeIS4_Lb0EEE
00000000001471a2 W _ZNSt10_HashtableIPN2us3gov6socket6clientES4_SaIS4_ENSt8__detail9_IdentityESt8equal_toIS4_ESt4hashIS4_ENS6_18_Mod_range_hashingENS6_20_Default_ranged_hashENS6_20_Prime_rehash_policyENS6_17_Hashtable_traitsILb0ELb1ELb1EEEE8_M_resetEv
00000000001473f8 W _ZNSt10_HashtableIPN2us3gov6socket6clientES4_SaIS4_ENSt8__detail9_IdentityESt8equal_toIS4_ESt4hashIS4_ENS6_18_Mod_range_hashingENS6_20_Default_ranged_hashENS6_20_Prime_rehash_policyENS6_17_Hashtable_traitsILb0ELb1ELb1EEEE9_M_assignIZNSH_aSERKSH_EUlPKNS6_10_Hash_nodeIS4_Lb0EEEE0_EEvSK_RKT_
0000000000146fbe W _ZNSt10_HashtableIPN2us3gov6socket6clientES4_SaIS4_ENSt8__detail9_IdentityESt8equal_toIS4_ESt4hashIS4_ENS6_18_Mod_range_hashingENS6_20_Default_ranged_hashENS6_20_Prime_rehash_policyENS6_17_Hashtable_traitsILb0ELb1ELb1EEEE9_M_assignIZNSH_aSERKSH_EUlPKNS6_10_Hash_nodeIS4_Lb0EEEE_EEvSK_RKT_
000000000014dfd6 W _ZNSt10_HashtableIPN2us3gov6socket6clientES4_SaIS4_ENSt8__detail9_IdentityESt8equal_toIS4_ESt4hashIS4_ENS6_18_Mod_range_hashingENS6_20_Default_ranged_hashENS6_20_Prime_rehash_policyENS6_17_Hashtable_traitsILb0ELb1ELb1EEEE9_M_rehashEmRKm
0000000000145358 W _ZNSt10_HashtableIPN2us3gov6socket6clientES4_SaIS4_ENSt8__detail9_IdentityESt8equal_toIS4_ESt4hashIS4_ENS6_18_Mod_range_hashingENS6_20_Default_ranged_hashENS6_20_Prime_rehash_policyENS6_17_Hashtable_traitsILb0ELb1ELb1EEEEaSERKSH_
0000000000144856 W _ZNSt10_HashtableIPN2us3gov6socket6clientES4_SaIS4_ENSt8__detail9_IdentityESt8equal_toIS4_ESt4hashIS4_ENS6_18_Mod_range_hashingENS6_20_Default_ranged_hashENS6_20_Prime_rehash_policyENS6_17_Hashtable_traitsILb0ELb1ELb1EEEEC1Ev
0000000000144856 W _ZNSt10_HashtableIPN2us3gov6socket6clientES4_SaIS4_ENSt8__detail9_IdentityESt8equal_toIS4_ESt4hashIS4_ENS6_18_Mod_range_hashingENS6_20_Default_ranged_hashENS6_20_Prime_rehash_policyENS6_17_Hashtable_traitsILb0ELb1ELb1EEEEC2Ev
0000000000144df0 W _ZNSt10_HashtableIPN2us3gov6socket6clientES4_SaIS4_ENSt8__detail9_IdentityESt8equal_toIS4_ESt4hashIS4_ENS6_18_Mod_range_hashingENS6_20_Default_ranged_hashENS6_20_Prime_rehash_policyENS6_17_Hashtable_traitsILb0ELb1ELb1EEEED1Ev
0000000000144df0 W _ZNSt10_HashtableIPN2us3gov6socket6clientES4_SaIS4_ENSt8__detail9_IdentityESt8equal_toIS4_ESt4hashIS4_ENS6_18_Mod_range_hashingENS6_20_Default_ranged_hashENS6_20_Prime_rehash_policyENS6_17_Hashtable_traitsILb0ELb1ELb1EEEED2Ev
0000000000149e78 W _ZNSt10_HashtableIPN2us3gov6socket6clientESt4pairIKS4_NSt6chrono10time_pointINS7_3_V212steady_clockENS7_8durationIlSt5ratioILl1ELl1000000000EEEEEEESaISG_ENSt8__detail10_Select1stESt8equal_toIS4_ESt4hashIS4_ENSI_18_Mod_range_hashingENSI_20_Default_ranged_hashENSI_20_Prime_rehash_policyENSI_17_Hashtable_traitsILb0ELb0ELb1EEEE10_M_emplaceIJRS4_SF_EEES5_INSI_14_Node_iteratorISG_Lb0ELb0EEEbESt17integral_constantIbLb1EEDpOT_
000000000014ea4e W _ZNSt10_HashtableIPN2us3gov6socket6clientESt4pairIKS4_NSt6chrono10time_pointINS7_3_V212steady_clockENS7_8durationIlSt5ratioILl1ELl1000000000EEEEEEESaISG_ENSt8__detail10_Select1stESt8equal_toIS4_ESt4hashIS4_ENSI_18_Mod_range_hashingENSI_20_Default_ranged_hashENSI_20_Prime_rehash_policyENSI_17_Hashtable_traitsILb0ELb0ELb1EEEE13_M_rehash_auxEmSt17integral_constantIbLb1EE
000000000014f190 W _ZNSt10_HashtableIPN2us3gov6socket6clientESt4pairIKS4_NSt6chrono10time_pointINS7_3_V212steady_clockENS7_8durationIlSt5ratioILl1ELl1000000000EEEEEEESaISG_ENSt8__detail10_Select1stESt8equal_toIS4_ESt4hashIS4_ENSI_18_Mod_range_hashingENSI_20_Default_ranged_hashENSI_20_Prime_rehash_policyENSI_17_Hashtable_traitsILb0ELb0ELb1EEEE19_M_allocate_bucketsEm
000000000014c6b6 W _ZNSt10_HashtableIPN2us3gov6socket6clientESt4pairIKS4_NSt6chrono10time_pointINS7_3_V212steady_clockENS7_8durationIlSt5ratioILl1ELl1000000000EEEEEEESaISG_ENSt8__detail10_Select1stESt8equal_toIS4_ESt4hashIS4_ENSI_18_Mod_range_hashingENSI_20_Default_ranged_hashENSI_20_Prime_rehash_policyENSI_17_Hashtable_traitsILb0ELb0ELb1EEEE20_M_get_previous_nodeEmPNSI_15_Hash_node_baseE
0000000000149222 W _ZNSt10_HashtableIPN2us3gov6socket6clientESt4pairIKS4_NSt6chrono10time_pointINS7_3_V212steady_clockENS7_8durationIlSt5ratioILl1ELl1000000000EEEEEEESaISG_ENSt8__detail10_Select1stESt8equal_toIS4_ESt4hashIS4_ENSI_18_Mod_range_hashingENSI_20_Default_ranged_hashENSI_20_Prime_rehash_policyENSI_17_Hashtable_traitsILb0ELb0ELb1EEEE21_M_deallocate_bucketsEPPNSI_15_Hash_node_baseEm
000000000014683c W _ZNSt10_HashtableIPN2us3gov6socket6clientESt4pairIKS4_NSt6chrono10time_pointINS7_3_V212steady_clockENS7_8durationIlSt5ratioILl1ELl1000000000EEEEEEESaISG_ENSt8__detail10_Select1stESt8equal_toIS4_ESt4hashIS4_ENSI_18_Mod_range_hashingENSI_20_Default_ranged_hashENSI_20_Prime_rehash_policyENSI_17_Hashtable_traitsILb0ELb0ELb1EEEE21_M_deallocate_bucketsEv
000000000014c148 W _ZNSt10_HashtableIPN2us3gov6socket6clientESt4pairIKS4_NSt6chrono10time_pointINS7_3_V212steady_clockENS7_8durationIlSt5ratioILl1ELl1000000000EEEEEEESaISG_ENSt8__detail10_Select1stESt8equal_toIS4_ESt4hashIS4_ENSI_18_Mod_range_hashingENSI_20_Default_ranged_hashENSI_20_Prime_rehash_policyENSI_17_Hashtable_traitsILb0ELb0ELb1EEEE21_M_insert_unique_nodeEmmPNSI_10_Hash_nodeISG_Lb0EEE
000000000014db8e W _ZNSt10_HashtableIPN2us3gov6socket6clientESt4pairIKS4_NSt6chrono10time_pointINS7_3_V212steady_clockENS7_8durationIlSt5ratioILl1ELl1000000000EEEEEEESaISG_ENSt8__detail10_Select1stESt8equal_toIS4_ESt4hashIS4_ENSI_18_Mod_range_hashingENSI_20_Default_ranged_hashENSI_20_Prime_rehash_policyENSI_17_Hashtable_traitsILb0ELb0ELb1EEEE22_M_insert_bucket_beginEmPNSI_10_Hash_nodeISG_Lb0EEE
000000000014dea8 W _ZNSt10_HashtableIPN2us3gov6socket6clientESt4pairIKS4_NSt6chrono10time_pointINS7_3_V212steady_clockENS7_8durationIlSt5ratioILl1ELl1000000000EEEEEEESaISG_ENSt8__detail10_Select1stESt8equal_toIS4_ESt4hashIS4_ENSI_18_Mod_range_hashingENSI_20_Default_ranged_hashENSI_20_Prime_rehash_policyENSI_17_Hashtable_traitsILb0ELb0ELb1EEEE22_M_remove_bucket_beginEmPNSI_10_Hash_nodeISG_Lb0EEEm
0000000000148a82 W _ZNSt10_HashtableIPN2us3gov6socket6clientESt4pairIKS4_NSt6chrono10time_pointINS7_3_V212steady_clockENS7_8durationIlSt5ratioILl1ELl1000000000EEEEEEESaISG_ENSt8__detail10_Select1stESt8equal_toIS4_ESt4hashIS4_ENSI_18_Mod_range_hashingENSI_20_Default_ranged_hashENSI_20_Prime_rehash_policyENSI_17_Hashtable_traitsILb0ELb0ELb1EEEE3endEv
0000000000148c80 W _ZNSt10_HashtableIPN2us3gov6socket6clientESt4pairIKS4_NSt6chrono10time_pointINS7_3_V212steady_clockENS7_8durationIlSt5ratioILl1ELl1000000000EEEEEEESaISG_ENSt8__detail10_Select1stESt8equal_toIS4_ESt4hashIS4_ENSI_18_Mod_range_hashingENSI_20_Default_ranged_hashENSI_20_Prime_rehash_policyENSI_17_Hashtable_traitsILb0ELb0ELb1EEEE4findERS6_
0000000000148a52 W _ZNSt10_HashtableIPN2us3gov6socket6clientESt4pairIKS4_NSt6chrono10time_pointINS7_3_V212steady_clockENS7_8durationIlSt5ratioILl1ELl1000000000EEEEEEESaISG_ENSt8__detail10_Select1stESt8equal_toIS4_ESt4hashIS4_ENSI_18_Mod_range_hashingENSI_20_Default_ranged_hashENSI_20_Prime_rehash_policyENSI_17_Hashtable_traitsILb0ELb0ELb1EEEE5beginEv
00000000001467d2 W _ZNSt10_HashtableIPN2us3gov6socket6clientESt4pairIKS4_NSt6chrono10time_pointINS7_3_V212steady_clockENS7_8durationIlSt5ratioILl1ELl1000000000EEEEEEESaISG_ENSt8__detail10_Select1stESt8equal_toIS4_ESt4hashIS4_ENSI_18_Mod_range_hashingENSI_20_Default_ranged_hashENSI_20_Prime_rehash_policyENSI_17_Hashtable_traitsILb0ELb0ELb1EEEE5clearEv
0000000000148d10 W _ZNSt10_HashtableIPN2us3gov6socket6clientESt4pairIKS4_NSt6chrono10time_pointINS7_3_V212steady_clockENS7_8durationIlSt5ratioILl1ELl1000000000EEEEEEESaISG_ENSt8__detail10_Select1stESt8equal_toIS4_ESt4hashIS4_ENSI_18_Mod_range_hashingENSI_20_Default_ranged_hashENSI_20_Prime_rehash_policyENSI_17_Hashtable_traitsILb0ELb0ELb1EEEE5eraseENSI_14_Node_iteratorISG_Lb0ELb0EEE
000000000014a8ce W _ZNSt10_HashtableIPN2us3gov6socket6clientESt4pairIKS4_NSt6chrono10time_pointINS7_3_V212steady_clockENS7_8durationIlSt5ratioILl1ELl1000000000EEEEEEESaISG_ENSt8__detail10_Select1stESt8equal_toIS4_ESt4hashIS4_ENSI_18_Mod_range_hashingENSI_20_Default_ranged_hashENSI_20_Prime_rehash_policyENSI_17_Hashtable_traitsILb0ELb0ELb1EEEE5eraseENSI_20_Node_const_iteratorISG_Lb0ELb0EEE
0000000000147ff2 W _ZNSt10_HashtableIPN2us3gov6socket6clientESt4pairIKS4_NSt6chrono10time_pointINS7_3_V212steady_clockENS7_8durationIlSt5ratioILl1ELl1000000000EEEEEEESaISG_ENSt8__detail10_Select1stESt8equal_toIS4_ESt4hashIS4_ENSI_18_Mod_range_hashingENSI_20_Default_ranged_hashENSI_20_Prime_rehash_policyENSI_17_Hashtable_traitsILb0ELb0ELb1EEEE7emplaceIJRS4_SF_EEES5_INSI_14_Node_iteratorISG_Lb0ELb0EEEbEDpOT_
000000000014c700 W _ZNSt10_HashtableIPN2us3gov6socket6clientESt4pairIKS4_NSt6chrono10time_pointINS7_3_V212steady_clockENS7_8durationIlSt5ratioILl1ELl1000000000EEEEEEESaISG_ENSt8__detail10_Select1stESt8equal_toIS4_ESt4hashIS4_ENSI_18_Mod_range_hashingENSI_20_Default_ranged_hashENSI_20_Prime_rehash_policyENSI_17_Hashtable_traitsILb0ELb0ELb1EEEE8_M_eraseEmPNSI_15_Hash_node_baseEPNSI_10_Hash_nodeISG_Lb0EEE
000000000014db06 W _ZNSt10_HashtableIPN2us3gov6socket6clientESt4pairIKS4_NSt6chrono10time_pointINS7_3_V212steady_clockENS7_8durationIlSt5ratioILl1ELl1000000000EEEEEEESaISG_ENSt8__detail10_Select1stESt8equal_toIS4_ESt4hashIS4_ENSI_18_Mod_range_hashingENSI_20_Default_ranged_hashENSI_20_Prime_rehash_policyENSI_17_Hashtable_traitsILb0ELb0ELb1EEEE9_M_rehashEmRKm
00000000001449cc W _ZNSt10_HashtableIPN2us3gov6socket6clientESt4pairIKS4_NSt6chrono10time_pointINS7_3_V212steady_clockENS7_8durationIlSt5ratioILl1ELl1000000000EEEEEEESaISG_ENSt8__detail10_Select1stESt8equal_toIS4_ESt4hashIS4_ENSI_18_Mod_range_hashingENSI_20_Default_ranged_hashENSI_20_Prime_rehash_policyENSI_17_Hashtable_traitsILb0ELb0ELb1EEEEC1Ev
00000000001449cc W _ZNSt10_HashtableIPN2us3gov6socket6clientESt4pairIKS4_NSt6chrono10time_pointINS7_3_V212steady_clockENS7_8durationIlSt5ratioILl1ELl1000000000EEEEEEESaISG_ENSt8__detail10_Select1stESt8equal_toIS4_ESt4hashIS4_ENSI_18_Mod_range_hashingENSI_20_Default_ranged_hashENSI_20_Prime_rehash_policyENSI_17_Hashtable_traitsILb0ELb0ELb1EEEEC2Ev
0000000000144e5c W _ZNSt10_HashtableIPN2us3gov6socket6clientESt4pairIKS4_NSt6chrono10time_pointINS7_3_V212steady_clockENS7_8durationIlSt5ratioILl1ELl1000000000EEEEEEESaISG_ENSt8__detail10_Select1stESt8equal_toIS4_ESt4hashIS4_ENSI_18_Mod_range_hashingENSI_20_Default_ranged_hashENSI_20_Prime_rehash_policyENSI_17_Hashtable_traitsILb0ELb0ELb1EEEED1Ev
0000000000144e5c W _ZNSt10_HashtableIPN2us3gov6socket6clientESt4pairIKS4_NSt6chrono10time_pointINS7_3_V212steady_clockENS7_8durationIlSt5ratioILl1ELl1000000000EEEEEEESaISG_ENSt8__detail10_Select1stESt8equal_toIS4_ESt4hashIS4_ENSI_18_Mod_range_hashingENSI_20_Default_ranged_hashENSI_20_Prime_rehash_policyENSI_17_Hashtable_traitsILb0ELb0ELb1EEEED2Ev
000000000018249b W _ZNSt10_Head_baseILm0EMN2us3gov10blockchain12runnable_appEFvvELb0EE7_M_headERS6_
000000000017e48c W _ZNSt10_Head_baseILm0EMN2us3gov10blockchain12runnable_appEFvvELb0EEC1IS5_EEOT_
000000000017e48c W _ZNSt10_Head_baseILm0EMN2us3gov10blockchain12runnable_appEFvvELb0EEC2IS5_EEOT_
00000000001824a9 W _ZNSt10_Head_baseILm0EMN2us3gov10blockchain6daemon5syncdEFvvELb0EE7_M_headERS7_
000000000017e7ba W _ZNSt10_Head_baseILm0EMN2us3gov10blockchain6daemon5syncdEFvvELb0EEC1IS6_EEOT_
000000000017e7ba W _ZNSt10_Head_baseILm0EMN2us3gov10blockchain6daemon5syncdEFvvELb0EEC2IS6_EEOT_
00000000001823ef W _ZNSt10_Head_baseILm0EMN2us3gov6socket6daemonEFvvELb0EE7_M_headERS6_
000000000017e21a W _ZNSt10_Head_baseILm0EMN2us3gov6socket6daemonEFvvELb0EEC1IS5_EEOT_
000000000017e21a W _ZNSt10_Head_baseILm0EMN2us3gov6socket6daemonEFvvELb0EEC2IS5_EEOT_
00000000001585e7 W _ZNSt10_Head_baseILm0EMN2us3gov6socket6serverEFvvELb0EE7_M_headERS6_
0000000000156206 W _ZNSt10_Head_baseILm0EMN2us3gov6socket6serverEFvvELb0EEC1IS5_EEOT_
0000000000156206 W _ZNSt10_Head_baseILm0EMN2us3gov6socket6serverEFvvELb0EEC2IS5_EEOT_
000000000015c86f W _ZNSt10_Head_baseILm0ENSt6chrono8durationIlSt5ratioILl1ELl1000EEEELb0EE7_M_headERKS5_
000000000014f0a3 W _ZNSt10_Head_baseILm0EPN2us3gov3net2osELb0EE7_M_headERKS5_
000000000014e6b3 W _ZNSt10_Head_baseILm0EPN2us3gov3net2osELb0EE7_M_headERS5_
000000000014d460 W _ZNSt10_Head_baseILm0EPN2us3gov3net2osELb0EEC1IRS4_EEOT_
000000000014d460 W _ZNSt10_Head_baseILm0EPN2us3gov3net2osELb0EEC2IRS4_EEOT_
000000000014f456 W _ZNSt10_Head_baseILm0EPN2us3gov3net5posixELb0EE7_M_headERKS5_
000000000014e640 W _ZNSt10_Head_baseILm0EPN2us3gov3net5posixELb0EE7_M_headERS5_
000000000014e62a W _ZNSt10_Head_baseILm0EPN2us3gov3net5posixELb0EEC1Ev
000000000014e62a W _ZNSt10_Head_baseILm0EPN2us3gov3net5posixELb0EEC2Ev
000000000015874f W _ZNSt10_Head_baseILm0EPNSt13__future_base12_Result_baseELb0EE7_M_headERKS3_
00000000001565bf W _ZNSt10_Head_baseILm0EPNSt13__future_base12_Result_baseELb0EE7_M_headERS3_
00000000001554f2 W _ZNSt10_Head_baseILm0EPNSt13__future_base12_Result_baseELb0EEC1Ev
000000000015757a W _ZNSt10_Head_baseILm0EPNSt13__future_base12_Result_baseELb0EEC1IRS2_EEOT_
0000000000155694 W _ZNSt10_Head_baseILm0EPNSt13__future_base12_Result_baseELb0EEC1IS2_EEOT_
00000000001554f2 W _ZNSt10_Head_baseILm0EPNSt13__future_base12_Result_baseELb0EEC2Ev
000000000015757a W _ZNSt10_Head_baseILm0EPNSt13__future_base12_Result_baseELb0EEC2IRS2_EEOT_
0000000000155694 W _ZNSt10_Head_baseILm0EPNSt13__future_base12_Result_baseELb0EEC2IS2_EEOT_
000000000015876b W _ZNSt10_Head_baseILm0EPNSt13__future_base13_State_baseV211_Make_readyELb0EE7_M_headERKS4_
0000000000157f85 W _ZNSt10_Head_baseILm0EPNSt13__future_base13_State_baseV211_Make_readyELb0EE7_M_headERS4_
0000000000157454 W _ZNSt10_Head_baseILm0EPNSt13__future_base13_State_baseV211_Make_readyELb0EEC1Ev
0000000000157454 W _ZNSt10_Head_baseILm0EPNSt13__future_base13_State_baseV211_Make_readyELb0EEC2Ev
0000000000158eff W _ZNSt10_Head_baseILm0EPNSt13__future_base7_ResultIvEELb0EE7_M_headERKS4_
000000000015678e W _ZNSt10_Head_baseILm0EPNSt13__future_base7_ResultIvEELb0EE7_M_headERS4_
00000000001574ee W _ZNSt10_Head_baseILm0EPNSt13__future_base7_ResultIvEELb0EEC1Ev
0000000000157550 W _ZNSt10_Head_baseILm0EPNSt13__future_base7_ResultIvEELb0EEC1IRS3_EEOT_
00000000001574ee W _ZNSt10_Head_baseILm0EPNSt13__future_base7_ResultIvEELb0EEC2Ev
0000000000157550 W _ZNSt10_Head_baseILm0EPNSt13__future_base7_ResultIvEELb0EEC2IRS3_EEOT_
0000000000158b4a W _ZNSt10_Head_baseILm0EPNSt6thread6_StateELb0EE7_M_headERS3_
0000000000158b34 W _ZNSt10_Head_baseILm0EPNSt6thread6_StateELb0EEC1Ev
0000000000158b34 W _ZNSt10_Head_baseILm0EPNSt6thread6_StateELb0EEC2Ev
0000000000158800 W _ZNSt10_Head_baseILm0EPSt6threadLb0EE7_M_headERKS2_
00000000001585bf W _ZNSt10_Head_baseILm0EPSt6threadLb0EE7_M_headERS2_
00000000001593ac W _ZNSt10_Head_baseILm0EPSt6threadLb0EEC1Ev
000000000015991c W _ZNSt10_Head_baseILm0EPSt6threadLb0EEC1IRS1_EEOT_
00000000001593ac W _ZNSt10_Head_baseILm0EPSt6threadLb0EEC2Ev
000000000015991c W _ZNSt10_Head_baseILm0EPSt6threadLb0EEC2IRS1_EEOT_
00000000001584f9 W _ZNSt10_Head_baseILm0EPSt8functionIFviEELb0EE7_M_headERS4_
0000000000157c0e W _ZNSt10_Head_baseILm0EPSt8functionIFviEELb0EEC1Ev
0000000000157c0e W _ZNSt10_Head_baseILm0EPSt8functionIFviEELb0EEC2Ev
0000000000158521 W _ZNSt10_Head_baseILm0EZN4ctpl11thread_pool10set_threadEiEUlvE_Lb0EE7_M_headERS3_
0000000000154e82 W _ZNSt10_Head_baseILm0EZN4ctpl11thread_pool10set_threadEiEUlvE_Lb0EEC1IRS2_EEOT_
0000000000157cbc W _ZNSt10_Head_baseILm0EZN4ctpl11thread_pool10set_threadEiEUlvE_Lb0EEC1IS2_EEOT_
0000000000154e82 W _ZNSt10_Head_baseILm0EZN4ctpl11thread_pool10set_threadEiEUlvE_Lb0EEC2IRS2_EEOT_
0000000000157cbc W _ZNSt10_Head_baseILm0EZN4ctpl11thread_pool10set_threadEiEUlvE_Lb0EEC2IS2_EEOT_
0000000000153826 W _ZNSt10_Head_baseILm0EZN4ctpl11thread_pool10set_threadEiEUlvE_Lb0EED1Ev
0000000000153826 W _ZNSt10_Head_baseILm0EZN4ctpl11thread_pool10set_threadEiEUlvE_Lb0EED2Ev
000000000015c87d W _ZNSt10_Head_baseILm1EiLb0EE7_M_headERKS0_
0000000000154118 W _ZNSt10_Head_baseILm1ENSt13__future_base12_Result_base8_DeleterELb1EE7_M_headERS3_
00000000001564f0 W _ZNSt10_Head_baseILm1ENSt13__future_base12_Result_base8_DeleterELb1EEC1Ev
0000000000154020 W _ZNSt10_Head_baseILm1ENSt13__future_base12_Result_base8_DeleterELb1EEC1IS2_EEOT_
00000000001564f0 W _ZNSt10_Head_baseILm1ENSt13__future_base12_Result_base8_DeleterELb1EEC2Ev
0000000000154020 W _ZNSt10_Head_baseILm1ENSt13__future_base12_Result_base8_DeleterELb1EEC2IS2_EEOT_
00000000001815b3 W _ZNSt10_Head_baseILm1EPN2us3gov10blockchain12runnable_appELb0EE7_M_headERS5_
000000000017c7da W _ZNSt10_Head_baseILm1EPN2us3gov10blockchain12runnable_appELb0EEC1IRS4_EEOT_
000000000017fe86 W _ZNSt10_Head_baseILm1EPN2us3gov10blockchain12runnable_appELb0EEC1IS4_EEOT_
000000000017c7da W _ZNSt10_Head_baseILm1EPN2us3gov10blockchain12runnable_appELb0EEC2IRS4_EEOT_
000000000017fe86 W _ZNSt10_Head_baseILm1EPN2us3gov10blockchain12runnable_appELb0EEC2IS4_EEOT_
0000000000181447 W _ZNSt10_Head_baseILm1EPN2us3gov10blockchain6daemon10networkingELb0EE7_M_headERS6_
000000000017c370 W _ZNSt10_Head_baseILm1EPN2us3gov10blockchain6daemon10networkingELb0EEC1IS5_EEOT_
000000000017c370 W _ZNSt10_Head_baseILm1EPN2us3gov10blockchain6daemon10networkingELb0EEC2IS5_EEOT_
00000000001815fb W _ZNSt10_Head_baseILm1EPN2us3gov10blockchain6daemon5syncdELb0EE7_M_headERS6_
000000000017ccf4 W _ZNSt10_Head_baseILm1EPN2us3gov10blockchain6daemon5syncdELb0EEC1IS5_EEOT_
000000000017ccf4 W _ZNSt10_Head_baseILm1EPN2us3gov10blockchain6daemon5syncdELb0EEC2IS5_EEOT_
0000000000157d73 W _ZNSt10_Head_baseILm1EPN2us3gov6socket6daemonELb0EE7_M_headERS5_
000000000015518e W _ZNSt10_Head_baseILm1EPN2us3gov6socket6daemonELb0EEC1IS4_EEOT_
000000000015518e W _ZNSt10_Head_baseILm1EPN2us3gov6socket6daemonELb0EEC2IS4_EEOT_
000000000014f095 W _ZNSt10_Head_baseILm1ESt14default_deleteIN2us3gov3net2osEELb1EE7_M_headERS6_
000000000014e682 W _ZNSt10_Head_baseILm1ESt14default_deleteIN2us3gov3net2osEELb1EEC1IS0_INS3_5posixEEEEOT_
000000000014e682 W _ZNSt10_Head_baseILm1ESt14default_deleteIN2us3gov3net2osEELb1EEC2IS0_INS3_5posixEEEEOT_
000000000014f05d W _ZNSt10_Head_baseILm1ESt14default_deleteIN2us3gov3net5posixEELb1EE7_M_headERS6_
000000000014f052 W _ZNSt10_Head_baseILm1ESt14default_deleteIN2us3gov3net5posixEELb1EEC1Ev
000000000014f052 W _ZNSt10_Head_baseILm1ESt14default_deleteIN2us3gov3net5posixEELb1EEC2Ev
000000000015875d W _ZNSt10_Head_baseILm1ESt14default_deleteINSt13__future_base13_State_baseV211_Make_readyEELb1EE7_M_headERS5_
0000000000157f7a W _ZNSt10_Head_baseILm1ESt14default_deleteINSt13__future_base13_State_baseV211_Make_readyEELb1EEC1Ev
0000000000157f7a W _ZNSt10_Head_baseILm1ESt14default_deleteINSt13__future_base13_State_baseV211_Make_readyEELb1EEC2Ev
00000000001591c9 W _ZNSt10_Head_baseILm1ESt14default_deleteINSt6thread6_StateEELb1EE7_M_headERS4_
00000000001591be W _ZNSt10_Head_baseILm1ESt14default_deleteINSt6thread6_StateEELb1EEC1Ev
00000000001591be W _ZNSt10_Head_baseILm1ESt14default_deleteINSt6thread6_StateEELb1EEC2Ev
0000000000158b72 W _ZNSt10_Head_baseILm1ESt14default_deleteISt6threadELb1EE7_M_headERS3_
00000000001595d8 W _ZNSt10_Head_baseILm1ESt14default_deleteISt6threadELb1EEC1Ev
0000000000159964 W _ZNSt10_Head_baseILm1ESt14default_deleteISt6threadELb1EEC1IS2_EEOT_
00000000001595d8 W _ZNSt10_Head_baseILm1ESt14default_deleteISt6threadELb1EEC2Ev
0000000000159964 W _ZNSt10_Head_baseILm1ESt14default_deleteISt6threadELb1EEC2IS2_EEOT_
0000000000158b09 W _ZNSt10_Head_baseILm1ESt14default_deleteISt8functionIFviEEELb1EE7_M_headERS5_
00000000001584ee W _ZNSt10_Head_baseILm1ESt14default_deleteISt8functionIFviEEELb1EEC1Ev
00000000001584ee W _ZNSt10_Head_baseILm1ESt14default_deleteISt8functionIFviEEELb1EEC2Ev
000000000015c88b W _ZNSt10_Head_baseILm2EPKcLb0EE7_M_headERKS2_
0000000000144c80 W _ZNSt10lock_guardISt5mutexEC1ERS0_
0000000000144c80 W _ZNSt10lock_guardISt5mutexEC2ERS0_
0000000000144cae W _ZNSt10lock_guardISt5mutexED1Ev
0000000000144cae W _ZNSt10lock_guardISt5mutexED2Ev
0000000000183536 W _ZNSt10__pair_getILm0EE11__const_getIKiPN2us3gov10blockchain3appEEERKT_RKSt4pairIS8_T0_E
000000000014f126 W _ZNSt10__pair_getILm0EE11__const_getIKiPN2us3gov6socket6clientEEERKT_RKSt4pairIS8_T0_E
00000000001835bc W _ZNSt10__pair_getILm0EE11__const_getIKPN2us3gov10blockchain6peer_tENS4_5shellEEERKT_RKSt4pairIS9_T0_E
000000000014f5e4 W _ZNSt10__pair_getILm0EE11__const_getIKPN2us3gov6socket6clientENSt6chrono10time_pointINS8_3_V212steady_clockENS8_8durationIlSt5ratioILl1ELl1000000000EEEEEEEERKT_RKSt4pairISH_T0_E
00000000001821aa W _ZNSt10__pair_getILm0EE5__getIKiPN2us3gov10blockchain3appEEERT_RSt4pairIS8_T0_E
000000000014e7c4 W _ZNSt10__pair_getILm0EE5__getIKiPN2us3gov6socket6clientEEERT_RSt4pairIS8_T0_E
000000000019667f W _ZNSt10__pair_getILm0EE5__getIKN2us3gov4cash3app11local_deltaEmEERT_RSt4pairIS8_T0_E
00000000001853c6 W _ZNSt10__pair_getILm0EE5__getIKN2us3gov6crypto9ripemd16010value_typeEmEERT_RSt4pairIS8_T0_E
0000000000195c20 W _ZNSt10__pair_getILm0EE5__getIKN2us3gov6crypto9ripemd16010value_typeENS3_4cash3app11local_delta9account_tEEERT_RSt4pairISC_T0_E
0000000000178d37 W _ZNSt10__pair_getILm0EE5__getIKN2us3gov6crypto9ripemd16010value_typeENSt7__cxx1112basic_stringIcSt11char_traitsIcESaIcEEEEERT_RSt4pairISE_T0_E
00000000001827df W _ZNSt10__pair_getILm0EE5__getIKN2us3gov6crypto9ripemd16010value_typeESt4pairIS6_mEEERT_RS8_ISA_T0_E
0000000000182b1a W _ZNSt10__pair_getILm0EE5__getIKPN2us3gov10blockchain6peer_tENS4_5shellEEERT_RSt4pairIS9_T0_E
000000000014ea40 W _ZNSt10__pair_getILm0EE5__getIKPN2us3gov6socket6clientENSt6chrono10time_pointINS8_3_V212steady_clockENS8_8durationIlSt5ratioILl1ELl1000000000EEEEEEEERT_RSt4pairISH_T0_E
0000000000152faa W _ZNSt10shared_ptrINSt13__future_base13_State_baseV2EEC1ERKS2_
0000000000156480 W _ZNSt10shared_ptrINSt13__future_base13_State_baseV2EEC1INS0_16_Task_state_baseIFviEEEvEERKS_IT_E
0000000000152faa W _ZNSt10shared_ptrINSt13__future_base13_State_baseV2EEC2ERKS2_
0000000000156480 W _ZNSt10shared_ptrINSt13__future_base13_State_baseV2EEC2INS0_16_Task_state_baseIFviEEEvEERKS_IT_E
0000000000151d3e W _ZNSt10shared_ptrINSt13__future_base13_State_baseV2EED1Ev
0000000000151d3e W _ZNSt10shared_ptrINSt13__future_base13_State_baseV2EED2Ev
0000000000159748 W _ZNSt10shared_ptrINSt13__future_base16_Task_state_baseIFviEEEED1Ev
0000000000159748 W _ZNSt10shared_ptrINSt13__future_base16_Task_state_baseIFviEEEED2Ev
0000000000157e58 W _ZNSt10shared_ptrISt13packaged_taskIFviEEEC1EOS3_
0000000000153b96 W _ZNSt10shared_ptrISt13packaged_taskIFviEEEC1ERKS3_
0000000000157e58 W _ZNSt10shared_ptrISt13packaged_taskIFviEEEC2EOS3_
0000000000153b96 W _ZNSt10shared_ptrISt13packaged_taskIFviEEEC2ERKS3_
0000000000153b3e W _ZNSt10shared_ptrISt13packaged_taskIFviEEED1Ev
0000000000153b3e W _ZNSt10shared_ptrISt13packaged_taskIFviEEED2Ev
00000000001534d8 W _ZNSt10shared_ptrISt6atomicIbEEaSEOS2_
0000000000158530 W _ZNSt10shared_ptrISt6atomicIbEEC1EOS2_
0000000000152486 W _ZNSt10shared_ptrISt6atomicIbEEC1ERKS2_
000000000015890a W _ZNSt10shared_ptrISt6atomicIbEEC1Ev
0000000000155e66 W _ZNSt10shared_ptrISt6atomicIbEEC1ISaIS1_EJbEEESt19_Sp_make_shared_tagRKT_DpOT0_
0000000000158530 W _ZNSt10shared_ptrISt6atomicIbEEC2EOS2_
0000000000152486 W _ZNSt10shared_ptrISt6atomicIbEEC2ERKS2_
000000000015890a W _ZNSt10shared_ptrISt6atomicIbEEC2Ev
0000000000155e66 W _ZNSt10shared_ptrISt6atomicIbEEC2ISaIS1_EJbEEESt19_Sp_make_shared_tagRKT_DpOT0_
0000000000151ffe W _ZNSt10shared_ptrISt6atomicIbEED1Ev
0000000000151ffe W _ZNSt10shared_ptrISt6atomicIbEED2Ev
0000000000146a2a W _ZNSt10unique_ptrIN2us3gov3net2osESt14default_deleteIS3_EE11get_deleterEv
0000000000144fba W _ZNSt10unique_ptrIN2us3gov3net2osESt14default_deleteIS3_EEC1INS2_5posixES4_IS8_EvEEOS_IT_T0_E
0000000000144fba W _ZNSt10unique_ptrIN2us3gov3net2osESt14default_deleteIS3_EEC2INS2_5posixES4_IS8_EvEEOS_IT_T0_E
000000000014500c W _ZNSt10unique_ptrIN2us3gov3net2osESt14default_deleteIS3_EED1Ev
000000000014500c W _ZNSt10unique_ptrIN2us3gov3net2osESt14default_deleteIS3_EED2Ev
000000000014694e W _ZNSt10unique_ptrIN2us3gov3net5posixESt14default_deleteIS3_EE11get_deleterEv
000000000014698c W _ZNSt10unique_ptrIN2us3gov3net5posixESt14default_deleteIS3_EE7releaseEv
000000000014690e W _ZNSt10unique_ptrIN2us3gov3net5posixESt14default_deleteIS3_EEC1IS5_vEEPS3_
000000000014690e W _ZNSt10unique_ptrIN2us3gov3net5posixESt14default_deleteIS3_EEC2IS5_vEEPS3_
0000000000144f62 W _ZNSt10unique_ptrIN2us3gov3net5posixESt14default_deleteIS3_EED1Ev
0000000000144f62 W _ZNSt10unique_ptrIN2us3gov3net5posixESt14default_deleteIS3_EED2Ev
0000000000153d48 W _ZNSt10unique_ptrINSt13__future_base12_Result_baseENS1_8_DeleterEE11get_deleterEv
0000000000152f04 W _ZNSt10unique_ptrINSt13__future_base12_Result_baseENS1_8_DeleterEE4swapERS3_
0000000000153148 W _ZNSt10unique_ptrINSt13__future_base12_Result_baseENS1_8_DeleterEEC1INS0_7_ResultIvEES2_vEEOS_IT_T0_E
0000000000152a10 W _ZNSt10unique_ptrINSt13__future_base12_Result_baseENS1_8_DeleterEEC1IS2_vEEv
0000000000153148 W _ZNSt10unique_ptrINSt13__future_base12_Result_baseENS1_8_DeleterEEC2INS0_7_ResultIvEES2_vEEOS_IT_T0_E
0000000000152a10 W _ZNSt10unique_ptrINSt13__future_base12_Result_baseENS1_8_DeleterEEC2IS2_vEEv
0000000000152a36 W _ZNSt10unique_ptrINSt13__future_base12_Result_baseENS1_8_DeleterEED1Ev
0000000000152a36 W _ZNSt10unique_ptrINSt13__future_base12_Result_baseENS1_8_DeleterEED2Ev
0000000000153ef2 W _ZNSt10unique_ptrINSt13__future_base13_State_baseV211_Make_readyESt14default_deleteIS2_EE11get_deleterEv
0000000000152d92 W _ZNSt10unique_ptrINSt13__future_base13_State_baseV211_Make_readyESt14default_deleteIS2_EE7releaseEv
0000000000152c96 W _ZNSt10unique_ptrINSt13__future_base13_State_baseV211_Make_readyESt14default_deleteIS2_EEC1IS4_vEEPS2_
0000000000152c96 W _ZNSt10unique_ptrINSt13__future_base13_State_baseV211_Make_readyESt14default_deleteIS2_EEC2IS4_vEEPS2_
0000000000152cbc W _ZNSt10unique_ptrINSt13__future_base13_State_baseV211_Make_readyESt14default_deleteIS2_EED1Ev
0000000000152cbc W _ZNSt10unique_ptrINSt13__future_base13_State_baseV211_Make_readyESt14default_deleteIS2_EED2Ev
000000000015423a W _ZNSt10unique_ptrINSt13__future_base7_ResultIvEENS0_12_Result_base8_DeleterEE11get_deleterEv
0000000000154254 W _ZNSt10unique_ptrINSt13__future_base7_ResultIvEENS0_12_Result_base8_DeleterEE7releaseEv
00000000001530c4 W _ZNSt10unique_ptrINSt13__future_base7_ResultIvEENS0_12_Result_base8_DeleterEEC1EOS5_
0000000000153038 W _ZNSt10unique_ptrINSt13__future_base7_ResultIvEENS0_12_Result_base8_DeleterEEC1IS4_vEEPS2_
00000000001530c4 W _ZNSt10unique_ptrINSt13__future_base7_ResultIvEENS0_12_Result_base8_DeleterEEC2EOS5_
0000000000153038 W _ZNSt10unique_ptrINSt13__future_base7_ResultIvEENS0_12_Result_base8_DeleterEEC2IS4_vEEPS2_
000000000015305e W _ZNSt10unique_ptrINSt13__future_base7_ResultIvEENS0_12_Result_base8_DeleterEED1Ev
000000000015305e W _ZNSt10unique_ptrINSt13__future_base7_ResultIvEENS0_12_Result_base8_DeleterEED2Ev
0000000000156186 W _ZNSt10unique_ptrINSt6thread6_StateESt14default_deleteIS1_EE11get_deleterEv
0000000000156146 W _ZNSt10unique_ptrINSt6thread6_StateESt14default_deleteIS1_EEC1IS3_vEEPS1_
0000000000156146 W _ZNSt10unique_ptrINSt6thread6_StateESt14default_deleteIS1_EEC2IS3_vEEPS1_
0000000000154f74 W _ZNSt10unique_ptrINSt6thread6_StateESt14default_deleteIS1_EED1Ev
0000000000154f74 W _ZNSt10unique_ptrINSt6thread6_StateESt14default_deleteIS1_EED2Ev
0000000000155046 W _ZNSt10unique_ptrISt6threadSt14default_deleteIS0_EE11get_deleterEv
0000000000153952 W _ZNSt10unique_ptrISt6threadSt14default_deleteIS0_EE5resetEPS0_
00000000001593c2 W _ZNSt10unique_ptrISt6threadSt14default_deleteIS0_EE7releaseEv
0000000000158fe4 W _ZNSt10unique_ptrISt6threadSt14default_deleteIS0_EEC1EOS3_
0000000000158846 W _ZNSt10unique_ptrISt6threadSt14default_deleteIS0_EEC1IS2_vEEv
0000000000158fe4 W _ZNSt10unique_ptrISt6threadSt14default_deleteIS0_EEC2EOS3_
0000000000158846 W _ZNSt10unique_ptrISt6threadSt14default_deleteIS0_EEC2IS2_vEEv
0000000000157fe2 W _ZNSt10unique_ptrISt6threadSt14default_deleteIS0_EED1Ev
0000000000157fe2 W _ZNSt10unique_ptrISt6threadSt14default_deleteIS0_EED2Ev
0000000000154d4c W _ZNSt10unique_ptrISt8functionIFviEESt14default_deleteIS2_EE11get_deleterEv
000000000015362e W _ZNSt10unique_ptrISt8functionIFviEESt14default_deleteIS2_EEC1IS4_vEEPS2_
000000000015362e W _ZNSt10unique_ptrISt8functionIFviEESt14default_deleteIS2_EEC2IS4_vEEPS2_
0000000000153654 W _ZNSt10unique_ptrISt8functionIFviEESt14default_deleteIS2_EED1Ev
0000000000153654 W _ZNSt10unique_ptrISt8functionIFviEESt14default_deleteIS2_EED2Ev
0000000000152d3c W _ZNSt10__weak_ptrINSt13__future_base13_State_baseV2ELN9__gnu_cxx12_Lock_policyE2EEaSEOS4_
0000000000159fb2 W _ZNSt10__weak_ptrINSt13__future_base13_State_baseV2ELN9__gnu_cxx12_Lock_policyE2EEC1EOS4_
0000000000152c42 W _ZNSt10__weak_ptrINSt13__future_base13_State_baseV2ELN9__gnu_cxx12_Lock_policyE2EEC1Ev
0000000000159fb2 W _ZNSt10__weak_ptrINSt13__future_base13_State_baseV2ELN9__gnu_cxx12_Lock_policyE2EEC2EOS4_
0000000000152c42 W _ZNSt10__weak_ptrINSt13__future_base13_State_baseV2ELN9__gnu_cxx12_Lock_policyE2EEC2Ev
000000000015198a W _ZNSt10__weak_ptrINSt13__future_base13_State_baseV2ELN9__gnu_cxx12_Lock_policyE2EED1Ev
000000000015198a W _ZNSt10__weak_ptrINSt13__future_base13_State_baseV2ELN9__gnu_cxx12_Lock_policyE2EED2Ev
00000000001513f1 W _ZNSt11atomic_flag7_S_initEb
00000000001513ca W _ZNSt11atomic_flagC1Eb
00000000001513ca W _ZNSt11atomic_flagC2Eb
0000000000179705 W _ZNSt11char_traitsIcE11eq_int_typeERKiS2_
00000000001796f5 W _ZNSt11char_traitsIcE12to_char_typeERKi
0000000000179724 W _ZNSt11char_traitsIcE3eofEv
000000000013178e W _ZNSt11char_traitsIcE4copyEPcPKcm
0000000000131754 W _ZNSt11char_traitsIcE4moveEPcPKcm
00000000001317ce W _ZNSt11char_traitsIcE6assignEPcmc
00000000001316e9 W _ZNSt11char_traitsIcE6assignERcRKc
0000000000131705 W _ZNSt11char_traitsIcE6lengthEPKc
000000000015c899 W _ZNSt11char_traitsIcE7compareEPKcS2_m
0000000000160f1d W _ZNSt11__copy_moveILb0ELb1ESt26random_access_iterator_tagE8__copy_mIPN2us3gov4peer6peer_tEEEPT_PKS8_SB_S9_
000000000015980c W _ZNSt11__copy_moveILb0ELb1ESt26random_access_iterator_tagE8__copy_mIPPSt8functionIFviEEEEPT_PKS8_SB_S9_
000000000013425e W _ZNSt11__copy_moveILb1ELb1ESt26random_access_iterator_tagE8__copy_mIhEEPT_PKS3_S6_S4_
000000000014f6ae W _ZNSt11__copy_moveILb1ELb1ESt26random_access_iterator_tagE8__copy_mIiEEPT_PKS3_S6_S4_
00000000001835d8 W _ZNSt11__copy_moveILb1ELb1ESt26random_access_iterator_tagE8__copy_mIPN2us3gov10blockchain6peer_tEEEPT_PKS8_SB_S9_
0000000000161b48 W _ZNSt11__copy_moveILb1ELb1ESt26random_access_iterator_tagE8__copy_mIPN2us3gov4peer6peer_tEEEPT_PKS8_SB_S9_
000000000014f713 W _ZNSt11__copy_moveILb1ELb1ESt26random_access_iterator_tagE8__copy_mIPN2us3gov6socket6clientEEEPT_PKS8_SB_S9_
00000000001568d2 W _ZNSt11_Deque_baseIPSt8functionIFviEESaIS3_EE11_Deque_implC1Ev
00000000001568d2 W _ZNSt11_Deque_baseIPSt8functionIFviEESaIS3_EE11_Deque_implC2Ev
0000000000154516 W _ZNSt11_Deque_baseIPSt8functionIFviEESaIS3_EE11_Deque_implD1Ev
0000000000154516 W _ZNSt11_Deque_baseIPSt8functionIFviEESaIS3_EE11_Deque_implD2Ev
00000000001576aa W _ZNSt11_Deque_baseIPSt8functionIFviEESaIS3_EE15_M_allocate_mapEm
0000000000157716 W _ZNSt11_Deque_baseIPSt8functionIFviEESaIS3_EE15_M_create_nodesEPPS3_S7_
0000000000158070 W _ZNSt11_Deque_baseIPSt8functionIFviEESaIS3_EE16_M_allocate_nodeEv
0000000000155a5a W _ZNSt11_Deque_baseIPSt8functionIFviEESaIS3_EE16_M_destroy_nodesEPPS3_S7_
0000000000155aa0 W _ZNSt11_Deque_baseIPSt8functionIFviEESaIS3_EE17_M_deallocate_mapEPPS3_m
0000000000156924 W _ZNSt11_Deque_baseIPSt8functionIFviEESaIS3_EE17_M_initialize_mapEm
0000000000156ad8 W _ZNSt11_Deque_baseIPSt8functionIFviEESaIS3_EE18_M_deallocate_nodeEPS3_
00000000001545f6 W _ZNSt11_Deque_baseIPSt8functionIFviEESaIS3_EE19_M_get_Tp_allocatorEv
00000000001559f0 W _ZNSt11_Deque_baseIPSt8functionIFviEESaIS3_EEC1Ev
00000000001559f0 W _ZNSt11_Deque_baseIPSt8functionIFviEESaIS3_EEC2Ev
0000000000154532 W _ZNSt11_Deque_baseIPSt8functionIFviEESaIS3_EED1Ev
0000000000154532 W _ZNSt11_Deque_baseIPSt8functionIFviEESaIS3_EED2Ev
                 U _ZNSt11logic_errorC2ERKNSt7__cxx1112basic_stringIcSt11char_traitsIcESaIcEEE
                 U _ZNSt11logic_errorC2ERKS_
0000000000150ef1 W _ZNSt11this_thread9sleep_forIlSt5ratioILl1ELl1000EEEEvRKNSt6chrono8durationIT_T0_EE
00000000001815dd W _ZNSt11_Tuple_implILm0EJMN2us3gov10blockchain12runnable_appEFvvEPS3_EE7_M_headERS7_
00000000001815c1 W _ZNSt11_Tuple_implILm0EJMN2us3gov10blockchain12runnable_appEFvvEPS3_EE7_M_tailERS7_
000000000017feb0 W _ZNSt11_Tuple_implILm0EJMN2us3gov10blockchain12runnable_appEFvvEPS3_EEC1EOS7_
000000000017c74e W _ZNSt11_Tuple_implILm0EJMN2us3gov10blockchain12runnable_appEFvvEPS3_EEC1IS5_JRS6_EvEEOT_DpOT0_
000000000017feb0 W _ZNSt11_Tuple_implILm0EJMN2us3gov10blockchain12runnable_appEFvvEPS3_EEC2EOS7_
000000000017c74e W _ZNSt11_Tuple_implILm0EJMN2us3gov10blockchain12runnable_appEFvvEPS3_EEC2IS5_JRS6_EvEEOT_DpOT0_
0000000000181625 W _ZNSt11_Tuple_implILm0EJMN2us3gov10blockchain6daemon5syncdEFvvEPS4_EE7_M_headERS8_
0000000000181609 W _ZNSt11_Tuple_implILm0EJMN2us3gov10blockchain6daemon5syncdEFvvEPS4_EE7_M_tailERS8_
000000000017ff4e W _ZNSt11_Tuple_implILm0EJMN2us3gov10blockchain6daemon5syncdEFvvEPS4_EEC1EOS8_
000000000017cc68 W _ZNSt11_Tuple_implILm0EJMN2us3gov10blockchain6daemon5syncdEFvvEPS4_EEC1IS6_JS7_EvEEOT_DpOT0_
000000000017ff4e W _ZNSt11_Tuple_implILm0EJMN2us3gov10blockchain6daemon5syncdEFvvEPS4_EEC2EOS8_
000000000017cc68 W _ZNSt11_Tuple_implILm0EJMN2us3gov10blockchain6daemon5syncdEFvvEPS4_EEC2IS6_JS7_EvEEOT_DpOT0_
0000000000181471 W _ZNSt11_Tuple_implILm0EJMN2us3gov6socket6daemonEFvvEPNS1_10blockchain6daemon10networkingEEE7_M_headERSA_
0000000000181455 W _ZNSt11_Tuple_implILm0EJMN2us3gov6socket6daemonEFvvEPNS1_10blockchain6daemon10networkingEEE7_M_tailERSA_
000000000017fd16 W _ZNSt11_Tuple_implILm0EJMN2us3gov6socket6daemonEFvvEPNS1_10blockchain6daemon10networkingEEEC1EOSA_
000000000017c2e4 W _ZNSt11_Tuple_implILm0EJMN2us3gov6socket6daemonEFvvEPNS1_10blockchain6daemon10networkingEEEC1IS5_JS9_EvEEOT_DpOT0_
000000000017fd16 W _ZNSt11_Tuple_implILm0EJMN2us3gov6socket6daemonEFvvEPNS1_10blockchain6daemon10networkingEEEC2EOSA_
000000000017c2e4 W _ZNSt11_Tuple_implILm0EJMN2us3gov6socket6daemonEFvvEPNS1_10blockchain6daemon10networkingEEEC2IS5_JS9_EvEEOT_DpOT0_
0000000000157d9d W _ZNSt11_Tuple_implILm0EJMN2us3gov6socket6serverEFvvEPNS2_6daemonEEE7_M_headERS8_
0000000000157d81 W _ZNSt11_Tuple_implILm0EJMN2us3gov6socket6serverEFvvEPNS2_6daemonEEE7_M_tailERS8_
0000000000157064 W _ZNSt11_Tuple_implILm0EJMN2us3gov6socket6serverEFvvEPNS2_6daemonEEEC1EOS8_
0000000000155102 W _ZNSt11_Tuple_implILm0EJMN2us3gov6socket6serverEFvvEPNS2_6daemonEEEC1IS5_JS7_EvEEOT_DpOT0_
0000000000157064 W _ZNSt11_Tuple_implILm0EJMN2us3gov6socket6serverEFvvEPNS2_6daemonEEEC2EOS8_
0000000000155102 W _ZNSt11_Tuple_implILm0EJMN2us3gov6socket6serverEFvvEPNS2_6daemonEEEC2IS5_JS7_EvEEOT_DpOT0_
000000000015c7dd W _ZNSt11_Tuple_implILm0EJNSt6chrono8durationIlSt5ratioILl1ELl1000EEEEiPKcEE7_M_headERKS7_
000000000014e6db W _ZNSt11_Tuple_implILm0EJPN2us3gov3net2osESt14default_deleteIS3_EEE7_M_headERKS7_
000000000014d489 W _ZNSt11_Tuple_implILm0EJPN2us3gov3net2osESt14default_deleteIS3_EEE7_M_headERS7_
000000000014b4cc W _ZNSt11_Tuple_implILm0EJPN2us3gov3net2osESt14default_deleteIS3_EEEC1IRS4_JS5_INS2_5posixEEEvEEOT_DpOT0_
000000000014b4cc W _ZNSt11_Tuple_implILm0EJPN2us3gov3net2osESt14default_deleteIS3_EEEC2IRS4_JS5_INS2_5posixEEEvEEOT_DpOT0_
000000000014f06b W _ZNSt11_Tuple_implILm0EJPN2us3gov3net5posixESt14default_deleteIS3_EEE7_M_headERKS7_
000000000014d3df W _ZNSt11_Tuple_implILm0EJPN2us3gov3net5posixESt14default_deleteIS3_EEE7_M_headERS7_
000000000014d3b8 W _ZNSt11_Tuple_implILm0EJPN2us3gov3net5posixESt14default_deleteIS3_EEEC1Ev
000000000014d3b8 W _ZNSt11_Tuple_implILm0EJPN2us3gov3net5posixESt14default_deleteIS3_EEEC2Ev
0000000000157f60 W _ZNSt11_Tuple_implILm0EJPNSt13__future_base12_Result_baseENS1_8_DeleterEEE7_M_headERKS4_
000000000015566b W _ZNSt11_Tuple_implILm0EJPNSt13__future_base12_Result_baseENS1_8_DeleterEEE7_M_headERS4_
000000000015410a W _ZNSt11_Tuple_implILm0EJPNSt13__future_base12_Result_baseENS1_8_DeleterEEE7_M_tailERS4_
00000000001565dc W _ZNSt11_Tuple_implILm0EJPNSt13__future_base12_Result_baseENS1_8_DeleterEEEaSEOS4_
000000000015409a W _ZNSt11_Tuple_implILm0EJPNSt13__future_base12_Result_baseENS1_8_DeleterEEEC1EOS4_
0000000000153d06 W _ZNSt11_Tuple_implILm0EJPNSt13__future_base12_Result_baseENS1_8_DeleterEEEC1Ev
0000000000156738 W _ZNSt11_Tuple_implILm0EJPNSt13__future_base12_Result_baseENS1_8_DeleterEEEC1IRS2_JS3_EvEEOT_DpOT0_
000000000015409a W _ZNSt11_Tuple_implILm0EJPNSt13__future_base12_Result_baseENS1_8_DeleterEEEC2EOS4_
0000000000153d06 W _ZNSt11_Tuple_implILm0EJPNSt13__future_base12_Result_baseENS1_8_DeleterEEEC2Ev
0000000000156738 W _ZNSt11_Tuple_implILm0EJPNSt13__future_base12_Result_baseENS1_8_DeleterEEEC2IRS2_JS3_EvEEOT_DpOT0_
0000000000157fad W _ZNSt11_Tuple_implILm0EJPNSt13__future_base13_State_baseV211_Make_readyESt14default_deleteIS2_EEE7_M_headERKS6_
000000000015746a W _ZNSt11_Tuple_implILm0EJPNSt13__future_base13_State_baseV211_Make_readyESt14default_deleteIS2_EEE7_M_headERS6_
000000000015654a W _ZNSt11_Tuple_implILm0EJPNSt13__future_base13_State_baseV211_Make_readyESt14default_deleteIS2_EEEC1Ev
000000000015654a W _ZNSt11_Tuple_implILm0EJPNSt13__future_base13_State_baseV211_Make_readyESt14default_deleteIS2_EEEC2Ev
0000000000158779 W _ZNSt11_Tuple_implILm0EJPNSt13__future_base7_ResultIvEENS0_12_Result_base8_DeleterEEE7_M_headERKS6_
0000000000155850 W _ZNSt11_Tuple_implILm0EJPNSt13__future_base7_ResultIvEENS0_12_Result_base8_DeleterEEE7_M_headERS6_
000000000015664c W _ZNSt11_Tuple_implILm0EJPNSt13__future_base7_ResultIvEENS0_12_Result_base8_DeleterEEEC1Ev
00000000001566d4 W _ZNSt11_Tuple_implILm0EJPNSt13__future_base7_ResultIvEENS0_12_Result_base8_DeleterEEEC1IRS3_JS5_EvEEOT_DpOT0_
000000000015664c W _ZNSt11_Tuple_implILm0EJPNSt13__future_base7_ResultIvEENS0_12_Result_base8_DeleterEEEC2Ev
00000000001566d4 W _ZNSt11_Tuple_implILm0EJPNSt13__future_base7_ResultIvEENS0_12_Result_base8_DeleterEEEC2IRS3_JS5_EvEEOT_DpOT0_
000000000015858b W _ZNSt11_Tuple_implILm0EJPNSt6thread6_StateESt14default_deleteIS1_EEE7_M_headERS5_
0000000000158564 W _ZNSt11_Tuple_implILm0EJPNSt6thread6_StateESt14default_deleteIS1_EEEC1Ev
0000000000158564 W _ZNSt11_Tuple_implILm0EJPNSt6thread6_StateESt14default_deleteIS1_EEEC2Ev
00000000001580d7 W _ZNSt11_Tuple_implILm0EJPSt6threadSt14default_deleteIS0_EEE7_M_headERKS4_
0000000000157d3f W _ZNSt11_Tuple_implILm0EJPSt6threadSt14default_deleteIS0_EEE7_M_headERS4_
0000000000158f64 W _ZNSt11_Tuple_implILm0EJPSt6threadSt14default_deleteIS0_EEEC1Ev
00000000001596d2 W _ZNSt11_Tuple_implILm0EJPSt6threadSt14default_deleteIS0_EEEC1IRS1_JS3_EvEEOT_DpOT0_
0000000000158f64 W _ZNSt11_Tuple_implILm0EJPSt6threadSt14default_deleteIS0_EEEC2Ev
00000000001596d2 W _ZNSt11_Tuple_implILm0EJPSt6threadSt14default_deleteIS0_EEEC2IRS1_JS3_EvEEOT_DpOT0_
0000000000157c24 W _ZNSt11_Tuple_implILm0EJPSt8functionIFviEESt14default_deleteIS2_EEE7_M_headERS6_
0000000000156f12 W _ZNSt11_Tuple_implILm0EJPSt8functionIFviEESt14default_deleteIS2_EEEC1Ev
0000000000156f12 W _ZNSt11_Tuple_implILm0EJPSt8functionIFviEESt14default_deleteIS2_EEEC2Ev
0000000000157c58 W _ZNSt11_Tuple_implILm0EJZN4ctpl11thread_pool10set_threadEiEUlvE_EE7_M_headERS3_
0000000000156f6e W _ZNSt11_Tuple_implILm0EJZN4ctpl11thread_pool10set_threadEiEUlvE_EEC1EOS3_
0000000000154e04 W _ZNSt11_Tuple_implILm0EJZN4ctpl11thread_pool10set_threadEiEUlvE_EEC1IRS2_EEOT_
0000000000156f6e W _ZNSt11_Tuple_implILm0EJZN4ctpl11thread_pool10set_threadEiEUlvE_EEC2EOS3_
0000000000154e04 W _ZNSt11_Tuple_implILm0EJZN4ctpl11thread_pool10set_threadEiEUlvE_EEC2IRS2_EEOT_
0000000000153842 W _ZNSt11_Tuple_implILm0EJZN4ctpl11thread_pool10set_threadEiEUlvE_EED1Ev
0000000000153842 W _ZNSt11_Tuple_implILm0EJZN4ctpl11thread_pool10set_threadEiEUlvE_EED2Ev
000000000015c7fb W _ZNSt11_Tuple_implILm1EJiPKcEE7_M_headERKS2_
0000000000153ff8 W _ZNSt11_Tuple_implILm1EJNSt13__future_base12_Result_base8_DeleterEEE7_M_headERS3_
00000000001574b8 W _ZNSt11_Tuple_implILm1EJNSt13__future_base12_Result_base8_DeleterEEEaSEOS3_
0000000000152eca W _ZNSt11_Tuple_implILm1EJNSt13__future_base12_Result_base8_DeleterEEEC1EOS3_
00000000001554d6 W _ZNSt11_Tuple_implILm1EJNSt13__future_base12_Result_base8_DeleterEEEC1Ev
000000000015751e W _ZNSt11_Tuple_implILm1EJNSt13__future_base12_Result_base8_DeleterEEEC1IS2_EEOT_
0000000000152eca W _ZNSt11_Tuple_implILm1EJNSt13__future_base12_Result_base8_DeleterEEEC2EOS3_
00000000001554d6 W _ZNSt11_Tuple_implILm1EJNSt13__future_base12_Result_base8_DeleterEEEC2Ev
000000000015751e W _ZNSt11_Tuple_implILm1EJNSt13__future_base12_Result_base8_DeleterEEEC2IS2_EEOT_
000000000017fe6c W _ZNSt11_Tuple_implILm1EJPN2us3gov10blockchain12runnable_appEEE7_M_headERS5_
000000000017e4cc W _ZNSt11_Tuple_implILm1EJPN2us3gov10blockchain12runnable_appEEEC1EOS5_
000000000017c7a6 W _ZNSt11_Tuple_implILm1EJPN2us3gov10blockchain12runnable_appEEEC1IRS4_EEOT_
000000000017e4cc W _ZNSt11_Tuple_implILm1EJPN2us3gov10blockchain12runnable_appEEEC2EOS5_
000000000017c7a6 W _ZNSt11_Tuple_implILm1EJPN2us3gov10blockchain12runnable_appEEEC2IRS4_EEOT_
000000000017fcfc W _ZNSt11_Tuple_implILm1EJPN2us3gov10blockchain6daemon10networkingEEE7_M_headERS6_
000000000017e25a W _ZNSt11_Tuple_implILm1EJPN2us3gov10blockchain6daemon10networkingEEEC1EOS6_
000000000017c33c W _ZNSt11_Tuple_implILm1EJPN2us3gov10blockchain6daemon10networkingEEEC1IS5_EEOT_
000000000017e25a W _ZNSt11_Tuple_implILm1EJPN2us3gov10blockchain6daemon10networkingEEEC2EOS6_
000000000017c33c W _ZNSt11_Tuple_implILm1EJPN2us3gov10blockchain6daemon10networkingEEEC2IS5_EEOT_
000000000017ff33 W _ZNSt11_Tuple_implILm1EJPN2us3gov10blockchain6daemon5syncdEEE7_M_headERS6_
000000000017e7fa W _ZNSt11_Tuple_implILm1EJPN2us3gov10blockchain6daemon5syncdEEEC1EOS6_
000000000017ccc0 W _ZNSt11_Tuple_implILm1EJPN2us3gov10blockchain6daemon5syncdEEEC1IS5_EEOT_
000000000017e7fa W _ZNSt11_Tuple_implILm1EJPN2us3gov10blockchain6daemon5syncdEEEC2EOS6_
000000000017ccc0 W _ZNSt11_Tuple_implILm1EJPN2us3gov10blockchain6daemon5syncdEEEC2IS5_EEOT_
000000000015704a W _ZNSt11_Tuple_implILm1EJPN2us3gov6socket6daemonEEE7_M_headERS5_
0000000000156246 W _ZNSt11_Tuple_implILm1EJPN2us3gov6socket6daemonEEEC1EOS5_
000000000015515a W _ZNSt11_Tuple_implILm1EJPN2us3gov6socket6daemonEEEC1IS4_EEOT_
0000000000156246 W _ZNSt11_Tuple_implILm1EJPN2us3gov6socket6daemonEEEC2EOS5_
000000000015515a W _ZNSt11_Tuple_implILm1EJPN2us3gov6socket6daemonEEEC2IS4_EEOT_
000000000014e6c1 W _ZNSt11_Tuple_implILm1EJSt14default_deleteIN2us3gov3net2osEEEE7_M_headERS6_
000000000014d42e W _ZNSt11_Tuple_implILm1EJSt14default_deleteIN2us3gov3net2osEEEEC1IS0_INS3_5posixEEEEOT_
000000000014d42e W _ZNSt11_Tuple_implILm1EJSt14default_deleteIN2us3gov3net2osEEEEC2IS0_INS3_5posixEEEEOT_
000000000014e64e W _ZNSt11_Tuple_implILm1EJSt14default_deleteIN2us3gov3net5posixEEEE7_M_headERS6_
000000000014e60e W _ZNSt11_Tuple_implILm1EJSt14default_deleteIN2us3gov3net5posixEEEEC1Ev
000000000014e60e W _ZNSt11_Tuple_implILm1EJSt14default_deleteIN2us3gov3net5posixEEEEC2Ev
0000000000157f93 W _ZNSt11_Tuple_implILm1EJSt14default_deleteINSt13__future_base13_State_baseV211_Make_readyEEEE7_M_headERS5_
0000000000157438 W _ZNSt11_Tuple_implILm1EJSt14default_deleteINSt13__future_base13_State_baseV211_Make_readyEEEEC1Ev
0000000000157438 W _ZNSt11_Tuple_implILm1EJSt14default_deleteINSt13__future_base13_State_baseV211_Make_readyEEEEC2Ev
0000000000158b58 W _ZNSt11_Tuple_implILm1EJSt14default_deleteINSt6thread6_StateEEEE7_M_headERS4_
0000000000158b18 W _ZNSt11_Tuple_implILm1EJSt14default_deleteINSt6thread6_StateEEEEC1Ev
0000000000158b18 W _ZNSt11_Tuple_implILm1EJSt14default_deleteINSt6thread6_StateEEEEC2Ev
00000000001585cd W _ZNSt11_Tuple_implILm1EJSt14default_deleteISt6threadEEE7_M_headERS3_
0000000000159390 W _ZNSt11_Tuple_implILm1EJSt14default_deleteISt6threadEEEC1Ev
00000000001598ea W _ZNSt11_Tuple_implILm1EJSt14default_deleteISt6threadEEEC1IS2_EEOT_
0000000000159390 W _ZNSt11_Tuple_implILm1EJSt14default_deleteISt6threadEEEC2Ev
00000000001598ea W _ZNSt11_Tuple_implILm1EJSt14default_deleteISt6threadEEEC2IS2_EEOT_
0000000000158507 W _ZNSt11_Tuple_implILm1EJSt14default_deleteISt8functionIFviEEEEE7_M_headERS5_
0000000000157bf2 W _ZNSt11_Tuple_implILm1EJSt14default_deleteISt8functionIFviEEEEEC1Ev
0000000000157bf2 W _ZNSt11_Tuple_implILm1EJSt14default_deleteISt8functionIFviEEEEEC2Ev
000000000015c819 W _ZNSt11_Tuple_implILm2EJPKcEE7_M_headERKS2_
0000000000154c0c W _ZNSt11unique_lockISt5mutexE4lockEv
0000000000154c5e W _ZNSt11unique_lockISt5mutexE6unlockEv
0000000000153544 W _ZNSt11unique_lockISt5mutexEC1ERS0_
0000000000153544 W _ZNSt11unique_lockISt5mutexEC2ERS0_
000000000015358a W _ZNSt11unique_lockISt5mutexED1Ev
000000000015358a W _ZNSt11unique_lockISt5mutexED2Ev
000000000018f25f W _ZNSt12_Destroy_auxILb0EE9__destroyIPN2us3gov4cash2tx7input_tEEEvT_S8_
000000000015046f W _ZNSt12_Destroy_auxILb0EE9__destroyIPNSt7__cxx1112basic_stringIcSt11char_traitsIcESaIcEEEEEvT_S9_
0000000000156899 W _ZNSt12_Destroy_auxILb0EE9__destroyIPSt10shared_ptrISt6atomicIbEEEEvT_S7_
000000000015680b W _ZNSt12_Destroy_auxILb0EE9__destroyIPSt10unique_ptrISt6threadSt14default_deleteIS3_EEEEvT_S8_
0000000000176441 W _ZNSt12_Destroy_auxILb0EE9__destroyIPSt4pairIN2us3gov6crypto9ripemd16010value_typeENSt7__cxx1112basic_stringIcSt11char_traitsIcESaIcEEEEEEvT_SG_
000000000017fda1 W _ZNSt12_Destroy_auxILb0EE9__destroyIPSt6threadEEvT_S4_
0000000000160634 W _ZNSt12_Destroy_auxILb1EE9__destroyIN9__gnu_cxx17__normal_iteratorIPPN2us3gov4peer6peer_tESt6vectorIS8_SaIS8_EEEEEEvT_SE_
0000000000133be8 W _ZNSt12_Destroy_auxILb1EE9__destroyIPhEEvT_S3_
000000000014b561 W _ZNSt12_Destroy_auxILb1EE9__destroyIPiEEvT_S3_
000000000018f2bf W _ZNSt12_Destroy_auxILb1EE9__destroyIPN2us3gov4cash2tx8output_tEEEvT_S8_
000000000017fc4b W _ZNSt12_Destroy_auxILb1EE9__destroyIPN2us3gov6crypto9ripemd16010value_typeEEEvT_S8_
00000000001801bf W _ZNSt12_Destroy_auxILb1EE9__destroyIPPN2us3gov10blockchain6peer_tEEEvT_S8_
000000000015f977 W _ZNSt12_Destroy_auxILb1EE9__destroyIPPN2us3gov4peer6peer_tEEEvT_S8_
000000000014b441 W _ZNSt12_Destroy_auxILb1EE9__destroyIPPN2us3gov6socket6clientEEEvT_S8_
0000000000152e02 W _ZNSt12future_errorC1ERKS_
0000000000151728 W _ZNSt12future_errorC1ESt10error_code
00000000001516ec W _ZNSt12future_errorC1ESt11future_errc
0000000000152e02 W _ZNSt12future_errorC2ERKS_
0000000000151728 W _ZNSt12future_errorC2ESt10error_code
00000000001516ec W _ZNSt12future_errorC2ESt11future_errc
                 U _ZNSt12future_errorD1Ev
0000000000144794 W _ZNSt12__mutex_baseC1Ev
0000000000144794 W _ZNSt12__mutex_baseC2Ev
0000000000152f6e W _ZNSt12__shared_ptrINSt13__future_base13_State_baseV2ELN9__gnu_cxx12_Lock_policyE2EEC1ERKS4_
000000000015737e W _ZNSt12__shared_ptrINSt13__future_base13_State_baseV2ELN9__gnu_cxx12_Lock_policyE2EEC1INS0_16_Task_state_baseIFviEEEvEERKS_IT_LS3_2EE
0000000000152f6e W _ZNSt12__shared_ptrINSt13__future_base13_State_baseV2ELN9__gnu_cxx12_Lock_policyE2EEC2ERKS4_
000000000015737e W _ZNSt12__shared_ptrINSt13__future_base13_State_baseV2ELN9__gnu_cxx12_Lock_policyE2EEC2INS0_16_Task_state_baseIFviEEEvEERKS_IT_LS3_2EE
0000000000151d1e W _ZNSt12__shared_ptrINSt13__future_base13_State_baseV2ELN9__gnu_cxx12_Lock_policyE2EED1Ev
0000000000151d1e W _ZNSt12__shared_ptrINSt13__future_base13_State_baseV2ELN9__gnu_cxx12_Lock_policyE2EED2Ev
0000000000159728 W _ZNSt12__shared_ptrINSt13__future_base16_Task_state_baseIFviEEELN9__gnu_cxx12_Lock_policyE2EED1Ev
0000000000159728 W _ZNSt12__shared_ptrINSt13__future_base16_Task_state_baseIFviEEELN9__gnu_cxx12_Lock_policyE2EED2Ev
00000000001585f6 W _ZNSt12__shared_ptrISt13packaged_taskIFviEELN9__gnu_cxx12_Lock_policyE2EE31_M_enable_shared_from_this_withIS2_S2_EENSt9enable_ifIXntsrNS5_15__has_esft_baseIT0_vEE5valueEvE4typeEPT_
0000000000158614 W _ZNSt12__shared_ptrISt13packaged_taskIFviEELN9__gnu_cxx12_Lock_policyE2EEC1EOS5_
0000000000153b5a W _ZNSt12__shared_ptrISt13packaged_taskIFviEELN9__gnu_cxx12_Lock_policyE2EEC1ERKS5_
0000000000158614 W _ZNSt12__shared_ptrISt13packaged_taskIFviEELN9__gnu_cxx12_Lock_policyE2EEC2EOS5_
0000000000153b5a W _ZNSt12__shared_ptrISt13packaged_taskIFviEELN9__gnu_cxx12_Lock_policyE2EEC2ERKS5_
0000000000153b1e W _ZNSt12__shared_ptrISt13packaged_taskIFviEELN9__gnu_cxx12_Lock_policyE2EED1Ev
0000000000153b1e W _ZNSt12__shared_ptrISt13packaged_taskIFviEELN9__gnu_cxx12_Lock_policyE2EED2Ev
0000000000157bd2 W _ZNSt12__shared_ptrISt6atomicIbELN9__gnu_cxx12_Lock_policyE2EE31_M_enable_shared_from_this_withIS1_S1_EENSt9enable_ifIXntsrNS4_15__has_esft_baseIT0_vEE5valueEvE4typeEPT_
0000000000155f1a W _ZNSt12__shared_ptrISt6atomicIbELN9__gnu_cxx12_Lock_policyE2EE4swapERS4_
0000000000154b90 W _ZNSt12__shared_ptrISt6atomicIbELN9__gnu_cxx12_Lock_policyE2EEaSEOS4_
0000000000155ec2 W _ZNSt12__shared_ptrISt6atomicIbELN9__gnu_cxx12_Lock_policyE2EEC1EOS4_
000000000015244a W _ZNSt12__shared_ptrISt6atomicIbELN9__gnu_cxx12_Lock_policyE2EEC1ERKS4_
0000000000159036 W _ZNSt12__shared_ptrISt6atomicIbELN9__gnu_cxx12_Lock_policyE2EEC1Ev
0000000000156d3a W _ZNSt12__shared_ptrISt6atomicIbELN9__gnu_cxx12_Lock_policyE2EEC1ISaIS1_EJbEEESt19_Sp_make_shared_tagRKT_DpOT0_
0000000000155ec2 W _ZNSt12__shared_ptrISt6atomicIbELN9__gnu_cxx12_Lock_policyE2EEC2EOS4_
000000000015244a W _ZNSt12__shared_ptrISt6atomicIbELN9__gnu_cxx12_Lock_policyE2EEC2ERKS4_
0000000000159036 W _ZNSt12__shared_ptrISt6atomicIbELN9__gnu_cxx12_Lock_policyE2EEC2Ev
0000000000156d3a W _ZNSt12__shared_ptrISt6atomicIbELN9__gnu_cxx12_Lock_policyE2EEC2ISaIS1_EJbEEESt19_Sp_make_shared_tagRKT_DpOT0_
0000000000151fde W _ZNSt12__shared_ptrISt6atomicIbELN9__gnu_cxx12_Lock_policyE2EED1Ev
0000000000151fde W _ZNSt12__shared_ptrISt6atomicIbELN9__gnu_cxx12_Lock_policyE2EED2Ev
0000000000133446 W _ZNSt12_Vector_baseIhSaIhEE11_M_allocateEm
0000000000133542 W _ZNSt12_Vector_baseIhSaIhEE12_Vector_impl12_M_swap_dataERS2_
0000000000134cc8 W _ZNSt12_Vector_baseIhSaIhEE12_Vector_implC1EOS0_
00000000001332ee W _ZNSt12_Vector_baseIhSaIhEE12_Vector_implC1ERKS0_
0000000000132fcc W _ZNSt12_Vector_baseIhSaIhEE12_Vector_implC1Ev
0000000000134cc8 W _ZNSt12_Vector_baseIhSaIhEE12_Vector_implC2EOS0_
00000000001332ee W _ZNSt12_Vector_baseIhSaIhEE12_Vector_implC2ERKS0_
0000000000132fcc W _ZNSt12_Vector_baseIhSaIhEE12_Vector_implC2Ev
00000000001322d8 W _ZNSt12_Vector_baseIhSaIhEE12_Vector_implD1Ev
00000000001322d8 W _ZNSt12_Vector_baseIhSaIhEE12_Vector_implD2Ev
0000000000132690 W _ZNSt12_Vector_baseIhSaIhEE13_M_deallocateEPhm
0000000000133338 W _ZNSt12_Vector_baseIhSaIhEE17_M_create_storageEm
000000000013235c W _ZNSt12_Vector_baseIhSaIhEE19_M_get_Tp_allocatorEv
0000000000132460 W _ZNSt12_Vector_baseIhSaIhEEC1EmRKS0_
0000000000134a8e W _ZNSt12_Vector_baseIhSaIhEEC1EOS1_
00000000001322f4 W _ZNSt12_Vector_baseIhSaIhEEC1Ev
0000000000132460 W _ZNSt12_Vector_baseIhSaIhEEC2EmRKS0_
0000000000134a8e W _ZNSt12_Vector_baseIhSaIhEEC2EOS1_
00000000001322f4 W _ZNSt12_Vector_baseIhSaIhEEC2Ev
0000000000132310 W _ZNSt12_Vector_baseIhSaIhEED1Ev
0000000000132310 W _ZNSt12_Vector_baseIhSaIhEED2Ev
000000000014a06e W _ZNSt12_Vector_baseIiSaIiEE11_M_allocateEm
000000000014a368 W _ZNSt12_Vector_baseIiSaIiEE12_Vector_impl12_M_swap_dataERS2_
000000000014a314 W _ZNSt12_Vector_baseIiSaIiEE12_Vector_implC1EOS0_
0000000000149fee W _ZNSt12_Vector_baseIiSaIiEE12_Vector_implC1Ev
000000000014a314 W _ZNSt12_Vector_baseIiSaIiEE12_Vector_implC2EOS0_
0000000000149fee W _ZNSt12_Vector_baseIiSaIiEE12_Vector_implC2Ev
0000000000146a68 W _ZNSt12_Vector_baseIiSaIiEE12_Vector_implD1Ev
0000000000146a68 W _ZNSt12_Vector_baseIiSaIiEE12_Vector_implD2Ev
00000000001481a6 W _ZNSt12_Vector_baseIiSaIiEE13_M_deallocateEPim
0000000000146ad4 W _ZNSt12_Vector_baseIiSaIiEE19_M_get_Tp_allocatorEv
00000000001484b6 W _ZNSt12_Vector_baseIiSaIiEEC1EOS1_
000000000014804c W _ZNSt12_Vector_baseIiSaIiEEC1Ev
00000000001484b6 W _ZNSt12_Vector_baseIiSaIiEEC2EOS1_
000000000014804c W _ZNSt12_Vector_baseIiSaIiEEC2Ev
0000000000146a84 W _ZNSt12_Vector_baseIiSaIiEED1Ev
0000000000146a84 W _ZNSt12_Vector_baseIiSaIiEED2Ev
000000000018eb10 W _ZNSt12_Vector_baseIN2us3gov4cash2tx7input_tESaIS4_EE11_M_allocateEm
000000000018e9b4 W _ZNSt12_Vector_baseIN2us3gov4cash2tx7input_tESaIS4_EE12_Vector_impl12_M_swap_dataERS7_
000000000018e960 W _ZNSt12_Vector_baseIN2us3gov4cash2tx7input_tESaIS4_EE12_Vector_implC1EOS5_
000000000018e852 W _ZNSt12_Vector_baseIN2us3gov4cash2tx7input_tESaIS4_EE12_Vector_implC1Ev
000000000018e960 W _ZNSt12_Vector_baseIN2us3gov4cash2tx7input_tESaIS4_EE12_Vector_implC2EOS5_
000000000018e852 W _ZNSt12_Vector_baseIN2us3gov4cash2tx7input_tESaIS4_EE12_Vector_implC2Ev
000000000018df2c W _ZNSt12_Vector_baseIN2us3gov4cash2tx7input_tESaIS4_EE12_Vector_implD1Ev
000000000018df2c W _ZNSt12_Vector_baseIN2us3gov4cash2tx7input_tESaIS4_EE12_Vector_implD2Ev
000000000018e2ce W _ZNSt12_Vector_baseIN2us3gov4cash2tx7input_tESaIS4_EE13_M_deallocateEPS4_m
000000000018dfc6 W _ZNSt12_Vector_baseIN2us3gov4cash2tx7input_tESaIS4_EE19_M_get_Tp_allocatorEv
000000000018e0de W _ZNSt12_Vector_baseIN2us3gov4cash2tx7input_tESaIS4_EEC1EOS6_
000000000018df48 W _ZNSt12_Vector_baseIN2us3gov4cash2tx7input_tESaIS4_EEC1Ev
000000000018e0de W _ZNSt12_Vector_baseIN2us3gov4cash2tx7input_tESaIS4_EEC2EOS6_
000000000018df48 W _ZNSt12_Vector_baseIN2us3gov4cash2tx7input_tESaIS4_EEC2Ev
000000000018df64 W _ZNSt12_Vector_baseIN2us3gov4cash2tx7input_tESaIS4_EED1Ev
000000000018df64 W _ZNSt12_Vector_baseIN2us3gov4cash2tx7input_tESaIS4_EED2Ev
000000000018ebe4 W _ZNSt12_Vector_baseIN2us3gov4cash2tx8output_tESaIS4_EE11_M_allocateEm
000000000018ea72 W _ZNSt12_Vector_baseIN2us3gov4cash2tx8output_tESaIS4_EE12_Vector_impl12_M_swap_dataERS7_
000000000018ea1e W _ZNSt12_Vector_baseIN2us3gov4cash2tx8output_tESaIS4_EE12_Vector_implC1EOS5_
000000000018e8d2 W _ZNSt12_Vector_baseIN2us3gov4cash2tx8output_tESaIS4_EE12_Vector_implC1Ev
000000000018ea1e W _ZNSt12_Vector_baseIN2us3gov4cash2tx8output_tESaIS4_EE12_Vector_implC2EOS5_
000000000018e8d2 W _ZNSt12_Vector_baseIN2us3gov4cash2tx8output_tESaIS4_EE12_Vector_implC2Ev
000000000018dffe W _ZNSt12_Vector_baseIN2us3gov4cash2tx8output_tESaIS4_EE12_Vector_implD1Ev
000000000018dffe W _ZNSt12_Vector_baseIN2us3gov4cash2tx8output_tESaIS4_EE12_Vector_implD2Ev
000000000018e446 W _ZNSt12_Vector_baseIN2us3gov4cash2tx8output_tESaIS4_EE13_M_deallocateEPS4_m
000000000018e098 W _ZNSt12_Vector_baseIN2us3gov4cash2tx8output_tESaIS4_EE19_M_get_Tp_allocatorEv
000000000018e13c W _ZNSt12_Vector_baseIN2us3gov4cash2tx8output_tESaIS4_EEC1EOS6_
000000000018e01a W _ZNSt12_Vector_baseIN2us3gov4cash2tx8output_tESaIS4_EEC1Ev
000000000018e13c W _ZNSt12_Vector_baseIN2us3gov4cash2tx8output_tESaIS4_EEC2EOS6_
000000000018e01a W _ZNSt12_Vector_baseIN2us3gov4cash2tx8output_tESaIS4_EEC2Ev
000000000018e036 W _ZNSt12_Vector_baseIN2us3gov4cash2tx8output_tESaIS4_EED1Ev
000000000018e036 W _ZNSt12_Vector_baseIN2us3gov4cash2tx8output_tESaIS4_EED2Ev
000000000017e0b8 W _ZNSt12_Vector_baseIN2us3gov6crypto9ripemd16010value_typeESaIS4_EE11_M_allocateEm
0000000000192c90 W _ZNSt12_Vector_baseIN2us3gov6crypto9ripemd16010value_typeESaIS4_EE12_Vector_impl12_M_swap_dataERS7_
0000000000192c3c W _ZNSt12_Vector_baseIN2us3gov6crypto9ripemd16010value_typeESaIS4_EE12_Vector_implC1EOS5_
000000000017deac W _ZNSt12_Vector_baseIN2us3gov6crypto9ripemd16010value_typeESaIS4_EE12_Vector_implC1Ev
0000000000192c3c W _ZNSt12_Vector_baseIN2us3gov6crypto9ripemd16010value_typeESaIS4_EE12_Vector_implC2EOS5_
000000000017deac W _ZNSt12_Vector_baseIN2us3gov6crypto9ripemd16010value_typeESaIS4_EE12_Vector_implC2Ev
000000000017bcae W _ZNSt12_Vector_baseIN2us3gov6crypto9ripemd16010value_typeESaIS4_EE12_Vector_implD1Ev
000000000017bcae W _ZNSt12_Vector_baseIN2us3gov6crypto9ripemd16010value_typeESaIS4_EE12_Vector_implD2Ev
000000000017deea W _ZNSt12_Vector_baseIN2us3gov6crypto9ripemd16010value_typeESaIS4_EE13_M_deallocateEPS4_m
000000000017bd48 W _ZNSt12_Vector_baseIN2us3gov6crypto9ripemd16010value_typeESaIS4_EE19_M_get_Tp_allocatorEv
0000000000191926 W _ZNSt12_Vector_baseIN2us3gov6crypto9ripemd16010value_typeESaIS4_EEC1EOS6_
000000000017bcca W _ZNSt12_Vector_baseIN2us3gov6crypto9ripemd16010value_typeESaIS4_EEC1Ev
0000000000191926 W _ZNSt12_Vector_baseIN2us3gov6crypto9ripemd16010value_typeESaIS4_EEC2EOS6_
000000000017bcca W _ZNSt12_Vector_baseIN2us3gov6crypto9ripemd16010value_typeESaIS4_EEC2Ev
000000000017bce6 W _ZNSt12_Vector_baseIN2us3gov6crypto9ripemd16010value_typeESaIS4_EED1Ev
000000000017bce6 W _ZNSt12_Vector_baseIN2us3gov6crypto9ripemd16010value_typeESaIS4_EED2Ev
0000000000150084 W _ZNSt12_Vector_baseINSt7__cxx1112basic_stringIcSt11char_traitsIcESaIcEEESaIS5_EE11_M_allocateEm
00000000001503ec W _ZNSt12_Vector_baseINSt7__cxx1112basic_stringIcSt11char_traitsIcESaIcEEESaIS5_EE12_Vector_impl12_M_swap_dataERS8_
0000000000150398 W _ZNSt12_Vector_baseINSt7__cxx1112basic_stringIcSt11char_traitsIcESaIcEEESaIS5_EE12_Vector_implC1EOS6_
000000000017d960 W _ZNSt12_Vector_baseINSt7__cxx1112basic_stringIcSt11char_traitsIcESaIcEEESaIS5_EE12_Vector_implC1ERKS6_
000000000014ffc2 W _ZNSt12_Vector_baseINSt7__cxx1112basic_stringIcSt11char_traitsIcESaIcEEESaIS5_EE12_Vector_implC1Ev
0000000000150398 W _ZNSt12_Vector_baseINSt7__cxx1112basic_stringIcSt11char_traitsIcESaIcEEESaIS5_EE12_Vector_implC2EOS6_
000000000017d960 W _ZNSt12_Vector_baseINSt7__cxx1112basic_stringIcSt11char_traitsIcESaIcEEESaIS5_EE12_Vector_implC2ERKS6_
000000000014ffc2 W _ZNSt12_Vector_baseINSt7__cxx1112basic_stringIcSt11char_traitsIcESaIcEEESaIS5_EE12_Vector_implC2Ev
000000000014fa4e W _ZNSt12_Vector_baseINSt7__cxx1112basic_stringIcSt11char_traitsIcESaIcEEESaIS5_EE12_Vector_implD1Ev
000000000014fa4e W _ZNSt12_Vector_baseINSt7__cxx1112basic_stringIcSt11char_traitsIcESaIcEEESaIS5_EE12_Vector_implD2Ev
000000000014fc3a W _ZNSt12_Vector_baseINSt7__cxx1112basic_stringIcSt11char_traitsIcESaIcEEESaIS5_EE13_M_deallocateEPS5_m
000000000017d9aa W _ZNSt12_Vector_baseINSt7__cxx1112basic_stringIcSt11char_traitsIcESaIcEEESaIS5_EE17_M_create_storageEm
000000000014fad6 W _ZNSt12_Vector_baseINSt7__cxx1112basic_stringIcSt11char_traitsIcESaIcEEESaIS5_EE19_M_get_Tp_allocatorEv
000000000017b754 W _ZNSt12_Vector_baseINSt7__cxx1112basic_stringIcSt11char_traitsIcESaIcEEESaIS5_EEC1EmRKS6_
000000000014ff72 W _ZNSt12_Vector_baseINSt7__cxx1112basic_stringIcSt11char_traitsIcESaIcEEESaIS5_EEC1EOS7_
000000000014fa6a W _ZNSt12_Vector_baseINSt7__cxx1112basic_stringIcSt11char_traitsIcESaIcEEESaIS5_EEC1Ev
000000000017b754 W _ZNSt12_Vector_baseINSt7__cxx1112basic_stringIcSt11char_traitsIcESaIcEEESaIS5_EEC2EmRKS6_
000000000014ff72 W _ZNSt12_Vector_baseINSt7__cxx1112basic_stringIcSt11char_traitsIcESaIcEEESaIS5_EEC2EOS7_
000000000014fa6a W _ZNSt12_Vector_baseINSt7__cxx1112basic_stringIcSt11char_traitsIcESaIcEEESaIS5_EEC2Ev
000000000014fa86 W _ZNSt12_Vector_baseINSt7__cxx1112basic_stringIcSt11char_traitsIcESaIcEEESaIS5_EED1Ev
000000000014fa86 W _ZNSt12_Vector_baseINSt7__cxx1112basic_stringIcSt11char_traitsIcESaIcEEESaIS5_EED2Ev
000000000017ebd4 W _ZNSt12_Vector_baseIPN2us3gov10blockchain6peer_tESaIS4_EE11_M_allocateEm
000000000017ea3c W _ZNSt12_Vector_baseIPN2us3gov10blockchain6peer_tESaIS4_EE12_Vector_implC1Ev
000000000017ea3c W _ZNSt12_Vector_baseIPN2us3gov10blockchain6peer_tESaIS4_EE12_Vector_implC2Ev
000000000017cf96 W _ZNSt12_Vector_baseIPN2us3gov10blockchain6peer_tESaIS4_EE12_Vector_implD1Ev
000000000017cf96 W _ZNSt12_Vector_baseIPN2us3gov10blockchain6peer_tESaIS4_EE12_Vector_implD2Ev
000000000017e988 W _ZNSt12_Vector_baseIPN2us3gov10blockchain6peer_tESaIS4_EE13_M_deallocateEPS4_m
000000000017d002 W _ZNSt12_Vector_baseIPN2us3gov10blockchain6peer_tESaIS4_EE19_M_get_Tp_allocatorEv
000000000017d108 W _ZNSt12_Vector_baseIPN2us3gov10blockchain6peer_tESaIS4_EEC1Ev
000000000017d108 W _ZNSt12_Vector_baseIPN2us3gov10blockchain6peer_tESaIS4_EEC2Ev
000000000017cfb2 W _ZNSt12_Vector_baseIPN2us3gov10blockchain6peer_tESaIS4_EED1Ev
000000000017cfb2 W _ZNSt12_Vector_baseIPN2us3gov10blockchain6peer_tESaIS4_EED2Ev
000000000015ebbc W _ZNSt12_Vector_baseIPN2us3gov4peer6peer_tESaIS4_EE11_M_allocateEm
000000000015eccc W _ZNSt12_Vector_baseIPN2us3gov4peer6peer_tESaIS4_EE12_Vector_impl12_M_swap_dataERS7_
000000000015ec78 W _ZNSt12_Vector_baseIPN2us3gov4peer6peer_tESaIS4_EE12_Vector_implC1EOS5_
000000000015ea66 W _ZNSt12_Vector_baseIPN2us3gov4peer6peer_tESaIS4_EE12_Vector_implC1Ev
000000000015ec78 W _ZNSt12_Vector_baseIPN2us3gov4peer6peer_tESaIS4_EE12_Vector_implC2EOS5_
000000000015ea66 W _ZNSt12_Vector_baseIPN2us3gov4peer6peer_tESaIS4_EE12_Vector_implC2Ev
000000000015db7c W _ZNSt12_Vector_baseIPN2us3gov4peer6peer_tESaIS4_EE12_Vector_implD1Ev
000000000015db7c W _ZNSt12_Vector_baseIPN2us3gov4peer6peer_tESaIS4_EE12_Vector_implD2Ev
000000000015e3b0 W _ZNSt12_Vector_baseIPN2us3gov4peer6peer_tESaIS4_EE13_M_deallocateEPS4_m
000000000015dbe8 W _ZNSt12_Vector_baseIPN2us3gov4peer6peer_tESaIS4_EE19_M_get_Tp_allocatorEv
000000000015def6 W _ZNSt12_Vector_baseIPN2us3gov4peer6peer_tESaIS4_EEC1EOS6_
000000000015dc20 W _ZNSt12_Vector_baseIPN2us3gov4peer6peer_tESaIS4_EEC1Ev
000000000015def6 W _ZNSt12_Vector_baseIPN2us3gov4peer6peer_tESaIS4_EEC2EOS6_
000000000015dc20 W _ZNSt12_Vector_baseIPN2us3gov4peer6peer_tESaIS4_EEC2Ev
000000000015db98 W _ZNSt12_Vector_baseIPN2us3gov4peer6peer_tESaIS4_EED1Ev
000000000015db98 W _ZNSt12_Vector_baseIPN2us3gov4peer6peer_tESaIS4_EED2Ev
000000000014a444 W _ZNSt12_Vector_baseIPN2us3gov6socket6clientESaIS4_EE11_M_allocateEm
000000000014a740 W _ZNSt12_Vector_baseIPN2us3gov6socket6clientESaIS4_EE12_Vector_impl12_M_swap_dataERS7_
000000000014a6ec W _ZNSt12_Vector_baseIPN2us3gov6socket6clientESaIS4_EE12_Vector_implC1EOS5_
000000000014a3c4 W _ZNSt12_Vector_baseIPN2us3gov6socket6clientESaIS4_EE12_Vector_implC1Ev
000000000014a6ec W _ZNSt12_Vector_baseIPN2us3gov6socket6clientESaIS4_EE12_Vector_implC2EOS5_
000000000014a3c4 W _ZNSt12_Vector_baseIPN2us3gov6socket6clientESaIS4_EE12_Vector_implC2Ev
000000000014686a W _ZNSt12_Vector_baseIPN2us3gov6socket6clientESaIS4_EE12_Vector_implD1Ev
000000000014686a W _ZNSt12_Vector_baseIPN2us3gov6socket6clientESaIS4_EE12_Vector_implD2Ev
0000000000148660 W _ZNSt12_Vector_baseIPN2us3gov6socket6clientESaIS4_EE13_M_deallocateEPS4_m
00000000001468d6 W _ZNSt12_Vector_baseIPN2us3gov6socket6clientESaIS4_EE19_M_get_Tp_allocatorEv
0000000000148a02 W _ZNSt12_Vector_baseIPN2us3gov6socket6clientESaIS4_EEC1EOS6_
0000000000148506 W _ZNSt12_Vector_baseIPN2us3gov6socket6clientESaIS4_EEC1Ev
0000000000148a02 W _ZNSt12_Vector_baseIPN2us3gov6socket6clientESaIS4_EEC2EOS6_
0000000000148506 W _ZNSt12_Vector_baseIPN2us3gov6socket6clientESaIS4_EEC2Ev
0000000000146886 W _ZNSt12_Vector_baseIPN2us3gov6socket6clientESaIS4_EED1Ev
0000000000146886 W _ZNSt12_Vector_baseIPN2us3gov6socket6clientESaIS4_EED2Ev
0000000000155dc6 W _ZNSt12_Vector_baseISt10shared_ptrISt6atomicIbEESaIS3_EE11_M_allocateEm
000000000015593a W _ZNSt12_Vector_baseISt10shared_ptrISt6atomicIbEESaIS3_EE12_Vector_implC1Ev
000000000015593a W _ZNSt12_Vector_baseISt10shared_ptrISt6atomicIbEESaIS3_EE12_Vector_implC2Ev
000000000015443a W _ZNSt12_Vector_baseISt10shared_ptrISt6atomicIbEESaIS3_EE12_Vector_implD1Ev
000000000015443a W _ZNSt12_Vector_baseISt10shared_ptrISt6atomicIbEESaIS3_EE12_Vector_implD2Ev
0000000000155994 W _ZNSt12_Vector_baseISt10shared_ptrISt6atomicIbEESaIS3_EE13_M_deallocateEPS3_m
00000000001544c2 W _ZNSt12_Vector_baseISt10shared_ptrISt6atomicIbEESaIS3_EE19_M_get_Tp_allocatorEv
0000000000154456 W _ZNSt12_Vector_baseISt10shared_ptrISt6atomicIbEESaIS3_EEC1Ev
0000000000154456 W _ZNSt12_Vector_baseISt10shared_ptrISt6atomicIbEESaIS3_EEC2Ev
0000000000154472 W _ZNSt12_Vector_baseISt10shared_ptrISt6atomicIbEESaIS3_EED1Ev
0000000000154472 W _ZNSt12_Vector_baseISt10shared_ptrISt6atomicIbEESaIS3_EED2Ev
0000000000155c4c W _ZNSt12_Vector_baseISt10unique_ptrISt6threadSt14default_deleteIS1_EESaIS4_EE11_M_allocateEm
0000000000155884 W _ZNSt12_Vector_baseISt10unique_ptrISt6threadSt14default_deleteIS1_EESaIS4_EE12_Vector_implC1Ev
0000000000155884 W _ZNSt12_Vector_baseISt10unique_ptrISt6threadSt14default_deleteIS1_EESaIS4_EE12_Vector_implC2Ev
000000000015437a W _ZNSt12_Vector_baseISt10unique_ptrISt6threadSt14default_deleteIS1_EESaIS4_EE12_Vector_implD1Ev
000000000015437a W _ZNSt12_Vector_baseISt10unique_ptrISt6threadSt14default_deleteIS1_EESaIS4_EE12_Vector_implD2Ev
00000000001558de W _ZNSt12_Vector_baseISt10unique_ptrISt6threadSt14default_deleteIS1_EESaIS4_EE13_M_deallocateEPS4_m
0000000000154402 W _ZNSt12_Vector_baseISt10unique_ptrISt6threadSt14default_deleteIS1_EESaIS4_EE19_M_get_Tp_allocatorEv
0000000000154396 W _ZNSt12_Vector_baseISt10unique_ptrISt6threadSt14default_deleteIS1_EESaIS4_EEC1Ev
0000000000154396 W _ZNSt12_Vector_baseISt10unique_ptrISt6threadSt14default_deleteIS1_EESaIS4_EEC2Ev
00000000001543b2 W _ZNSt12_Vector_baseISt10unique_ptrISt6threadSt14default_deleteIS1_EESaIS4_EED1Ev
00000000001543b2 W _ZNSt12_Vector_baseISt10unique_ptrISt6threadSt14default_deleteIS1_EESaIS4_EED2Ev
000000000017605a W _ZNSt12_Vector_baseISt4pairIN2us3gov6crypto9ripemd16010value_typeENSt7__cxx1112basic_stringIcSt11char_traitsIcESaIcEEEESaISC_EE11_M_allocateEm
00000000001757c0 W _ZNSt12_Vector_baseISt4pairIN2us3gov6crypto9ripemd16010value_typeENSt7__cxx1112basic_stringIcSt11char_traitsIcESaIcEEEESaISC_EE12_Vector_implC1Ev
00000000001757c0 W _ZNSt12_Vector_baseISt4pairIN2us3gov6crypto9ripemd16010value_typeENSt7__cxx1112basic_stringIcSt11char_traitsIcESaIcEEEESaISC_EE12_Vector_implC2Ev
00000000001740e6 W _ZNSt12_Vector_baseISt4pairIN2us3gov6crypto9ripemd16010value_typeENSt7__cxx1112basic_stringIcSt11char_traitsIcESaIcEEEESaISC_EE12_Vector_implD1Ev
00000000001740e6 W _ZNSt12_Vector_baseISt4pairIN2us3gov6crypto9ripemd16010value_typeENSt7__cxx1112basic_stringIcSt11char_traitsIcESaIcEEEESaISC_EE12_Vector_implD2Ev
0000000000174d6a W _ZNSt12_Vector_baseISt4pairIN2us3gov6crypto9ripemd16010value_typeENSt7__cxx1112basic_stringIcSt11char_traitsIcESaIcEEEESaISC_EE13_M_deallocateEPSC_m
0000000000174164 W _ZNSt12_Vector_baseISt4pairIN2us3gov6crypto9ripemd16010value_typeENSt7__cxx1112basic_stringIcSt11char_traitsIcESaIcEEEESaISC_EE19_M_get_Tp_allocatorEv
0000000000174504 W _ZNSt12_Vector_baseISt4pairIN2us3gov6crypto9ripemd16010value_typeENSt7__cxx1112basic_stringIcSt11char_traitsIcESaIcEEEESaISC_EEC1Ev
0000000000174504 W _ZNSt12_Vector_baseISt4pairIN2us3gov6crypto9ripemd16010value_typeENSt7__cxx1112basic_stringIcSt11char_traitsIcESaIcEEEESaISC_EEC2Ev
0000000000174102 W _ZNSt12_Vector_baseISt4pairIN2us3gov6crypto9ripemd16010value_typeENSt7__cxx1112basic_stringIcSt11char_traitsIcESaIcEEEESaISC_EED1Ev
0000000000174102 W _ZNSt12_Vector_baseISt4pairIN2us3gov6crypto9ripemd16010value_typeENSt7__cxx1112basic_stringIcSt11char_traitsIcESaIcEEEESaISC_EED2Ev
000000000017e3fa W _ZNSt12_Vector_baseISt6threadSaIS0_EE11_M_allocateEm
000000000017e338 W _ZNSt12_Vector_baseISt6threadSaIS0_EE12_Vector_implC1Ev
000000000017e338 W _ZNSt12_Vector_baseISt6threadSaIS0_EE12_Vector_implC2Ev
000000000017c4b0 W _ZNSt12_Vector_baseISt6threadSaIS0_EE12_Vector_implD1Ev
000000000017c4b0 W _ZNSt12_Vector_baseISt6threadSaIS0_EE12_Vector_implD2Ev
000000000017c6ae W _ZNSt12_Vector_baseISt6threadSaIS0_EE13_M_deallocateEPS0_m
000000000017c538 W _ZNSt12_Vector_baseISt6threadSaIS0_EE19_M_get_Tp_allocatorEv
000000000017c4cc W _ZNSt12_Vector_baseISt6threadSaIS0_EEC1Ev
000000000017c4cc W _ZNSt12_Vector_baseISt6threadSaIS0_EEC2Ev
000000000017c4e8 W _ZNSt12_Vector_baseISt6threadSaIS0_EED1Ev
000000000017c4e8 W _ZNSt12_Vector_baseISt6threadSaIS0_EED2Ev
0000000000153f8c W _ZNSt12__weak_countILN9__gnu_cxx12_Lock_policyE2EEaSEOS2_
000000000015a0de W _ZNSt12__weak_countILN9__gnu_cxx12_Lock_policyE2EEC1EOS2_
0000000000153e44 W _ZNSt12__weak_countILN9__gnu_cxx12_Lock_policyE2EEC1Ev
000000000015a0de W _ZNSt12__weak_countILN9__gnu_cxx12_Lock_policyE2EEC2EOS2_
0000000000153e44 W _ZNSt12__weak_countILN9__gnu_cxx12_Lock_policyE2EEC2Ev
0000000000152c6c W _ZNSt12__weak_countILN9__gnu_cxx12_Lock_policyE2EED1Ev
0000000000152c6c W _ZNSt12__weak_countILN9__gnu_cxx12_Lock_policyE2EED2Ev
0000000000152970 W _ZNSt13__atomic_baseIbEaSEb
0000000000152956 W _ZNSt13__atomic_baseIbEC1Eb
0000000000152956 W _ZNSt13__atomic_baseIbEC2Eb
00000000001539aa W _ZNSt13__atomic_baseIiEaSEi
00000000001537d6 W _ZNSt13__atomic_baseIiEmmEv
0000000000153784 W _ZNSt13__atomic_baseIiEppEv
00000000001529c0 W _ZNSt13__atomic_baseIjEC1Ej
00000000001529c0 W _ZNSt13__atomic_baseIjEC2Ej
                 U _ZNSt13__future_base12_Result_baseC2Ev
                 U _ZNSt13__future_base12_Result_baseD2Ev
                 U _ZNSt13__future_base13_State_baseV211_Make_ready6_M_setEv
00000000001519e2 W _ZNSt13__future_base13_State_baseV211_Make_readyC1Ev
00000000001519e2 W _ZNSt13__future_base13_State_baseV211_Make_readyC2Ev
0000000000153f0c W _ZNSt13__future_base13_State_baseV211_Make_readyD1Ev
0000000000153f0c W _ZNSt13__future_base13_State_baseV211_Make_readyD2Ev
000000000015189c W _ZNSt13__future_base13_State_baseV213_M_set_resultESt8functionIFSt10unique_ptrINS_12_Result_baseENS3_8_DeleterEEvEEb
0000000000151b56 W _ZNSt13__future_base13_State_baseV216_M_break_promiseESt10unique_ptrINS_12_Result_baseENS2_8_DeleterEE
0000000000151cd4 W _ZNSt13__future_base13_State_baseV217_M_complete_asyncEv
0000000000151a2c W _ZNSt13__future_base13_State_baseV221_M_set_delayed_resultESt8functionIFSt10unique_ptrINS_12_Result_baseENS3_8_DeleterEEvEESt8weak_ptrIS0_E
0000000000151c44 W _ZNSt13__future_base13_State_baseV221_M_set_retrieved_flagEv
0000000000156414 W _ZNSt13__future_base13_State_baseV28_S_checkINS_16_Task_state_baseIFviEEEEEvRKSt10shared_ptrIT_E
00000000001541bc W _ZNSt13__future_base13_State_baseV28_S_checkIS0_EEvRKSt10shared_ptrIT_E
0000000000151c80 W _ZNSt13__future_base13_State_baseV29_M_do_setEPSt8functionIFSt10unique_ptrINS_12_Result_baseENS3_8_DeleterEEvEEPb
0000000000151830 W _ZNSt13__future_base13_State_baseV2C1Ev
0000000000151830 W _ZNSt13__future_base13_State_baseV2C2Ev
0000000000159a14 W _ZNSt13__future_base13_State_baseV2D0Ev
00000000001599e2 W _ZNSt13__future_base13_State_baseV2D1Ev
00000000001599e2 W _ZNSt13__future_base13_State_baseV2D2Ev
0000000000159aaa W _ZNSt13__future_base16_Task_state_baseIFviEEC1ISaIiEEERKT_
0000000000159aaa W _ZNSt13__future_base16_Task_state_baseIFviEEC2ISaIiEEERKT_
0000000000159a7e W _ZNSt13__future_base16_Task_state_baseIFviEED0Ev
0000000000159a40 W _ZNSt13__future_base16_Task_state_baseIFviEED1Ev
0000000000159a40 W _ZNSt13__future_base16_Task_state_baseIFviEED2Ev
0000000000159b13 W _ZNSt13__future_base18_S_allocate_resultIviEESt10unique_ptrINS_7_ResultIT_EENS_12_Result_base8_DeleterEERKSaIT0_E
0000000000151cf0 W _ZNSt13__future_base7_ResultIvE10_M_destroyEv
0000000000151db8 W _ZNSt13__future_base7_ResultIvEC1Ev
0000000000151db8 W _ZNSt13__future_base7_ResultIvEC2Ev
0000000000159c66 W _ZNSt13__future_base7_ResultIvED0Ev
0000000000159c38 W _ZNSt13__future_base7_ResultIvED1Ev
0000000000159c38 W _ZNSt13__future_base7_ResultIvED2Ev
000000000013342c W _ZNSt13move_iteratorIPhEC1ES0_
000000000013342c W _ZNSt13move_iteratorIPhEC2ES0_
000000000014a054 W _ZNSt13move_iteratorIPiEC1ES0_
000000000014a054 W _ZNSt13move_iteratorIPiEC2ES0_
000000000018eaf6 W _ZNSt13move_iteratorIPN2us3gov4cash2tx7input_tEEC1ES5_
000000000018eaf6 W _ZNSt13move_iteratorIPN2us3gov4cash2tx7input_tEEC2ES5_
000000000018fa68 W _ZNSt13move_iteratorIPN2us3gov4cash2tx7input_tEEppEv
000000000018ebca W _ZNSt13move_iteratorIPN2us3gov4cash2tx8output_tEEC1ES5_
000000000018ebca W _ZNSt13move_iteratorIPN2us3gov4cash2tx8output_tEEC2ES5_
000000000018fb06 W _ZNSt13move_iteratorIPN2us3gov4cash2tx8output_tEEppEv
00000000001813fc W _ZNSt13move_iteratorIPN2us3gov6crypto9ripemd16010value_typeEEC1ES5_
00000000001813fc W _ZNSt13move_iteratorIPN2us3gov6crypto9ripemd16010value_typeEEC2ES5_
0000000000182da8 W _ZNSt13move_iteratorIPN2us3gov6crypto9ripemd16010value_typeEEppEv
000000000015006a W _ZNSt13move_iteratorIPNSt7__cxx1112basic_stringIcSt11char_traitsIcESaIcEEEEC1ES6_
000000000015006a W _ZNSt13move_iteratorIPNSt7__cxx1112basic_stringIcSt11char_traitsIcESaIcEEEEC2ES6_
000000000015073c W _ZNSt13move_iteratorIPNSt7__cxx1112basic_stringIcSt11char_traitsIcESaIcEEEEppEv
000000000018176a W _ZNSt13move_iteratorIPPN2us3gov10blockchain6peer_tEEC1ES5_
000000000018176a W _ZNSt13move_iteratorIPPN2us3gov10blockchain6peer_tEEC2ES5_
000000000015f4e8 W _ZNSt13move_iteratorIPPN2us3gov4peer6peer_tEEC1ES5_
000000000015f4e8 W _ZNSt13move_iteratorIPPN2us3gov4peer6peer_tEEC2ES5_
000000000014a42a W _ZNSt13move_iteratorIPPN2us3gov6socket6clientEEC1ES5_
000000000014a42a W _ZNSt13move_iteratorIPPN2us3gov6socket6clientEEC2ES5_
0000000000157a3a W _ZNSt13move_iteratorIPSt10shared_ptrISt6atomicIbEEEC1ES4_
0000000000157a3a W _ZNSt13move_iteratorIPSt10shared_ptrISt6atomicIbEEEC2ES4_
000000000015894e W _ZNSt13move_iteratorIPSt10shared_ptrISt6atomicIbEEEppEv
0000000000157940 W _ZNSt13move_iteratorIPSt10unique_ptrISt6threadSt14default_deleteIS1_EEEC1ES5_
0000000000157940 W _ZNSt13move_iteratorIPSt10unique_ptrISt6threadSt14default_deleteIS1_EEEC2ES5_
0000000000158894 W _ZNSt13move_iteratorIPSt10unique_ptrISt6threadSt14default_deleteIS1_EEEppEv
0000000000176040 W _ZNSt13move_iteratorIPSt4pairIN2us3gov6crypto9ripemd16010value_typeENSt7__cxx1112basic_stringIcSt11char_traitsIcESaIcEEEEEC1ESD_
0000000000176040 W _ZNSt13move_iteratorIPSt4pairIN2us3gov6crypto9ripemd16010value_typeENSt7__cxx1112basic_stringIcSt11char_traitsIcESaIcEEEEEC2ESD_
0000000000178ee4 W _ZNSt13move_iteratorIPSt4pairIN2us3gov6crypto9ripemd16010value_typeENSt7__cxx1112basic_stringIcSt11char_traitsIcESaIcEEEEEppEv
000000000017e3e0 W _ZNSt13move_iteratorIPSt6threadEC1ES1_
000000000017e3e0 W _ZNSt13move_iteratorIPSt6threadEC2ES1_
0000000000182426 W _ZNSt13move_iteratorIPSt6threadEppEv
000000000015543e W _ZNSt13packaged_taskIFviEE10get_futureEv
000000000015535c W _ZNSt13packaged_taskIFviEEclEi
0000000000159764 W _ZNSt13packaged_taskIFviEED1Ev
0000000000159764 W _ZNSt13packaged_taskIFviEED2Ev
000000000016feb0 W _ZNSt13_Rb_tree_nodeISt4pairIKiPN2us3gov10blockchain3app11local_deltaEEE9_M_valptrEv
000000000016f4ca W _ZNSt13_Rb_tree_nodeISt4pairIKiPN2us3gov10blockchain3app5deltaEEE9_M_valptrEv
000000000016fece W _ZNSt13_Rb_tree_nodeISt4pairIKN2us3gov6crypto9ripemd16010value_typeEmEE9_M_valptrEv
0000000000191a50 W _ZNSt13_Rb_tree_nodeISt4pairIKN2us3gov6crypto9ripemd16010value_typeENS2_4cash3app11local_delta9account_tEEE9_M_valptrEv
0000000000177a26 W _ZNSt13_Rb_tree_nodeISt4pairIKN2us3gov6crypto9ripemd16010value_typeENSt7__cxx1112basic_stringIcSt11char_traitsIcESaIcEEEEE9_M_valptrEv
000000000017a388 W _ZNSt13unordered_mapIiPN2us3gov10blockchain3appESt4hashIiESt8equal_toIiESaISt4pairIKiS4_EEE3endEv
000000000017a536 W _ZNSt13unordered_mapIiPN2us3gov10blockchain3appESt4hashIiESt8equal_toIiESaISt4pairIKiS4_EEE4findERSA_
000000000017a36e W _ZNSt13unordered_mapIiPN2us3gov10blockchain3appESt4hashIiESt8equal_toIiESaISt4pairIKiS4_EEE5beginEv
000000000017a55c W _ZNSt13unordered_mapIiPN2us3gov10blockchain3appESt4hashIiESt8equal_toIiESaISt4pairIKiS4_EEE7emplaceIJiRS4_EEES9_INSt8__detail14_Node_iteratorISB_Lb0ELb0EEEbEDpOT_
0000000000179e64 W _ZNSt13unordered_mapIiPN2us3gov10blockchain3appESt4hashIiESt8equal_toIiESaISt4pairIKiS4_EEEC1Ev
0000000000179e64 W _ZNSt13unordered_mapIiPN2us3gov10blockchain3appESt4hashIiESt8equal_toIiESaISt4pairIKiS4_EEEC2Ev
0000000000179b1a W _ZNSt13unordered_mapIiPN2us3gov10blockchain3appESt4hashIiESt8equal_toIiESaISt4pairIKiS4_EEED1Ev
0000000000179b1a W _ZNSt13unordered_mapIiPN2us3gov10blockchain3appESt4hashIiESt8equal_toIiESaISt4pairIKiS4_EEED2Ev
00000000001451a6 W _ZNSt13unordered_mapIiPN2us3gov6socket6clientESt4hashIiESt8equal_toIiESaISt4pairIKiS4_EEE3endEv
0000000000145180 W _ZNSt13unordered_mapIiPN2us3gov6socket6clientESt4hashIiESt8equal_toIiESaISt4pairIKiS4_EEE4findERSA_
0000000000145b7c W _ZNSt13unordered_mapIiPN2us3gov6socket6clientESt4hashIiESt8equal_toIiESaISt4pairIKiS4_EEE5beginEv
0000000000145b60 W _ZNSt13unordered_mapIiPN2us3gov6socket6clientESt4hashIiESt8equal_toIiESaISt4pairIKiS4_EEE5clearEv
0000000000145262 W _ZNSt13unordered_mapIiPN2us3gov6socket6clientESt4hashIiESt8equal_toIiESaISt4pairIKiS4_EEE5eraseENSt8__detail14_Node_iteratorISB_Lb0ELb0EEE
0000000000145288 W _ZNSt13unordered_mapIiPN2us3gov6socket6clientESt4hashIiESt8equal_toIiESaISt4pairIKiS4_EEE7emplaceIJRiRS4_EEES9_INSt8__detail14_Node_iteratorISB_Lb0ELb0EEEbEDpOT_
0000000000144be4 W _ZNSt13unordered_mapIiPN2us3gov6socket6clientESt4hashIiESt8equal_toIiESaISt4pairIKiS4_EEEaSERKSD_
000000000014475c W _ZNSt13unordered_mapIiPN2us3gov6socket6clientESt4hashIiESt8equal_toIiESaISt4pairIKiS4_EEEC1Ev
000000000014475c W _ZNSt13unordered_mapIiPN2us3gov6socket6clientESt4hashIiESt8equal_toIiESaISt4pairIKiS4_EEEC2Ev
0000000000144778 W _ZNSt13unordered_mapIiPN2us3gov6socket6clientESt4hashIiESt8equal_toIiESaISt4pairIKiS4_EEED1Ev
0000000000144778 W _ZNSt13unordered_mapIiPN2us3gov6socket6clientESt4hashIiESt8equal_toIiESaISt4pairIKiS4_EEED2Ev
00000000001929c4 W _ZNSt13unordered_mapIN2us3gov4cash3app11local_deltaEmSt4hashIS4_ESt8equal_toIS4_ESaISt4pairIKS4_mEEE3endEv
000000000019299e W _ZNSt13unordered_mapIN2us3gov4cash3app11local_deltaEmSt4hashIS4_ESt8equal_toIS4_ESaISt4pairIKS4_mEEE4findERSA_
0000000000192a6c W _ZNSt13unordered_mapIN2us3gov4cash3app11local_deltaEmSt4hashIS4_ESt8equal_toIS4_ESaISt4pairIKS4_mEEE5beginEv
0000000000192ac2 W _ZNSt13unordered_mapIN2us3gov4cash3app11local_deltaEmSt4hashIS4_ESt8equal_toIS4_ESaISt4pairIKS4_mEEE5clearEv
0000000000192a1e W _ZNSt13unordered_mapIN2us3gov4cash3app11local_deltaEmSt4hashIS4_ESt8equal_toIS4_ESaISt4pairIKS4_mEEE7emplaceIJRSA_iEEES9_INSt8__detail14_Node_iteratorISB_Lb0ELb1EEEbEDpOT_
00000000001902ec W _ZNSt13unordered_mapIN2us3gov4cash3app11local_deltaEmSt4hashIS4_ESt8equal_toIS4_ESaISt4pairIKS4_mEEEC1Ev
00000000001902ec W _ZNSt13unordered_mapIN2us3gov4cash3app11local_deltaEmSt4hashIS4_ESt8equal_toIS4_ESaISt4pairIKS4_mEEEC2Ev
0000000000190308 W _ZNSt13unordered_mapIN2us3gov4cash3app11local_deltaEmSt4hashIS4_ESt8equal_toIS4_ESaISt4pairIKS4_mEEED1Ev
0000000000190308 W _ZNSt13unordered_mapIN2us3gov4cash3app11local_deltaEmSt4hashIS4_ESt8equal_toIS4_ESaISt4pairIKS4_mEEED2Ev
00000000001842a8 W _ZNSt13unordered_mapIN2us3gov6crypto9ripemd16010value_typeEmSt4hashIS4_ESt8equal_toIS4_ESaISt4pairIKS4_mEEE3endEv
0000000000184282 W _ZNSt13unordered_mapIN2us3gov6crypto9ripemd16010value_typeEmSt4hashIS4_ESt8equal_toIS4_ESaISt4pairIKS4_mEEE4findERSA_
0000000000185996 W _ZNSt13unordered_mapIN2us3gov6crypto9ripemd16010value_typeEmSt4hashIS4_ESt8equal_toIS4_ESaISt4pairIKS4_mEEE5beginEv
00000000001859ec W _ZNSt13unordered_mapIN2us3gov6crypto9ripemd16010value_typeEmSt4hashIS4_ESt8equal_toIS4_ESaISt4pairIKS4_mEEE5clearEv
0000000000184302 W _ZNSt13unordered_mapIN2us3gov6crypto9ripemd16010value_typeEmSt4hashIS4_ESt8equal_toIS4_ESaISt4pairIKS4_mEEE7emplaceIJRSA_iEEES9_INSt8__detail14_Node_iteratorISB_Lb0ELb1EEEbEDpOT_
0000000000183dd4 W _ZNSt13unordered_mapIN2us3gov6crypto9ripemd16010value_typeEmSt4hashIS4_ESt8equal_toIS4_ESaISt4pairIKS4_mEEEC1Ev
0000000000183dd4 W _ZNSt13unordered_mapIN2us3gov6crypto9ripemd16010value_typeEmSt4hashIS4_ESt8equal_toIS4_ESaISt4pairIKS4_mEEEC2Ev
00000000001982d0 W _ZNSt13unordered_mapIN2us3gov6crypto9ripemd16010value_typeEmSt4hashIS4_ESt8equal_toIS4_ESaISt4pairIKS4_mEEED1Ev
00000000001982d0 W _ZNSt13unordered_mapIN2us3gov6crypto9ripemd16010value_typeEmSt4hashIS4_ESt8equal_toIS4_ESaISt4pairIKS4_mEEED2Ev
000000000019100e W _ZNSt13unordered_mapIN2us3gov6crypto9ripemd16010value_typeENS1_4cash3app11local_delta9account_tESt4hashIS4_ESt8equal_toIS4_ESaISt4pairIKS4_S8_EEE3endEv
0000000000190fe8 W _ZNSt13unordered_mapIN2us3gov6crypto9ripemd16010value_typeENS1_4cash3app11local_delta9account_tESt4hashIS4_ESt8equal_toIS4_ESaISt4pairIKS4_S8_EEE4findERSE_
0000000000191028 W _ZNSt13unordered_mapIN2us3gov6crypto9ripemd16010value_typeENS1_4cash3app11local_delta9account_tESt4hashIS4_ESt8equal_toIS4_ESaISt4pairIKS4_S8_EEE7emplaceIJRSE_RKS8_EEESD_INSt8__detail14_Node_iteratorISF_Lb0ELb1EEEbEDpOT_
000000000018ff76 W _ZNSt13unordered_mapIN2us3gov6crypto9ripemd16010value_typeENS1_4cash3app11local_delta9account_tESt4hashIS4_ESt8equal_toIS4_ESaISt4pairIKS4_S8_EEEC1Ev
000000000018ff76 W _ZNSt13unordered_mapIN2us3gov6crypto9ripemd16010value_typeENS1_4cash3app11local_delta9account_tESt4hashIS4_ESt8equal_toIS4_ESaISt4pairIKS4_S8_EEEC2Ev
000000000018ff92 W _ZNSt13unordered_mapIN2us3gov6crypto9ripemd16010value_typeENS1_4cash3app11local_delta9account_tESt4hashIS4_ESt8equal_toIS4_ESaISt4pairIKS4_S8_EEED1Ev
000000000018ff92 W _ZNSt13unordered_mapIN2us3gov6crypto9ripemd16010value_typeENS1_4cash3app11local_delta9account_tESt4hashIS4_ESt8equal_toIS4_ESaISt4pairIKS4_S8_EEED2Ev
0000000000173584 W _ZNSt13unordered_mapIN2us3gov6crypto9ripemd16010value_typeENSt7__cxx1112basic_stringIcSt11char_traitsIcESaIcEEESt4hashIS4_ESt8equal_toIS4_ESaISt4pairIKS4_SA_EEE3endEv
000000000017355e W _ZNSt13unordered_mapIN2us3gov6crypto9ripemd16010value_typeENSt7__cxx1112basic_stringIcSt11char_traitsIcESaIcEEESt4hashIS4_ESt8equal_toIS4_ESaISt4pairIKS4_SA_EEE4findERSG_
000000000017376a W _ZNSt13unordered_mapIN2us3gov6crypto9ripemd16010value_typeENSt7__cxx1112basic_stringIcSt11char_traitsIcESaIcEEESt4hashIS4_ESt8equal_toIS4_ESaISt4pairIKS4_SA_EEE5beginEv
000000000017401c W _ZNSt13unordered_mapIN2us3gov6crypto9ripemd16010value_typeENSt7__cxx1112basic_stringIcSt11char_traitsIcESaIcEEESt4hashIS4_ESt8equal_toIS4_ESaISt4pairIKS4_SA_EEE5clearEv
000000000017387c W _ZNSt13unordered_mapIN2us3gov6crypto9ripemd16010value_typeENSt7__cxx1112basic_stringIcSt11char_traitsIcESaIcEEESt4hashIS4_ESt8equal_toIS4_ESaISt4pairIKS4_SA_EEE5eraseENSt8__detail14_Node_iteratorISH_Lb0ELb1EEE
0000000000173d96 W _ZNSt13unordered_mapIN2us3gov6crypto9ripemd16010value_typeENSt7__cxx1112basic_stringIcSt11char_traitsIcESaIcEEESt4hashIS4_ESt8equal_toIS4_ESaISt4pairIKS4_SA_EEE7emplaceIJRKSH_EEESF_INSt8__detail14_Node_iteratorISH_Lb0ELb1EEEbEDpOT_
0000000000173848 W _ZNSt13unordered_mapIN2us3gov6crypto9ripemd16010value_typeENSt7__cxx1112basic_stringIcSt11char_traitsIcESaIcEEESt4hashIS4_ESt8equal_toIS4_ESaISt4pairIKS4_SA_EEE7emplaceIJRSH_EEESF_INSt8__detail14_Node_iteratorISH_Lb0ELb1EEEbEDpOT_
0000000000172ba2 W _ZNSt13unordered_mapIN2us3gov6crypto9ripemd16010value_typeENSt7__cxx1112basic_stringIcSt11char_traitsIcESaIcEEESt4hashIS4_ESt8equal_toIS4_ESaISt4pairIKS4_SA_EEEC1Ev
0000000000172ba2 W _ZNSt13unordered_mapIN2us3gov6crypto9ripemd16010value_typeENSt7__cxx1112basic_stringIcSt11char_traitsIcESaIcEEESt4hashIS4_ESt8equal_toIS4_ESaISt4pairIKS4_SA_EEEC2Ev
0000000000172bbe W _ZNSt13unordered_mapIN2us3gov6crypto9ripemd16010value_typeENSt7__cxx1112basic_stringIcSt11char_traitsIcESaIcEEESt4hashIS4_ESt8equal_toIS4_ESaISt4pairIKS4_SA_EEED1Ev
0000000000172bbe W _ZNSt13unordered_mapIN2us3gov6crypto9ripemd16010value_typeENSt7__cxx1112basic_stringIcSt11char_traitsIcESaIcEEESt4hashIS4_ESt8equal_toIS4_ESaISt4pairIKS4_SA_EEED2Ev
000000000017b45e W _ZNSt13unordered_mapIN2us3gov6crypto9ripemd16010value_typeESt4pairIS4_mESt4hashIS4_ESt8equal_toIS4_ESaIS5_IKS4_S6_EEE3endEv
000000000017b438 W _ZNSt13unordered_mapIN2us3gov6crypto9ripemd16010value_typeESt4pairIS4_mESt4hashIS4_ESt8equal_toIS4_ESaIS5_IKS4_S6_EEE4findERSB_
000000000017b570 W _ZNSt13unordered_mapIN2us3gov6crypto9ripemd16010value_typeESt4pairIS4_mESt4hashIS4_ESt8equal_toIS4_ESaIS5_IKS4_S6_EEE5beginEv
000000000017b41c W _ZNSt13unordered_mapIN2us3gov6crypto9ripemd16010value_typeESt4pairIS4_mESt4hashIS4_ESt8equal_toIS4_ESaIS5_IKS4_S6_EEE5clearEv
000000000017b508 W _ZNSt13unordered_mapIN2us3gov6crypto9ripemd16010value_typeESt4pairIS4_mESt4hashIS4_ESt8equal_toIS4_ESaIS5_IKS4_S6_EEE7emplaceIJRSB_S5_IS4_iEEEES5_INSt8__detail14_Node_iteratorISC_Lb0ELb1EEEbEDpOT_
0000000000179fe6 W _ZNSt13unordered_mapIN2us3gov6crypto9ripemd16010value_typeESt4pairIS4_mESt4hashIS4_ESt8equal_toIS4_ESaIS5_IKS4_S6_EEEC1Ev
0000000000179fe6 W _ZNSt13unordered_mapIN2us3gov6crypto9ripemd16010value_typeESt4pairIS4_mESt4hashIS4_ESt8equal_toIS4_ESaIS5_IKS4_S6_EEEC2Ev
000000000017a002 W _ZNSt13unordered_mapIN2us3gov6crypto9ripemd16010value_typeESt4pairIS4_mESt4hashIS4_ESt8equal_toIS4_ESaIS5_IKS4_S6_EEED1Ev
000000000017a002 W _ZNSt13unordered_mapIN2us3gov6crypto9ripemd16010value_typeESt4pairIS4_mESt4hashIS4_ESt8equal_toIS4_ESaIS5_IKS4_S6_EEED2Ev
000000000017b5ec W _ZNSt13unordered_mapIPN2us3gov10blockchain6peer_tENS2_5shellESt4hashIS4_ESt8equal_toIS4_ESaISt4pairIKS4_S5_EEE3endEv
000000000017b5c6 W _ZNSt13unordered_mapIPN2us3gov10blockchain6peer_tENS2_5shellESt4hashIS4_ESt8equal_toIS4_ESaISt4pairIKS4_S5_EEE4findERSB_
000000000017b628 W _ZNSt13unordered_mapIPN2us3gov10blockchain6peer_tENS2_5shellESt4hashIS4_ESt8equal_toIS4_ESaISt4pairIKS4_S5_EEE7emplaceIJRS4_S5_EEESA_INSt8__detail14_Node_iteratorISC_Lb0ELb0EEEbEDpOT_
0000000000179d0a W _ZNSt13unordered_mapIPN2us3gov10blockchain6peer_tENS2_5shellESt4hashIS4_ESt8equal_toIS4_ESaISt4pairIKS4_S5_EEEC1Ev
0000000000179d0a W _ZNSt13unordered_mapIPN2us3gov10blockchain6peer_tENS2_5shellESt4hashIS4_ESt8equal_toIS4_ESaISt4pairIKS4_S5_EEEC2Ev
0000000000179d26 W _ZNSt13unordered_mapIPN2us3gov10blockchain6peer_tENS2_5shellESt4hashIS4_ESt8equal_toIS4_ESaISt4pairIKS4_S5_EEED1Ev
0000000000179d26 W _ZNSt13unordered_mapIPN2us3gov10blockchain6peer_tENS2_5shellESt4hashIS4_ESt8equal_toIS4_ESaISt4pairIKS4_S5_EEED2Ev
00000000001461e4 W _ZNSt13unordered_mapIPN2us3gov6socket6clientENSt6chrono10time_pointINS5_3_V212steady_clockENS5_8durationIlSt5ratioILl1ELl1000000000EEEEEESt4hashIS4_ESt8equal_toIS4_ESaISt4pairIKS4_SD_EEE3endEv
000000000014640a W _ZNSt13unordered_mapIPN2us3gov6socket6clientENSt6chrono10time_pointINS5_3_V212steady_clockENS5_8durationIlSt5ratioILl1ELl1000000000EEEEEESt4hashIS4_ESt8equal_toIS4_ESaISt4pairIKS4_SD_EEE4findERSJ_
00000000001461ca W _ZNSt13unordered_mapIPN2us3gov6socket6clientENSt6chrono10time_pointINS5_3_V212steady_clockENS5_8durationIlSt5ratioILl1ELl1000000000EEEEEESt4hashIS4_ESt8equal_toIS4_ESaISt4pairIKS4_SD_EEE5beginEv
0000000000146430 W _ZNSt13unordered_mapIPN2us3gov6socket6clientENSt6chrono10time_pointINS5_3_V212steady_clockENS5_8durationIlSt5ratioILl1ELl1000000000EEEEEESt4hashIS4_ESt8equal_toIS4_ESaISt4pairIKS4_SD_EEE5eraseENSt8__detail14_Node_iteratorISK_Lb0ELb0EEE
0000000000145bf2 W _ZNSt13unordered_mapIPN2us3gov6socket6clientENSt6chrono10time_pointINS5_3_V212steady_clockENS5_8durationIlSt5ratioILl1ELl1000000000EEEEEESt4hashIS4_ESt8equal_toIS4_ESaISt4pairIKS4_SD_EEE7emplaceIJRS4_SD_EEESI_INSt8__detail14_Node_iteratorISK_Lb0ELb0EEEbEDpOT_
0000000000144a42 W _ZNSt13unordered_mapIPN2us3gov6socket6clientENSt6chrono10time_pointINS5_3_V212steady_clockENS5_8durationIlSt5ratioILl1ELl1000000000EEEEEESt4hashIS4_ESt8equal_toIS4_ESaISt4pairIKS4_SD_EEEC1Ev
0000000000144a42 W _ZNSt13unordered_mapIPN2us3gov6socket6clientENSt6chrono10time_pointINS5_3_V212steady_clockENS5_8durationIlSt5ratioILl1ELl1000000000EEEEEESt4hashIS4_ESt8equal_toIS4_ESaISt4pairIKS4_SD_EEEC2Ev
0000000000144a5e W _ZNSt13unordered_mapIPN2us3gov6socket6clientENSt6chrono10time_pointINS5_3_V212steady_clockENS5_8durationIlSt5ratioILl1ELl1000000000EEEEEESt4hashIS4_ESt8equal_toIS4_ESaISt4pairIKS4_SD_EEED1Ev
0000000000144a5e W _ZNSt13unordered_mapIPN2us3gov6socket6clientENSt6chrono10time_pointINS5_3_V212steady_clockENS5_8durationIlSt5ratioILl1ELl1000000000EEEEEESt4hashIS4_ESt8equal_toIS4_ESaISt4pairIKS4_SD_EEED2Ev
00000000001737ae W _ZNSt13unordered_setIiSt4hashIiESt8equal_toIiESaIiEE6insertEOi
0000000000172eee W _ZNSt13unordered_setIiSt4hashIiESt8equal_toIiESaIiEEC1Ev
0000000000172eee W _ZNSt13unordered_setIiSt4hashIiESt8equal_toIiESaIiEEC2Ev
0000000000172f0a W _ZNSt13unordered_setIiSt4hashIiESt8equal_toIiESaIiEED1Ev
0000000000172f0a W _ZNSt13unordered_setIiSt4hashIiESt8equal_toIiESaIiEED2Ev
000000000015d256 W _ZNSt13unordered_setIN2us3gov6crypto9ripemd16010value_typeESt4hashIS4_ESt8equal_toIS4_ESaIS4_EE3endEv
000000000015d230 W _ZNSt13unordered_setIN2us3gov6crypto9ripemd16010value_typeESt4hashIS4_ESt8equal_toIS4_ESaIS4_EE4findERKS4_
000000000015d214 W _ZNSt13unordered_setIN2us3gov6crypto9ripemd16010value_typeESt4hashIS4_ESt8equal_toIS4_ESaIS4_EE5clearEv
000000000015d292 W _ZNSt13unordered_setIN2us3gov6crypto9ripemd16010value_typeESt4hashIS4_ESt8equal_toIS4_ESaIS4_EE7emplaceIJRS4_EEESt4pairINSt8__detail14_Node_iteratorIS4_Lb1ELb1EEEbEDpOT_
000000000015cc72 W _ZNSt13unordered_setIN2us3gov6crypto9ripemd16010value_typeESt4hashIS4_ESt8equal_toIS4_ESaIS4_EEC1Ev
000000000015cc72 W _ZNSt13unordered_setIN2us3gov6crypto9ripemd16010value_typeESt4hashIS4_ESt8equal_toIS4_ESaIS4_EEC2Ev
000000000015cc8e W _ZNSt13unordered_setIN2us3gov6crypto9ripemd16010value_typeESt4hashIS4_ESt8equal_toIS4_ESaIS4_EED1Ev
000000000015cc8e W _ZNSt13unordered_setIN2us3gov6crypto9ripemd16010value_typeESt4hashIS4_ESt8equal_toIS4_ESaIS4_EED2Ev
000000000015d38c W _ZNSt13unordered_setINSt7__cxx1112basic_stringIcSt11char_traitsIcESaIcEEESt4hashIS5_ESt8equal_toIS5_ESaIS5_EE3endEv
000000000015d366 W _ZNSt13unordered_setINSt7__cxx1112basic_stringIcSt11char_traitsIcESaIcEEESt4hashIS5_ESt8equal_toIS5_ESaIS5_EE4findERKS5_
000000000015d332 W _ZNSt13unordered_setINSt7__cxx1112basic_stringIcSt11char_traitsIcESaIcEEESt4hashIS5_ESt8equal_toIS5_ESaIS5_EE7emplaceIJRS5_EEESt4pairINSt8__detail14_Node_iteratorIS5_Lb1ELb1EEEbEDpOT_
000000000015cdee W _ZNSt13unordered_setINSt7__cxx1112basic_stringIcSt11char_traitsIcESaIcEEESt4hashIS5_ESt8equal_toIS5_ESaIS5_EEC1Ev
000000000015cdee W _ZNSt13unordered_setINSt7__cxx1112basic_stringIcSt11char_traitsIcESaIcEEESt4hashIS5_ESt8equal_toIS5_ESaIS5_EEC2Ev
000000000015ce0a W _ZNSt13unordered_setINSt7__cxx1112basic_stringIcSt11char_traitsIcESaIcEEESt4hashIS5_ESt8equal_toIS5_ESaIS5_EED1Ev
000000000015ce0a W _ZNSt13unordered_setINSt7__cxx1112basic_stringIcSt11char_traitsIcESaIcEEESt4hashIS5_ESt8equal_toIS5_ESaIS5_EED2Ev
000000000019a37c W _ZNSt13unordered_setIPN2us3gov14signal_handler8callbackESt4hashIS4_ESt8equal_toIS4_ESaIS4_EE3endEv
0000000000144d00 W _ZNSt13unordered_setIPN2us3gov14signal_handler8callbackESt4hashIS4_ESt8equal_toIS4_ESaIS4_EE4findERKS4_
000000000019a362 W _ZNSt13unordered_setIPN2us3gov14signal_handler8callbackESt4hashIS4_ESt8equal_toIS4_ESaIS4_EE5beginEv
0000000000144d26 W _ZNSt13unordered_setIPN2us3gov14signal_handler8callbackESt4hashIS4_ESt8equal_toIS4_ESaIS4_EE5eraseENSt8__detail14_Node_iteratorIS4_Lb1ELb0EEE
0000000000144ccc W _ZNSt13unordered_setIPN2us3gov14signal_handler8callbackESt4hashIS4_ESt8equal_toIS4_ESaIS4_EE7emplaceIJRS4_EEESt4pairINSt8__detail14_Node_iteratorIS4_Lb1ELb0EEEbEDpOT_
000000000019a278 W _ZNSt13unordered_setIPN2us3gov14signal_handler8callbackESt4hashIS4_ESt8equal_toIS4_ESaIS4_EEC1Ev
000000000019a278 W _ZNSt13unordered_setIPN2us3gov14signal_handler8callbackESt4hashIS4_ESt8equal_toIS4_ESaIS4_EEC2Ev
000000000019a294 W _ZNSt13unordered_setIPN2us3gov14signal_handler8callbackESt4hashIS4_ESt8equal_toIS4_ESaIS4_EED1Ev
000000000019a294 W _ZNSt13unordered_setIPN2us3gov14signal_handler8callbackESt4hashIS4_ESt8equal_toIS4_ESaIS4_EED2Ev
00000000001456fa W _ZNSt13unordered_setIPN2us3gov6socket6clientESt4hashIS4_ESt8equal_toIS4_ESaIS4_EE3endEv
000000000014648a W _ZNSt13unordered_setIPN2us3gov6socket6clientESt4hashIS4_ESt8equal_toIS4_ESaIS4_EE4findERKS4_
00000000001456e0 W _ZNSt13unordered_setIPN2us3gov6socket6clientESt4hashIS4_ESt8equal_toIS4_ESaIS4_EE5beginEv
00000000001456c4 W _ZNSt13unordered_setIPN2us3gov6socket6clientESt4hashIS4_ESt8equal_toIS4_ESaIS4_EE5clearEv
00000000001464d2 W _ZNSt13unordered_setIPN2us3gov6socket6clientESt4hashIS4_ESt8equal_toIS4_ESaIS4_EE5eraseENSt8__detail14_Node_iteratorIS4_Lb1ELb0EEE
0000000000146456 W _ZNSt13unordered_setIPN2us3gov6socket6clientESt4hashIS4_ESt8equal_toIS4_ESaIS4_EE7emplaceIJRS4_EEESt4pairINSt8__detail14_Node_iteratorIS4_Lb1ELb0EEEbEDpOT_
0000000000144bba W _ZNSt13unordered_setIPN2us3gov6socket6clientESt4hashIS4_ESt8equal_toIS4_ESaIS4_EEaSERKSA_
00000000001448cc W _ZNSt13unordered_setIPN2us3gov6socket6clientESt4hashIS4_ESt8equal_toIS4_ESaIS4_EEC1Ev
00000000001448cc W _ZNSt13unordered_setIPN2us3gov6socket6clientESt4hashIS4_ESt8equal_toIS4_ESaIS4_EEC2Ev
00000000001448e8 W _ZNSt13unordered_setIPN2us3gov6socket6clientESt4hashIS4_ESt8equal_toIS4_ESaIS4_EED1Ev
00000000001448e8 W _ZNSt13unordered_setIPN2us3gov6socket6clientESt4hashIS4_ESt8equal_toIS4_ESaIS4_EED2Ev
0000000000193475 W _ZNSt14__array_traitsIdLm1EE6_S_ptrERA1_Kd
0000000000191827 W _ZNSt14__array_traitsIdLm1EE6_S_refERA1_Kdm
0000000000176120 W _ZNSt14__array_traitsIdLm2EE6_S_ptrERA2_Kd
00000000001744e3 W _ZNSt14__array_traitsIdLm2EE6_S_refERA2_Kdm
000000000013cf3c W _ZNSt14__array_traitsIhLm20EE6_S_refERA20_Khm
0000000000134869 W _ZNSt14__array_traitsIhLm32EE6_S_ptrERA32_Kh
0000000000132a6f W _ZNSt14__array_traitsIhLm32EE6_S_refERA32_Khm
0000000000184538 W _ZNSt14__array_traitsIN2us3gov6crypto9ripemd16010value_typeELm1EE6_S_ptrERA1_KS4_
000000000018417e W _ZNSt14__array_traitsIN2us3gov6crypto9ripemd16010value_typeELm1EE6_S_refERA1_KS4_m
0000000000192286 W _ZNSt14__array_traitsIPKcLm1EE6_S_refERA1_KS1_m
000000000015c69f W _ZNSt14__array_traitsIPKcLm2EE6_S_refERA2_KS1_m
00000000001872c9 W _ZNSt14__array_traitsIPKcLm3EE6_S_refERA3_KS1_m
000000000015c6c0 W _ZNSt14__array_traitsIPKcLm5EE6_S_refERA5_KS1_m
0000000000152fd0 W _ZNSt14__basic_futureIvEC1ERKSt10shared_ptrINSt13__future_base13_State_baseV2EE
0000000000152fd0 W _ZNSt14__basic_futureIvEC2ERKSt10shared_ptrINSt13__future_base13_State_baseV2EE
0000000000151d5a W _ZNSt14__basic_futureIvED1Ev
0000000000151d5a W _ZNSt14__basic_futureIvED2Ev
                 U _ZNSt14basic_ifstreamIcSt11char_traitsIcEEC1EPKcSt13_Ios_Openmode
                 U _ZNSt14basic_ifstreamIcSt11char_traitsIcEEC1ERKNSt7__cxx1112basic_stringIcS1_SaIcEEESt13_Ios_Openmode
                 U _ZNSt14basic_ifstreamIcSt11char_traitsIcEED1Ev
                 U _ZNSt14basic_ofstreamIcSt11char_traitsIcEEC1ERKNSt7__cxx1112basic_stringIcS1_SaIcEEESt13_Ios_Openmode
                 U _ZNSt14basic_ofstreamIcSt11char_traitsIcEED1Ev
000000000014f086 W _ZNSt14default_deleteIN2us3gov3net2osEEC1INS2_5posixEvEERKS_IT_E
000000000014f086 W _ZNSt14default_deleteIN2us3gov3net2osEEC2INS2_5posixEvEERKS_IT_E
0000000000151518 W _ZNSt14_Function_baseC1Ev
0000000000151518 W _ZNSt14_Function_baseC2Ev
0000000000151530 W _ZNSt14_Function_baseD1Ev
0000000000151530 W _ZNSt14_Function_baseD2Ev
0000000000132f0b W _ZNSt14pointer_traitsIPcE10pointer_toERc
0000000000133f7c W _ZNSt14pointer_traitsIPKcE10pointer_toERS0_
0000000000177ca9 W _ZNSt14pointer_traitsIPNSt8__detail10_Hash_nodeIiLb0EEEE10pointer_toERS2_
00000000001606af W _ZNSt14pointer_traitsIPNSt8__detail10_Hash_nodeIN2us3gov6crypto9ripemd16010value_typeELb1EEEE10pointer_toERS7_
0000000000160b09 W _ZNSt14pointer_traitsIPNSt8__detail10_Hash_nodeINSt7__cxx1112basic_stringIcSt11char_traitsIcESaIcEEELb1EEEE10pointer_toERS8_
000000000014cf03 W _ZNSt14pointer_traitsIPNSt8__detail10_Hash_nodeIPN2us3gov14signal_handler8callbackELb0EEEE10pointer_toERS7_
000000000014bb5e W _ZNSt14pointer_traitsIPNSt8__detail10_Hash_nodeIPN2us3gov6socket6clientELb0EEEE10pointer_toERS7_
0000000000180d97 W _ZNSt14pointer_traitsIPNSt8__detail10_Hash_nodeISt4pairIKiPN2us3gov10blockchain3appEELb0EEEE10pointer_toERSA_
000000000014bd8e W _ZNSt14pointer_traitsIPNSt8__detail10_Hash_nodeISt4pairIKiPN2us3gov6socket6clientEELb0EEEE10pointer_toERSA_
000000000019569c W _ZNSt14pointer_traitsIPNSt8__detail10_Hash_nodeISt4pairIKN2us3gov4cash3app11local_deltaEmELb1EEEE10pointer_toERSA_
00000000001848fa W _ZNSt14pointer_traitsIPNSt8__detail10_Hash_nodeISt4pairIKN2us3gov6crypto9ripemd16010value_typeEmELb1EEEE10pointer_toERSA_
0000000000194d1d W _ZNSt14pointer_traitsIPNSt8__detail10_Hash_nodeISt4pairIKN2us3gov6crypto9ripemd16010value_typeENS4_4cash3app11local_delta9account_tEELb1EEEE10pointer_toERSE_
0000000000177b23 W _ZNSt14pointer_traitsIPNSt8__detail10_Hash_nodeISt4pairIKN2us3gov6crypto9ripemd16010value_typeENSt7__cxx1112basic_stringIcSt11char_traitsIcESaIcEEEELb1EEEE10pointer_toERSG_
0000000000180f5f W _ZNSt14pointer_traitsIPNSt8__detail10_Hash_nodeISt4pairIKN2us3gov6crypto9ripemd16010value_typeES2_IS7_mEELb1EEEE10pointer_toERSB_
0000000000180e7b W _ZNSt14pointer_traitsIPNSt8__detail10_Hash_nodeISt4pairIKPN2us3gov10blockchain6peer_tENS5_5shellEELb0EEEE10pointer_toERSB_
000000000014d2d3 W _ZNSt14pointer_traitsIPNSt8__detail10_Hash_nodeISt4pairIKPN2us3gov6socket6clientENSt6chrono10time_pointINS9_3_V212steady_clockENS9_8durationIlSt5ratioILl1ELl1000000000EEEEEEELb0EEEE10pointer_toERSJ_
000000000014bd2b W _ZNSt14pointer_traitsIPPNSt8__detail15_Hash_node_baseEE10pointer_toERS2_
0000000000154346 W _ZNSt14__shared_countILN9__gnu_cxx12_Lock_policyE2EE7_M_swapERS2_
00000000001536f8 W _ZNSt14__shared_countILN9__gnu_cxx12_Lock_policyE2EEC1ERKS2_
0000000000155742 W _ZNSt14__shared_countILN9__gnu_cxx12_Lock_policyE2EEC1Ev
0000000000157a86 W _ZNSt14__shared_countILN9__gnu_cxx12_Lock_policyE2EEC1ISt6atomicIbESaIS5_EJbEEESt19_Sp_make_shared_tagPT_RKT0_DpOT1_
00000000001536f8 W _ZNSt14__shared_countILN9__gnu_cxx12_Lock_policyE2EEC2ERKS2_
0000000000155742 W _ZNSt14__shared_countILN9__gnu_cxx12_Lock_policyE2EEC2Ev
0000000000157a86 W _ZNSt14__shared_countILN9__gnu_cxx12_Lock_policyE2EEC2ISt6atomicIbESaIS5_EJbEEESt19_Sp_make_shared_tagPT_RKT0_DpOT1_
000000000015292c W _ZNSt14__shared_countILN9__gnu_cxx12_Lock_policyE2EED1Ev
000000000015292c W _ZNSt14__shared_countILN9__gnu_cxx12_Lock_policyE2EED2Ev
000000000015a0d0 W _ZNSt14_Sp_ebo_helperILi0ESaIiELb1EE6_S_getERS1_
00000000001599bc W _ZNSt14_Sp_ebo_helperILi0ESaIiELb1EEC1ERKS0_
00000000001599bc W _ZNSt14_Sp_ebo_helperILi0ESaIiELb1EEC2ERKS0_
00000000001599a0 W _ZNSt14_Sp_ebo_helperILi0ESaIiELb1EED1Ev
00000000001599a0 W _ZNSt14_Sp_ebo_helperILi0ESaIiELb1EED2Ev
000000000015a106 W _ZNSt14_Sp_ebo_helperILi0ESaISt13packaged_taskIFviEEELb1EE6_S_getERS4_
00000000001594da W _ZNSt14_Sp_ebo_helperILi0ESaISt13packaged_taskIFviEEELb1EEC1ERKS3_
00000000001594da W _ZNSt14_Sp_ebo_helperILi0ESaISt13packaged_taskIFviEEELb1EEC2ERKS3_
0000000000158c86 W _ZNSt14_Sp_ebo_helperILi0ESaISt13packaged_taskIFviEEELb1EED1Ev
0000000000158c86 W _ZNSt14_Sp_ebo_helperILi0ESaISt13packaged_taskIFviEEELb1EED2Ev
000000000015a133 W _ZNSt14_Sp_ebo_helperILi0ESaISt6atomicIbEELb1EE6_S_getERS3_
0000000000159134 W _ZNSt14_Sp_ebo_helperILi0ESaISt6atomicIbEELb1EEC1ERKS2_
0000000000159134 W _ZNSt14_Sp_ebo_helperILi0ESaISt6atomicIbEELb1EEC2ERKS2_
00000000001583cc W _ZNSt14_Sp_ebo_helperILi0ESaISt6atomicIbEELb1EED1Ev
00000000001583cc W _ZNSt14_Sp_ebo_helperILi0ESaISt6atomicIbEELb1EED2Ev
0000000000159281 W _ZNSt15__allocated_ptrISaISt23_Sp_counted_ptr_inplaceISt13packaged_taskIFviEESaIS3_ELN9__gnu_cxx12_Lock_policyE2EEEE10_S_raw_ptrEPS7_
0000000000158c34 W _ZNSt15__allocated_ptrISaISt23_Sp_counted_ptr_inplaceISt13packaged_taskIFviEESaIS3_ELN9__gnu_cxx12_Lock_policyE2EEEE3getEv
0000000000158cbe W _ZNSt15__allocated_ptrISaISt23_Sp_counted_ptr_inplaceISt13packaged_taskIFviEESaIS3_ELN9__gnu_cxx12_Lock_policyE2EEEEaSEDn
